
Debug/cross-Linux/kernel:     file format elf32-i386


Disassembly of section .text:

01000000 <dumpregs>:
kernelLoadAddress():
/home/yogi/src/os/chrisOSKernel/../chrisOS/asm/asmFunctions.s:22

.globl dumpregs
.type dumpregs, @function
dumpregs:
.code32
        mov exceptionAX, eax
 1000000:	a3 b0 01 12 00       	mov    ds:0x1201b0,eax
/home/yogi/src/os/chrisOSKernel/../chrisOS/asm/asmFunctions.s:23
        mov exceptionBX, ebx
 1000005:	89 1d b4 01 12 00    	mov    DWORD PTR ds:0x1201b4,ebx
/home/yogi/src/os/chrisOSKernel/../chrisOS/asm/asmFunctions.s:24
        mov exceptionCX, ecx
 100000b:	89 0d b8 01 12 00    	mov    DWORD PTR ds:0x1201b8,ecx
/home/yogi/src/os/chrisOSKernel/../chrisOS/asm/asmFunctions.s:25
        mov exceptionDX, edx
 1000011:	89 15 bc 01 12 00    	mov    DWORD PTR ds:0x1201bc,edx
/home/yogi/src/os/chrisOSKernel/../chrisOS/asm/asmFunctions.s:26
        mov exceptionSI, esi
 1000017:	89 35 c0 01 12 00    	mov    DWORD PTR ds:0x1201c0,esi
/home/yogi/src/os/chrisOSKernel/../chrisOS/asm/asmFunctions.s:27
        mov exceptionDI, edi
 100001d:	89 3d c4 01 12 00    	mov    DWORD PTR ds:0x1201c4,edi
/home/yogi/src/os/chrisOSKernel/../chrisOS/asm/asmFunctions.s:28
        mov exceptionBP, eax
 1000023:	a3 c8 01 12 00       	mov    ds:0x1201c8,eax
/home/yogi/src/os/chrisOSKernel/../chrisOS/asm/asmFunctions.s:29
        mov eax, cr0
 1000028:	0f 20 c0             	mov    eax,cr0
/home/yogi/src/os/chrisOSKernel/../chrisOS/asm/asmFunctions.s:30
        mov exceptionCR0, eax
 100002b:	a3 cc 01 12 00       	mov    ds:0x1201cc,eax
/home/yogi/src/os/chrisOSKernel/../chrisOS/asm/asmFunctions.s:31
        mov eax, cr3
 1000030:	0f 20 d8             	mov    eax,cr3
/home/yogi/src/os/chrisOSKernel/../chrisOS/asm/asmFunctions.s:32
        mov exceptionCR3, eax
 1000033:	a3 d0 01 12 00       	mov    ds:0x1201d0,eax
/home/yogi/src/os/chrisOSKernel/../chrisOS/asm/asmFunctions.s:33
        mov eax, cr4
 1000038:	0f 20 e0             	mov    eax,cr4
/home/yogi/src/os/chrisOSKernel/../chrisOS/asm/asmFunctions.s:34
        mov exceptionCR4, eax
 100003b:	a3 d4 01 12 00       	mov    ds:0x1201d4,eax
/home/yogi/src/os/chrisOSKernel/../chrisOS/asm/asmFunctions.s:35
        mov eax, exceptionAX
 1000040:	a1 b0 01 12 00       	mov    eax,ds:0x1201b0
/home/yogi/src/os/chrisOSKernel/../chrisOS/asm/asmFunctions.s:36
        ret 
 1000045:	c3                   	ret    

01000046 <storeGDT>:
storeGDT():
/home/yogi/src/os/chrisOSKernel/../chrisOS/asm/asmFunctions.s:42

.global storeGDT
.type storeGDT, @function
storeGDT:
.code32
    mov eax,[esp+4]
 1000046:	8b 44 24 04          	mov    eax,DWORD PTR [esp+0x4]
/home/yogi/src/os/chrisOSKernel/../chrisOS/asm/asmFunctions.s:43
    sgdt [eax]
 100004a:	0f 01 00             	sgdtd  [eax]
/home/yogi/src/os/chrisOSKernel/../chrisOS/asm/asmFunctions.s:44
    ret
 100004d:	c3                   	ret    
 100004e:	66 90                	xchg   ax,ax

01000050 <update_cursor>:
update_cursor():
/home/yogi/src/os/chrisOSKernel/../chrisOS/src/char/console/basic_display.c:26
KERNEL_DATA_SECTION int8_t savedPosPointer=0;
KERNEL_DATA_SECTION uint8_t kTerminalHeight;

void update_cursor()
 {
    unsigned short position=(terminal_row*VGA_WIDTH) + terminal_column;
 1000050:	8b 0d 00 00 12 00    	mov    ecx,DWORD PTR ds:0x120000
 1000056:	8d 0c 89             	lea    ecx,[ecx+ecx*4]
 1000059:	c1 e1 04             	shl    ecx,0x4
 100005c:	66 03 0d 04 00 12 00 	add    cx,WORD PTR ds:0x120004
outb():
/home/yogi/src/os/chrisOSKernel/include/io.h:23
void IRQ_set_mask(unsigned char IRQline);
void IRQ_clear_mask(unsigned char IRQline);

static __inline void outb(unsigned short __port, unsigned char __val)
{
	__asm__ volatile ("outb %1, %0" : : "a" (__val), "dN" (__port));
 1000063:	ba d4 03 00 00       	mov    edx,0x3d4
 1000068:	b8 0f 00 00 00       	mov    eax,0xf
 100006d:	ee                   	out    dx,al
 100006e:	ba d5 03 00 00       	mov    edx,0x3d5
 1000073:	89 c8                	mov    eax,ecx
 1000075:	ee                   	out    dx,al
 1000076:	ba d4 03 00 00       	mov    edx,0x3d4
 100007b:	b8 0e 00 00 00       	mov    eax,0xe
 1000080:	ee                   	out    dx,al
 1000081:	89 c8                	mov    eax,ecx
 1000083:	66 c1 e8 08          	shr    ax,0x8
 1000087:	ba d5 03 00 00       	mov    edx,0x3d5
 100008c:	ee                   	out    dx,al
 100008d:	c3                   	ret    

0100008e <make_color>:
make_color():
/home/yogi/src/os/chrisOSKernel/../chrisOS/src/char/console/basic_display.c:38
    outb(0x3D5, (unsigned char )((position>>8)&0xFF));
    //Move the cursor in the bios data area
 }

uint8_t make_color(enum vga_color fg, enum vga_color bg) {
        return fg | bg << 4;
 100008e:	0f b6 44 24 08       	movzx  eax,BYTE PTR [esp+0x8]
 1000093:	c1 e0 04             	shl    eax,0x4
 1000096:	0a 44 24 04          	or     al,BYTE PTR [esp+0x4]
/home/yogi/src/os/chrisOSKernel/../chrisOS/src/char/console/basic_display.c:39
}
 100009a:	c3                   	ret    

0100009b <make_vgaentry>:
make_vgaentry():
/home/yogi/src/os/chrisOSKernel/../chrisOS/src/char/console/basic_display.c:44

uint16_t make_vgaentry(char c, uint8_t color) {
        uint16_t c16 = c;
        uint16_t color16 = color;
        return c16 | color16 << 8;
 100009b:	0f b6 44 24 08       	movzx  eax,BYTE PTR [esp+0x8]
 10000a0:	c1 e0 08             	shl    eax,0x8
 10000a3:	66 0f be 54 24 04    	movsx  dx,BYTE PTR [esp+0x4]
 10000a9:	09 d0                	or     eax,edx
/home/yogi/src/os/chrisOSKernel/../chrisOS/src/char/console/basic_display.c:45
}
 10000ab:	c3                   	ret    

010000ac <terminal_setcolor>:
terminal_setcolor():
/home/yogi/src/os/chrisOSKernel/../chrisOS/src/char/console/basic_display.c:49


void terminal_setcolor(uint8_t color) {
        terminal_color = color;
 10000ac:	8b 44 24 04          	mov    eax,DWORD PTR [esp+0x4]
 10000b0:	a2 08 00 12 00       	mov    ds:0x120008,al
 10000b5:	c3                   	ret    

010000b6 <terminal_putentryat>:
terminal_putentryat():
/home/yogi/src/os/chrisOSKernel/../chrisOS/src/char/console/basic_display.c:52
}

void terminal_putentryat(char c, uint8_t color, size_t x, size_t y) {
 10000b6:	8b 44 24 10          	mov    eax,DWORD PTR [esp+0x10]
/home/yogi/src/os/chrisOSKernel/../chrisOS/src/char/console/basic_display.c:54
    const size_t index = y * VGA_WIDTH + x;
        terminal_buffer[index] = make_vgaentry(c, color);
 10000ba:	8d 04 80             	lea    eax,[eax+eax*4]
 10000bd:	c1 e0 04             	shl    eax,0x4
 10000c0:	03 44 24 0c          	add    eax,DWORD PTR [esp+0xc]
 10000c4:	0f b6 54 24 08       	movzx  edx,BYTE PTR [esp+0x8]
 10000c9:	c1 e2 08             	shl    edx,0x8
 10000cc:	66 0f be 4c 24 04    	movsx  cx,BYTE PTR [esp+0x4]
 10000d2:	09 ca                	or     edx,ecx
 10000d4:	8b 0d 0c 00 12 00    	mov    ecx,DWORD PTR ds:0x12000c
 10000da:	66 89 14 41          	mov    WORD PTR [ecx+eax*2],dx
 10000de:	c3                   	ret    

010000df <cursorSavePosition>:
cursorSavePosition():
/home/yogi/src/os/chrisOSKernel/../chrisOS/src/char/console/basic_display.c:59
}

void cursorSavePosition()
{
    if (savedPosPointer < 10)
 10000df:	0f b6 05 26 00 12 00 	movzx  eax,BYTE PTR ds:0x120026
 10000e6:	3c 09                	cmp    al,0x9
 10000e8:	7f 23                	jg     100010d <cursorSavePosition+0x2e>
/home/yogi/src/os/chrisOSKernel/../chrisOS/src/char/console/basic_display.c:61
    {
        savedPosX[++savedPosPointer] = terminal_column;
 10000ea:	83 c0 01             	add    eax,0x1
 10000ed:	a2 26 00 12 00       	mov    ds:0x120026,al
 10000f2:	0f be c0             	movsx  eax,al
 10000f5:	8b 15 04 00 12 00    	mov    edx,DWORD PTR ds:0x120004
 10000fb:	88 90 10 00 12 00    	mov    BYTE PTR [eax+0x120010],dl
/home/yogi/src/os/chrisOSKernel/../chrisOS/src/char/console/basic_display.c:62
        savedPosY[savedPosPointer] = terminal_row;
 1000101:	8b 15 00 00 12 00    	mov    edx,DWORD PTR ds:0x120000
 1000107:	88 90 1c 00 12 00    	mov    BYTE PTR [eax+0x12001c],dl
 100010d:	f3 c3                	repz ret 

0100010f <cursorRestorePosition>:
cursorRestorePosition():
/home/yogi/src/os/chrisOSKernel/../chrisOS/src/char/console/basic_display.c:68
    }
}

void cursorRestorePosition()
{
    if (savedPosPointer > 0)
 100010f:	0f b6 05 26 00 12 00 	movzx  eax,BYTE PTR ds:0x120026
 1000116:	84 c0                	test   al,al
 1000118:	7e 29                	jle    1000143 <cursorRestorePosition+0x34>
/home/yogi/src/os/chrisOSKernel/../chrisOS/src/char/console/basic_display.c:70
    {
        terminal_column = savedPosX[savedPosPointer];
 100011a:	0f be d0             	movsx  edx,al
 100011d:	0f b6 8a 10 00 12 00 	movzx  ecx,BYTE PTR [edx+0x120010]
 1000124:	89 0d 04 00 12 00    	mov    DWORD PTR ds:0x120004,ecx
/home/yogi/src/os/chrisOSKernel/../chrisOS/src/char/console/basic_display.c:71
        terminal_row = savedPosY[savedPosPointer--];
 100012a:	83 e8 01             	sub    eax,0x1
 100012d:	a2 26 00 12 00       	mov    ds:0x120026,al
 1000132:	0f b6 82 1c 00 12 00 	movzx  eax,BYTE PTR [edx+0x12001c]
 1000139:	a3 00 00 12 00       	mov    ds:0x120000,eax
/home/yogi/src/os/chrisOSKernel/../chrisOS/src/char/console/basic_display.c:72
        update_cursor();
 100013e:	e8 0d ff ff ff       	call   1000050 <update_cursor>
 1000143:	f3 c3                	repz ret 

01000145 <terminal_clear>:
terminal_clear():
/home/yogi/src/os/chrisOSKernel/../chrisOS/src/char/console/basic_display.c:77
    }
}

void terminal_clear()
{
 1000145:	56                   	push   esi
 1000146:	53                   	push   ebx
/home/yogi/src/os/chrisOSKernel/../chrisOS/src/char/console/basic_display.c:79
    //terminal_color = make_color(COLOR_LIGHT_GREEN, COLOR_BLACK);
        for (size_t y = 0; y < kTerminalHeight; y++) {
 1000147:	ba 00 00 00 00       	mov    edx,0x0
 100014c:	be 00 00 00 00       	mov    esi,0x0
 1000151:	80 3d 27 00 12 00 00 	cmp    BYTE PTR ds:0x120027,0x0
 1000158:	75 30                	jne    100018a <terminal_clear+0x45>
 100015a:	eb 36                	jmp    1000192 <terminal_clear+0x4d>
/home/yogi/src/os/chrisOSKernel/../chrisOS/src/char/console/basic_display.c:82 (discriminator 3)
                for (size_t x = 0; x < VGA_WIDTH; x++) {
                        const size_t index = y * VGA_WIDTH + x;
                        terminal_buffer[index] = make_vgaentry(' ', terminal_color);
 100015c:	0f b6 05 08 00 12 00 	movzx  eax,BYTE PTR ds:0x120008
 1000163:	c1 e0 08             	shl    eax,0x8
 1000166:	83 c8 20             	or     eax,0x20
 1000169:	8b 0d 0c 00 12 00    	mov    ecx,DWORD PTR ds:0x12000c
 100016f:	66 89 04 11          	mov    WORD PTR [ecx+edx*1],ax
 1000173:	83 c2 02             	add    edx,0x2
/home/yogi/src/os/chrisOSKernel/../chrisOS/src/char/console/basic_display.c:80 (discriminator 3)

void terminal_clear()
{
    //terminal_color = make_color(COLOR_LIGHT_GREEN, COLOR_BLACK);
        for (size_t y = 0; y < kTerminalHeight; y++) {
                for (size_t x = 0; x < VGA_WIDTH; x++) {
 1000176:	39 d3                	cmp    ebx,edx
 1000178:	75 e2                	jne    100015c <terminal_clear+0x17>
/home/yogi/src/os/chrisOSKernel/../chrisOS/src/char/console/basic_display.c:79 (discriminator 2)
}

void terminal_clear()
{
    //terminal_color = make_color(COLOR_LIGHT_GREEN, COLOR_BLACK);
        for (size_t y = 0; y < kTerminalHeight; y++) {
 100017a:	83 c6 01             	add    esi,0x1
 100017d:	89 da                	mov    edx,ebx
 100017f:	0f b6 05 27 00 12 00 	movzx  eax,BYTE PTR ds:0x120027
 1000186:	39 f0                	cmp    eax,esi
 1000188:	76 08                	jbe    1000192 <terminal_clear+0x4d>
 100018a:	8d 9a a0 00 00 00    	lea    ebx,[edx+0xa0]
 1000190:	eb ca                	jmp    100015c <terminal_clear+0x17>
/home/yogi/src/os/chrisOSKernel/../chrisOS/src/char/console/basic_display.c:85
                for (size_t x = 0; x < VGA_WIDTH; x++) {
                        const size_t index = y * VGA_WIDTH + x;
                        terminal_buffer[index] = make_vgaentry(' ', terminal_color);
                }
        }
    terminal_column=0;
 1000192:	c7 05 04 00 12 00 00 	mov    DWORD PTR ds:0x120004,0x0
 1000199:	00 00 00 
/home/yogi/src/os/chrisOSKernel/../chrisOS/src/char/console/basic_display.c:86
    terminal_row=0;
 100019c:	c7 05 00 00 12 00 00 	mov    DWORD PTR ds:0x120000,0x0
 10001a3:	00 00 00 
/home/yogi/src/os/chrisOSKernel/../chrisOS/src/char/console/basic_display.c:87
    update_cursor();
 10001a6:	e8 a5 fe ff ff       	call   1000050 <update_cursor>
/home/yogi/src/os/chrisOSKernel/../chrisOS/src/char/console/basic_display.c:88
}
 10001ab:	5b                   	pop    ebx
 10001ac:	5e                   	pop    esi
 10001ad:	c3                   	ret    

010001ae <terminal_clear_line>:
terminal_clear_line():
/home/yogi/src/os/chrisOSKernel/../chrisOS/src/char/console/basic_display.c:91

void terminal_clear_line(unsigned lineNo)
{
 10001ae:	53                   	push   ebx
 10001af:	8b 44 24 08          	mov    eax,DWORD PTR [esp+0x8]
/home/yogi/src/os/chrisOSKernel/../chrisOS/src/char/console/basic_display.c:92
    if (lineNo>SYS_VGA_HEIGHT-1)
 10001b3:	83 f8 31             	cmp    eax,0x31
 10001b6:	77 2a                	ja     10001e2 <terminal_clear_line+0x34>
 10001b8:	8d 14 80             	lea    edx,[eax+eax*4]
 10001bb:	c1 e2 05             	shl    edx,0x5
 10001be:	8d 9a a0 00 00 00    	lea    ebx,[edx+0xa0]
/home/yogi/src/os/chrisOSKernel/../chrisOS/src/char/console/basic_display.c:97 (discriminator 3)
        return;
    for (unsigned cnt=0;cnt<VGA_WIDTH;cnt++)
    {
        const size_t index = lineNo * VGA_WIDTH + cnt;
        terminal_buffer[index] = make_vgaentry(' ', terminal_color);
 10001c4:	0f b6 05 08 00 12 00 	movzx  eax,BYTE PTR ds:0x120008
 10001cb:	c1 e0 08             	shl    eax,0x8
 10001ce:	83 c8 20             	or     eax,0x20
 10001d1:	8b 0d 0c 00 12 00    	mov    ecx,DWORD PTR ds:0x12000c
 10001d7:	66 89 04 11          	mov    WORD PTR [ecx+edx*1],ax
 10001db:	83 c2 02             	add    edx,0x2
/home/yogi/src/os/chrisOSKernel/../chrisOS/src/char/console/basic_display.c:94 (discriminator 3)

void terminal_clear_line(unsigned lineNo)
{
    if (lineNo>SYS_VGA_HEIGHT-1)
        return;
    for (unsigned cnt=0;cnt<VGA_WIDTH;cnt++)
 10001de:	39 da                	cmp    edx,ebx
 10001e0:	75 e2                	jne    10001c4 <terminal_clear_line+0x16>
/home/yogi/src/os/chrisOSKernel/../chrisOS/src/char/console/basic_display.c:99
    {
        const size_t index = lineNo * VGA_WIDTH + cnt;
        terminal_buffer[index] = make_vgaentry(' ', terminal_color);
    }
}
 10001e2:	5b                   	pop    ebx
 10001e3:	c3                   	ret    

010001e4 <terminal_copyline>:
terminal_copyline():
/home/yogi/src/os/chrisOSKernel/../chrisOS/src/char/console/basic_display.c:102

void terminal_copyline(unsigned dstLine, unsigned srcLine)
{
 10001e4:	83 ec 10             	sub    esp,0x10
 10001e7:	8b 54 24 14          	mov    edx,DWORD PTR [esp+0x14]
 10001eb:	8b 44 24 18          	mov    eax,DWORD PTR [esp+0x18]
/home/yogi/src/os/chrisOSKernel/../chrisOS/src/char/console/basic_display.c:107
    unsigned rowBytes = VGA_WIDTH*2;
    uintptr_t dest=(uintptr_t)TEXTMODE_MEMORY_START+(dstLine*rowBytes);
    uintptr_t src=(uintptr_t)TEXTMODE_MEMORY_START+(srcLine*rowBytes);
    
    memcpy((void*)dest,(void*)src,rowBytes);
 10001ef:	68 a0 00 00 00       	push   0xa0
 10001f4:	8d 04 80             	lea    eax,[eax+eax*4]
 10001f7:	c1 e0 05             	shl    eax,0x5
 10001fa:	05 00 80 0b 00       	add    eax,0xb8000
 10001ff:	50                   	push   eax
 1000200:	8d 04 92             	lea    eax,[edx+edx*4]
 1000203:	c1 e0 05             	shl    eax,0x5
 1000206:	05 00 80 0b 00       	add    eax,0xb8000
 100020b:	50                   	push   eax
 100020c:	e8 fb 1d 00 00       	call   100200c <memcpy>
/home/yogi/src/os/chrisOSKernel/../chrisOS/src/char/console/basic_display.c:108
}
 1000211:	83 c4 1c             	add    esp,0x1c
 1000214:	c3                   	ret    

01000215 <terminal_putchar>:
terminal_putchar():
/home/yogi/src/os/chrisOSKernel/../chrisOS/src/char/console/basic_display.c:110

void terminal_putchar(char c) {
 1000215:	53                   	push   ebx
 1000216:	83 ec 08             	sub    esp,0x8
 1000219:	8b 44 24 10          	mov    eax,DWORD PTR [esp+0x10]
/home/yogi/src/os/chrisOSKernel/../chrisOS/src/char/console/basic_display.c:111
    if (c=='\n')
 100021d:	3c 0a                	cmp    al,0xa
 100021f:	75 16                	jne    1000237 <terminal_putchar+0x22>
/home/yogi/src/os/chrisOSKernel/../chrisOS/src/char/console/basic_display.c:113
    {
            terminal_column = 0;
 1000221:	c7 05 04 00 12 00 00 	mov    DWORD PTR ds:0x120004,0x0
 1000228:	00 00 00 
/home/yogi/src/os/chrisOSKernel/../chrisOS/src/char/console/basic_display.c:114
            terminal_row += 1;
 100022b:	83 05 00 00 12 00 01 	add    DWORD PTR ds:0x120000,0x1
 1000232:	e9 d8 00 00 00       	jmp    100030f <terminal_putchar+0xfa>
/home/yogi/src/os/chrisOSKernel/../chrisOS/src/char/console/basic_display.c:116
    }
    else if (c=='\b')
 1000237:	3c 08                	cmp    al,0x8
 1000239:	75 48                	jne    1000283 <terminal_putchar+0x6e>
/home/yogi/src/os/chrisOSKernel/../chrisOS/src/char/console/basic_display.c:118
    {
        if (terminal_column > 1)
 100023b:	a1 04 00 12 00       	mov    eax,ds:0x120004
 1000240:	83 f8 01             	cmp    eax,0x1
 1000243:	76 0a                	jbe    100024f <terminal_putchar+0x3a>
/home/yogi/src/os/chrisOSKernel/../chrisOS/src/char/console/basic_display.c:119
            terminal_column--;
 1000245:	83 e8 01             	sub    eax,0x1
 1000248:	a3 04 00 12 00       	mov    ds:0x120004,eax
 100024d:	eb 11                	jmp    1000260 <terminal_putchar+0x4b>
/home/yogi/src/os/chrisOSKernel/../chrisOS/src/char/console/basic_display.c:122
        else
        {
            terminal_row--;
 100024f:	83 2d 00 00 12 00 01 	sub    DWORD PTR ds:0x120000,0x1
/home/yogi/src/os/chrisOSKernel/../chrisOS/src/char/console/basic_display.c:123
            terminal_column=VGA_WIDTH;
 1000256:	c7 05 04 00 12 00 50 	mov    DWORD PTR ds:0x120004,0x50
 100025d:	00 00 00 
/home/yogi/src/os/chrisOSKernel/../chrisOS/src/char/console/basic_display.c:125
        }
        terminal_putentryat(' ', terminal_color, terminal_column, terminal_row);
 1000260:	ff 35 00 00 12 00    	push   DWORD PTR ds:0x120000
 1000266:	ff 35 04 00 12 00    	push   DWORD PTR ds:0x120004
 100026c:	0f b6 05 08 00 12 00 	movzx  eax,BYTE PTR ds:0x120008
 1000273:	50                   	push   eax
 1000274:	6a 20                	push   0x20
 1000276:	e8 3b fe ff ff       	call   10000b6 <terminal_putentryat>
 100027b:	83 c4 10             	add    esp,0x10
 100027e:	e9 8c 00 00 00       	jmp    100030f <terminal_putchar+0xfa>
/home/yogi/src/os/chrisOSKernel/../chrisOS/src/char/console/basic_display.c:128
        
    }
    else if (c=='\t')
 1000283:	3c 09                	cmp    al,0x9
 1000285:	75 3b                	jne    10002c2 <terminal_putchar+0xad>
/home/yogi/src/os/chrisOSKernel/../chrisOS/src/char/console/basic_display.c:130
    {
        uint32_t goTo= terminal_column + (SCREEN_SPACES_PER_TAB - (terminal_column % SCREEN_SPACES_PER_TAB));
 1000287:	8b 0d 04 00 12 00    	mov    ecx,DWORD PTR ds:0x120004
 100028d:	ba cd cc cc cc       	mov    edx,0xcccccccd
 1000292:	89 c8                	mov    eax,ecx
 1000294:	f7 e2                	mul    edx
 1000296:	c1 ea 02             	shr    edx,0x2
 1000299:	8d 5c 92 05          	lea    ebx,[edx+edx*4+0x5]
/home/yogi/src/os/chrisOSKernel/../chrisOS/src/char/console/basic_display.c:132
        if (goTo==terminal_column)
            goTo=SCREEN_SPACES_PER_TAB;
 100029d:	39 d9                	cmp    ecx,ebx
 100029f:	b8 05 00 00 00       	mov    eax,0x5
 10002a4:	0f 44 d8             	cmove  ebx,eax
/home/yogi/src/os/chrisOSKernel/../chrisOS/src/char/console/basic_display.c:134
        
        while (terminal_column < goTo)
 10002a7:	39 d9                	cmp    ecx,ebx
 10002a9:	73 64                	jae    100030f <terminal_putchar+0xfa>
/home/yogi/src/os/chrisOSKernel/../chrisOS/src/char/console/basic_display.c:135
            terminal_putchar(' ');;
 10002ab:	83 ec 0c             	sub    esp,0xc
 10002ae:	6a 20                	push   0x20
 10002b0:	e8 60 ff ff ff       	call   1000215 <terminal_putchar>
/home/yogi/src/os/chrisOSKernel/../chrisOS/src/char/console/basic_display.c:134
    {
        uint32_t goTo= terminal_column + (SCREEN_SPACES_PER_TAB - (terminal_column % SCREEN_SPACES_PER_TAB));
        if (goTo==terminal_column)
            goTo=SCREEN_SPACES_PER_TAB;
        
        while (terminal_column < goTo)
 10002b5:	83 c4 10             	add    esp,0x10
 10002b8:	3b 1d 04 00 12 00    	cmp    ebx,DWORD PTR ds:0x120004
 10002be:	77 eb                	ja     10002ab <terminal_putchar+0x96>
 10002c0:	eb 4d                	jmp    100030f <terminal_putchar+0xfa>
/home/yogi/src/os/chrisOSKernel/../chrisOS/src/char/console/basic_display.c:141
    
    //6 - cnt=0 to (5-1) 4
    //8 - cnt= to (5-3) 2
    }
    //We're going to ignore carriage return since most systems don't use it.  Unfortunately the FAT library we are using does
    else if (c=='\r')
 10002c2:	3c 0d                	cmp    al,0xd
 10002c4:	0f 84 86 00 00 00    	je     1000350 <terminal_putchar+0x13b>
/home/yogi/src/os/chrisOSKernel/../chrisOS/src/char/console/basic_display.c:146
        return;

        else
        {
                terminal_putentryat(c, terminal_color, terminal_column, terminal_row);
 10002ca:	ff 35 00 00 12 00    	push   DWORD PTR ds:0x120000
 10002d0:	ff 35 04 00 12 00    	push   DWORD PTR ds:0x120004
 10002d6:	0f b6 15 08 00 12 00 	movzx  edx,BYTE PTR ds:0x120008
 10002dd:	52                   	push   edx
 10002de:	0f be c0             	movsx  eax,al
 10002e1:	50                   	push   eax
 10002e2:	e8 cf fd ff ff       	call   10000b6 <terminal_putentryat>
/home/yogi/src/os/chrisOSKernel/../chrisOS/src/char/console/basic_display.c:147
                if (++terminal_column == VGA_WIDTH) {
 10002e7:	a1 04 00 12 00       	mov    eax,ds:0x120004
 10002ec:	83 c0 01             	add    eax,0x1
 10002ef:	83 c4 10             	add    esp,0x10
 10002f2:	83 f8 50             	cmp    eax,0x50
 10002f5:	74 07                	je     10002fe <terminal_putchar+0xe9>
 10002f7:	a3 04 00 12 00       	mov    ds:0x120004,eax
 10002fc:	eb 11                	jmp    100030f <terminal_putchar+0xfa>
/home/yogi/src/os/chrisOSKernel/../chrisOS/src/char/console/basic_display.c:148
                        terminal_column = 0;
 10002fe:	c7 05 04 00 12 00 00 	mov    DWORD PTR ds:0x120004,0x0
 1000305:	00 00 00 
/home/yogi/src/os/chrisOSKernel/../chrisOS/src/char/console/basic_display.c:149
                        terminal_row++;
 1000308:	83 05 00 00 12 00 01 	add    DWORD PTR ds:0x120000,0x1
/home/yogi/src/os/chrisOSKernel/../chrisOS/src/char/console/basic_display.c:152
                }
        }
    if (terminal_row == kTerminalHeight)
 100030f:	0f b6 05 27 00 12 00 	movzx  eax,BYTE PTR ds:0x120027
 1000316:	3b 05 00 00 12 00    	cmp    eax,DWORD PTR ds:0x120000
 100031c:	75 2d                	jne    100034b <terminal_putchar+0x136>
/home/yogi/src/os/chrisOSKernel/../chrisOS/src/char/console/basic_display.c:154 (discriminator 1)
    {
        for (unsigned row=0;row<kTerminalHeight;row++)
 100031e:	85 c0                	test   eax,eax
 1000320:	74 22                	je     1000344 <terminal_putchar+0x12f>
/home/yogi/src/os/chrisOSKernel/../chrisOS/src/char/console/basic_display.c:154
 1000322:	b8 00 00 00 00       	mov    eax,0x0
/home/yogi/src/os/chrisOSKernel/../chrisOS/src/char/console/basic_display.c:155 (discriminator 3)
            terminal_copyline(row, row+1);
 1000327:	8d 58 01             	lea    ebx,[eax+0x1]
 100032a:	83 ec 08             	sub    esp,0x8
 100032d:	53                   	push   ebx
 100032e:	50                   	push   eax
 100032f:	e8 b0 fe ff ff       	call   10001e4 <terminal_copyline>
/home/yogi/src/os/chrisOSKernel/../chrisOS/src/char/console/basic_display.c:154 (discriminator 3)
                        terminal_row++;
                }
        }
    if (terminal_row == kTerminalHeight)
    {
        for (unsigned row=0;row<kTerminalHeight;row++)
 1000334:	89 d8                	mov    eax,ebx
 1000336:	0f b6 15 27 00 12 00 	movzx  edx,BYTE PTR ds:0x120027
 100033d:	83 c4 10             	add    esp,0x10
 1000340:	39 da                	cmp    edx,ebx
 1000342:	77 e3                	ja     1000327 <terminal_putchar+0x112>
/home/yogi/src/os/chrisOSKernel/../chrisOS/src/char/console/basic_display.c:157
            terminal_copyline(row, row+1);
        //memcpy((void *)TEXTMODE_MEMORY_START, (void *)TEXTMODE_MEMORY_START+160, 160*25);
        terminal_row--;
 1000344:	83 2d 00 00 12 00 01 	sub    DWORD PTR ds:0x120000,0x1
/home/yogi/src/os/chrisOSKernel/../chrisOS/src/char/console/basic_display.c:159
    }
    update_cursor();
 100034b:	e8 00 fd ff ff       	call   1000050 <update_cursor>
/home/yogi/src/os/chrisOSKernel/../chrisOS/src/char/console/basic_display.c:160
}
 1000350:	83 c4 08             	add    esp,0x8
 1000353:	5b                   	pop    ebx
 1000354:	c3                   	ret    

01000355 <cursorUpdateBiosCursor>:
cursorUpdateBiosCursor():
/home/yogi/src/os/chrisOSKernel/../chrisOS/src/char/console/basic_display.c:165

void cursorUpdateBiosCursor()
{
    uint8_t* bda=(uint8_t*)0x450;
    *bda=(uint8_t)(terminal_column & 0xFF);
 1000355:	a1 04 00 12 00       	mov    eax,ds:0x120004
 100035a:	a2 50 04 00 00       	mov    ds:0x450,al
/home/yogi/src/os/chrisOSKernel/../chrisOS/src/char/console/basic_display.c:167
    bda++;
    *bda=(uint8_t)((terminal_row+3) & 0xFF);
 100035f:	0f b6 05 00 00 12 00 	movzx  eax,BYTE PTR ds:0x120000
 1000366:	83 c0 03             	add    eax,0x3
 1000369:	a2 51 04 00 00       	mov    ds:0x451,al
 100036e:	c3                   	ret    

0100036f <cursorMoveTo>:
cursorMoveTo():
/home/yogi/src/os/chrisOSKernel/../chrisOS/src/char/console/basic_display.c:172
}

void cursorMoveTo(uint8_t x, uint8_t y)
{
    terminal_row = y;
 100036f:	0f b6 44 24 08       	movzx  eax,BYTE PTR [esp+0x8]
 1000374:	a3 00 00 12 00       	mov    ds:0x120000,eax
/home/yogi/src/os/chrisOSKernel/../chrisOS/src/char/console/basic_display.c:173
    terminal_column = x;
 1000379:	0f b6 44 24 04       	movzx  eax,BYTE PTR [esp+0x4]
 100037e:	a3 04 00 12 00       	mov    ds:0x120004,eax
/home/yogi/src/os/chrisOSKernel/../chrisOS/src/char/console/basic_display.c:174
    update_cursor();
 1000383:	e8 c8 fc ff ff       	call   1000050 <update_cursor>
 1000388:	f3 c3                	repz ret 

0100038a <cursorMoveToX>:
cursorMoveToX():
/home/yogi/src/os/chrisOSKernel/../chrisOS/src/char/console/basic_display.c:179
}

void cursorMoveToX(uint8_t x)
{
    terminal_column = x;
 100038a:	0f b6 44 24 04       	movzx  eax,BYTE PTR [esp+0x4]
 100038f:	a3 04 00 12 00       	mov    ds:0x120004,eax
 1000394:	c3                   	ret    

01000395 <cursorMoveToY>:
cursorMoveToY():
/home/yogi/src/os/chrisOSKernel/../chrisOS/src/char/console/basic_display.c:184
}

void cursorMoveToY(uint8_t y)
{
    terminal_row = y;
 1000395:	0f b6 44 24 04       	movzx  eax,BYTE PTR [esp+0x4]
 100039a:	a3 00 00 12 00       	mov    ds:0x120000,eax
 100039f:	c3                   	ret    

010003a0 <cursorGetPosX>:
cursorGetPosX():
/home/yogi/src/os/chrisOSKernel/../chrisOS/src/char/console/basic_display.c:190
}

uint8_t cursorGetPosX()
{
    return terminal_column;
}
 10003a0:	0f b6 05 04 00 12 00 	movzx  eax,BYTE PTR ds:0x120004
 10003a7:	c3                   	ret    

010003a8 <cursorGetMaxX>:
cursorGetMaxX():
/home/yogi/src/os/chrisOSKernel/../chrisOS/src/char/console/basic_display.c:194
int cursorGetMaxX()
{
    return VGA_WIDTH;
}
 10003a8:	b8 50 00 00 00       	mov    eax,0x50
 10003ad:	c3                   	ret    

010003ae <cursorGetMaxY>:
cursorGetMaxY():
/home/yogi/src/os/chrisOSKernel/../chrisOS/src/char/console/basic_display.c:198

int cursorGetMaxY()
{
    return kTerminalHeight;
 10003ae:	0f b6 05 27 00 12 00 	movzx  eax,BYTE PTR ds:0x120027
/home/yogi/src/os/chrisOSKernel/../chrisOS/src/char/console/basic_display.c:199
}
 10003b5:	c3                   	ret    

010003b6 <displayGetMaxXY>:
displayGetMaxXY():
/home/yogi/src/os/chrisOSKernel/../chrisOS/src/char/console/basic_display.c:203

void displayGetMaxXY(int* maxX, int* maxY)
{
    *maxX=VGA_WIDTH;
 10003b6:	8b 44 24 04          	mov    eax,DWORD PTR [esp+0x4]
 10003ba:	c7 00 50 00 00 00    	mov    DWORD PTR [eax],0x50
/home/yogi/src/os/chrisOSKernel/../chrisOS/src/char/console/basic_display.c:204
    *maxY=kTerminalHeight;
 10003c0:	0f b6 15 27 00 12 00 	movzx  edx,BYTE PTR ds:0x120027
 10003c7:	8b 44 24 08          	mov    eax,DWORD PTR [esp+0x8]
 10003cb:	89 10                	mov    DWORD PTR [eax],edx
 10003cd:	c3                   	ret    

010003ce <cursorGetPosY>:
cursorGetPosY():
/home/yogi/src/os/chrisOSKernel/../chrisOS/src/char/console/basic_display.c:211
}

uint8_t cursorGetPosY()
{
    return terminal_row;
}
 10003ce:	0f b6 05 00 00 12 00 	movzx  eax,BYTE PTR ds:0x120000
 10003d5:	c3                   	ret    

010003d6 <kTermPrint>:
kTermPrint():
/home/yogi/src/os/chrisOSKernel/../chrisOS/src/char/console/basic_display.c:213

void kTermPrint(const char* data) {
 10003d6:	56                   	push   esi
 10003d7:	53                   	push   ebx
 10003d8:	83 ec 10             	sub    esp,0x10
 10003db:	8b 74 24 1c          	mov    esi,DWORD PTR [esp+0x1c]
/home/yogi/src/os/chrisOSKernel/../chrisOS/src/char/console/basic_display.c:214
        size_t datalen = strlen(data);
 10003df:	56                   	push   esi
 10003e0:	e8 43 22 00 00       	call   1002628 <strlen>
/home/yogi/src/os/chrisOSKernel/../chrisOS/src/char/console/basic_display.c:215
        for (size_t i = 0; i < datalen; i++)
 10003e5:	83 c4 10             	add    esp,0x10
 10003e8:	85 c0                	test   eax,eax
 10003ea:	74 1a                	je     1000406 <kTermPrint+0x30>
 10003ec:	89 f3                	mov    ebx,esi
 10003ee:	01 c6                	add    esi,eax
/home/yogi/src/os/chrisOSKernel/../chrisOS/src/char/console/basic_display.c:216 (discriminator 3)
                terminal_putchar(data[i]);
 10003f0:	83 ec 0c             	sub    esp,0xc
 10003f3:	0f be 13             	movsx  edx,BYTE PTR [ebx]
 10003f6:	52                   	push   edx
 10003f7:	e8 19 fe ff ff       	call   1000215 <terminal_putchar>
 10003fc:	83 c3 01             	add    ebx,0x1
/home/yogi/src/os/chrisOSKernel/../chrisOS/src/char/console/basic_display.c:215 (discriminator 3)
    return terminal_row;
}

void kTermPrint(const char* data) {
        size_t datalen = strlen(data);
        for (size_t i = 0; i < datalen; i++)
 10003ff:	83 c4 10             	add    esp,0x10
 1000402:	39 f3                	cmp    ebx,esi
 1000404:	75 ea                	jne    10003f0 <kTermPrint+0x1a>
/home/yogi/src/os/chrisOSKernel/../chrisOS/src/char/console/basic_display.c:217
                terminal_putchar(data[i]);
}
 1000406:	83 c4 04             	add    esp,0x4
 1000409:	5b                   	pop    ebx
 100040a:	5e                   	pop    esi
 100040b:	c3                   	ret    

0100040c <kTermInit>:
kTermInit():
/home/yogi/src/os/chrisOSKernel/../chrisOS/src/char/console/basic_display.c:221


void kTermInit() {
    kTerminalHeight=SYS_VGA_HEIGHT;
 100040c:	c6 05 27 00 12 00 32 	mov    BYTE PTR ds:0x120027,0x32
/home/yogi/src/os/chrisOSKernel/../chrisOS/src/char/console/basic_display.c:222
    terminal_row = 0;
 1000413:	c7 05 00 00 12 00 00 	mov    DWORD PTR ds:0x120000,0x0
 100041a:	00 00 00 
/home/yogi/src/os/chrisOSKernel/../chrisOS/src/char/console/basic_display.c:223
    terminal_column = 0;
 100041d:	c7 05 04 00 12 00 00 	mov    DWORD PTR ds:0x120004,0x0
 1000424:	00 00 00 
/home/yogi/src/os/chrisOSKernel/../chrisOS/src/char/console/basic_display.c:224
    terminal_color = make_color(COLOR_LIGHT_BROWN, COLOR_BLACK);
 1000427:	c6 05 08 00 12 00 0e 	mov    BYTE PTR ds:0x120008,0xe
/home/yogi/src/os/chrisOSKernel/../chrisOS/src/char/console/basic_display.c:225
    terminal_buffer = (uint16_t*) TEXTMODE_MEMORY_START;
 100042e:	c7 05 0c 00 12 00 00 	mov    DWORD PTR ds:0x12000c,0xb8000
 1000435:	80 0b 00 
 1000438:	c3                   	ret    

01000439 <puts>:
puts():
/home/yogi/src/os/chrisOSKernel/../chrisOS/src/char/console/basic_display.c:230
    //terminal_clear();
}

void puts(char* in)
{
 1000439:	53                   	push   ebx
 100043a:	83 ec 08             	sub    esp,0x8
 100043d:	8b 5c 24 10          	mov    ebx,DWORD PTR [esp+0x10]
/home/yogi/src/os/chrisOSKernel/../chrisOS/src/char/console/basic_display.c:231
    while (*in>'\0')
 1000441:	0f b6 03             	movzx  eax,BYTE PTR [ebx]
 1000444:	84 c0                	test   al,al
 1000446:	7e 19                	jle    1000461 <puts+0x28>
/home/yogi/src/os/chrisOSKernel/../chrisOS/src/char/console/basic_display.c:233
    {
        terminal_putchar(*in++);
 1000448:	83 c3 01             	add    ebx,0x1
 100044b:	83 ec 0c             	sub    esp,0xc
 100044e:	0f be c0             	movsx  eax,al
 1000451:	50                   	push   eax
 1000452:	e8 be fd ff ff       	call   1000215 <terminal_putchar>
/home/yogi/src/os/chrisOSKernel/../chrisOS/src/char/console/basic_display.c:231
    //terminal_clear();
}

void puts(char* in)
{
    while (*in>'\0')
 1000457:	0f b6 03             	movzx  eax,BYTE PTR [ebx]
 100045a:	83 c4 10             	add    esp,0x10
 100045d:	84 c0                	test   al,al
 100045f:	7f e7                	jg     1000448 <puts+0xf>
/home/yogi/src/os/chrisOSKernel/../chrisOS/src/char/console/basic_display.c:235
    {
        terminal_putchar(*in++);
    }
}
 1000461:	83 c4 08             	add    esp,0x8
 1000464:	5b                   	pop    ebx
 1000465:	c3                   	ret    

01000466 <putc>:
putc():
/home/yogi/src/os/chrisOSKernel/../chrisOS/src/char/console/basic_display.c:238

void putc(char c)
{
 1000466:	83 ec 18             	sub    esp,0x18
/home/yogi/src/os/chrisOSKernel/../chrisOS/src/char/console/basic_display.c:239
    terminal_putchar(c);
 1000469:	0f be 44 24 1c       	movsx  eax,BYTE PTR [esp+0x1c]
 100046e:	50                   	push   eax
 100046f:	e8 a1 fd ff ff       	call   1000215 <terminal_putchar>
/home/yogi/src/os/chrisOSKernel/../chrisOS/src/char/console/basic_display.c:240
 1000474:	83 c4 1c             	add    esp,0x1c
 1000477:	c3                   	ret    

01000478 <keyboardGetKeyFromBuffer>:
keyboardGetKeyFromBuffer():
/home/yogi/src/os/chrisOSKernel/../chrisOS/src/char/keyboard.c:20
//Base moves when a key is taken from the buffer
uint8_t keyboardGetKeyFromBuffer()
{
    char lTemp=0;
    //printd(DEBUG_KEYBOARD,"\nkKeyboardBuffer=0x%08X, kKeyboardBufferBase=0x%08X, &kKeyboardBufferBase=0x%08X\n",kKeyboardBuffer, kKeyboardBufferBase,&kKeyboardBufferBase);
    if (kKeyboardBufferBase<=kKeyboardBuffer)
 1000478:	a1 24 04 12 00       	mov    eax,ds:0x120424
 100047d:	8b 15 e0 03 12 00    	mov    edx,DWORD PTR ds:0x1203e0
 1000483:	39 d0                	cmp    eax,edx
 1000485:	77 14                	ja     100049b <keyboardGetKeyFromBuffer+0x23>
/home/yogi/src/os/chrisOSKernel/../chrisOS/src/char/keyboard.c:22
    {
        __asm__("cli\n");
 1000487:	fa                   	cli    
/home/yogi/src/os/chrisOSKernel/../chrisOS/src/char/keyboard.c:23
        lTemp=*kKeyboardBufferBase++;
 1000488:	8d 48 01             	lea    ecx,[eax+0x1]
 100048b:	89 0d 24 04 12 00    	mov    DWORD PTR ds:0x120424,ecx
 1000491:	0f b6 00             	movzx  eax,BYTE PTR [eax]
/home/yogi/src/os/chrisOSKernel/../chrisOS/src/char/keyboard.c:24
        __asm__("sti\n");
 1000494:	fb                   	sti    
/home/yogi/src/os/chrisOSKernel/../chrisOS/src/char/keyboard.c:26
    }
    if (kKeyboardBufferBase>kKeyboardBuffer)
 1000495:	39 ca                	cmp    edx,ecx
 1000497:	73 1d                	jae    10004b6 <keyboardGetKeyFromBuffer+0x3e>
 1000499:	eb 05                	jmp    10004a0 <keyboardGetKeyFromBuffer+0x28>
/home/yogi/src/os/chrisOSKernel/../chrisOS/src/char/keyboard.c:18
//Get a key from the keyboard buffer
//Curr moves when a key is put into the buffer
//Base moves when a key is taken from the buffer
uint8_t keyboardGetKeyFromBuffer()
{
    char lTemp=0;
 100049b:	b8 00 00 00 00       	mov    eax,0x0
/home/yogi/src/os/chrisOSKernel/../chrisOS/src/char/keyboard.c:28
        lTemp=*kKeyboardBufferBase++;
        __asm__("sti\n");
    }
    if (kKeyboardBufferBase>kKeyboardBuffer)
    {
        __asm__("cli\n");
 10004a0:	fa                   	cli    
/home/yogi/src/os/chrisOSKernel/../chrisOS/src/char/keyboard.c:29
        kKeyboardBufferBase=(char*)KEYBOARD_BUFFER_ADDRESS;
 10004a1:	c7 05 24 04 12 00 b0 	mov    DWORD PTR ds:0x120424,0x1524b0
 10004a8:	24 15 00 
/home/yogi/src/os/chrisOSKernel/../chrisOS/src/char/keyboard.c:30
        kKeyboardBuffer=(char*)KEYBOARD_BUFFER_ADDRESS-1;
 10004ab:	c7 05 e0 03 12 00 af 	mov    DWORD PTR ds:0x1203e0,0x1524af
 10004b2:	24 15 00 
/home/yogi/src/os/chrisOSKernel/../chrisOS/src/char/keyboard.c:31
        __asm__("sti\n");
 10004b5:	fb                   	sti    
/home/yogi/src/os/chrisOSKernel/../chrisOS/src/char/keyboard.c:34
    }
    return lTemp;
}
 10004b6:	f3 c3                	repz ret 

010004b8 <waitForKeyboardKey>:
waitForKeyboardKey():
/home/yogi/src/os/chrisOSKernel/../chrisOS/src/char/keyboard.c:37

char waitForKeyboardKey()
{
 10004b8:	53                   	push   ebx
 10004b9:	83 ec 0c             	sub    esp,0xc
/home/yogi/src/os/chrisOSKernel/../chrisOS/src/char/keyboard.c:38
    printd(DEBUG_KEYBOARD,"gKbd-W, %04X\t", kKeyboardBuffer);
 10004bc:	ff 35 e0 03 12 00    	push   DWORD PTR ds:0x1203e0
 10004c2:	68 58 76 00 01       	push   0x1007658
 10004c7:	6a 10                	push   0x10
 10004c9:	e8 c5 20 00 00       	call   1002593 <printd>
/home/yogi/src/os/chrisOSKernel/../chrisOS/src/char/keyboard.c:40
    char lTemp=0;
    printd(DEBUG_KEYBOARD,"kKeyboardBuffer=%04X\n", kKeyboardBuffer);
 10004ce:	83 c4 0c             	add    esp,0xc
 10004d1:	ff 35 e0 03 12 00    	push   DWORD PTR ds:0x1203e0
 10004d7:	68 66 76 00 01       	push   0x1007666
 10004dc:	6a 10                	push   0x10
 10004de:	e8 b0 20 00 00       	call   1002593 <printd>
/home/yogi/src/os/chrisOSKernel/../chrisOS/src/char/keyboard.c:42

    while (kKeyboardBuffer==(char*)KEYBOARD_BUFFER_ADDRESS)
 10004e3:	83 c4 10             	add    esp,0x10
 10004e6:	81 3d e0 03 12 00 b0 	cmp    DWORD PTR ds:0x1203e0,0x1524b0
 10004ed:	24 15 00 
 10004f0:	75 30                	jne    1000522 <waitForKeyboardKey+0x6a>
/home/yogi/src/os/chrisOSKernel/../chrisOS/src/char/keyboard.c:44
    {
        printd(DEBUG_KEYBOARD,"kKeyboardBuffer=%04X\n", kKeyboardBuffer);
 10004f2:	83 ec 04             	sub    esp,0x4
 10004f5:	68 b0 24 15 00       	push   0x1524b0
 10004fa:	68 66 76 00 01       	push   0x1007666
 10004ff:	6a 10                	push   0x10
 1000501:	e8 8d 20 00 00       	call   1002593 <printd>
/home/yogi/src/os/chrisOSKernel/../chrisOS/src/char/keyboard.c:45
        __asm__("sti\n");
 1000506:	fb                   	sti    
/home/yogi/src/os/chrisOSKernel/../chrisOS/src/char/keyboard.c:46
        waitTicks(1);
 1000507:	c7 04 24 01 00 00 00 	mov    DWORD PTR [esp],0x1
 100050e:	e8 fe 29 00 00       	call   1002f11 <waitTicks>
/home/yogi/src/os/chrisOSKernel/../chrisOS/src/char/keyboard.c:42
{
    printd(DEBUG_KEYBOARD,"gKbd-W, %04X\t", kKeyboardBuffer);
    char lTemp=0;
    printd(DEBUG_KEYBOARD,"kKeyboardBuffer=%04X\n", kKeyboardBuffer);

    while (kKeyboardBuffer==(char*)KEYBOARD_BUFFER_ADDRESS)
 1000513:	83 c4 10             	add    esp,0x10
 1000516:	81 3d e0 03 12 00 b0 	cmp    DWORD PTR ds:0x1203e0,0x1524b0
 100051d:	24 15 00 
 1000520:	74 d0                	je     10004f2 <waitForKeyboardKey+0x3a>
/home/yogi/src/os/chrisOSKernel/../chrisOS/src/char/keyboard.c:48
    {
        printd(DEBUG_KEYBOARD,"kKeyboardBuffer=%04X\n", kKeyboardBuffer);
        __asm__("sti\n");
        waitTicks(1);
    }
    lTemp=keyboardGetKeyFromBuffer();
 1000522:	e8 51 ff ff ff       	call   1000478 <keyboardGetKeyFromBuffer>
 1000527:	89 c3                	mov    ebx,eax
/home/yogi/src/os/chrisOSKernel/../chrisOS/src/char/keyboard.c:49
    printd(DEBUG_KEYBOARD,"got a key %u!\n", lTemp);
 1000529:	83 ec 04             	sub    esp,0x4
 100052c:	0f be c0             	movsx  eax,al
 100052f:	50                   	push   eax
 1000530:	68 7c 76 00 01       	push   0x100767c
 1000535:	6a 10                	push   0x10
 1000537:	e8 57 20 00 00       	call   1002593 <printd>
/home/yogi/src/os/chrisOSKernel/../chrisOS/src/char/keyboard.c:51
    return lTemp;
}
 100053c:	89 d8                	mov    eax,ebx
 100053e:	83 c4 18             	add    esp,0x18
 1000541:	5b                   	pop    ebx
 1000542:	c3                   	ret    

01000543 <getKeyboardKey>:
getKeyboardKey():
/home/yogi/src/os/chrisOSKernel/../chrisOS/src/char/keyboard.c:55

char getKeyboardKey()
{
        return keyboardGetKeyFromBuffer();
 1000543:	e8 30 ff ff ff       	call   1000478 <keyboardGetKeyFromBuffer>
/home/yogi/src/os/chrisOSKernel/../chrisOS/src/char/keyboard.c:56
}
 1000548:	f3 c3                	repz ret 

0100054a <gets>:
gets():
/home/yogi/src/os/chrisOSKernel/../chrisOS/src/char/keyboard.c:58
void gets(char* buffer, int len)
{
 100054a:	57                   	push   edi
 100054b:	56                   	push   esi
 100054c:	53                   	push   ebx
 100054d:	83 ec 14             	sub    esp,0x14
 1000550:	8b 7c 24 24          	mov    edi,DWORD PTR [esp+0x24]
 1000554:	8b 74 24 28          	mov    esi,DWORD PTR [esp+0x28]
/home/yogi/src/os/chrisOSKernel/../chrisOS/src/char/keyboard.c:59
    volatile char inchar=0;
 1000558:	c6 44 24 13 00       	mov    BYTE PTR [esp+0x13],0x0
/home/yogi/src/os/chrisOSKernel/../chrisOS/src/char/keyboard.c:61
    int cnt=0;
    memset(buffer,0,len);
 100055d:	56                   	push   esi
 100055e:	6a 00                	push   0x0
 1000560:	57                   	push   edi
 1000561:	e8 81 13 00 00       	call   10018e7 <memset>
 1000566:	83 c4 10             	add    esp,0x10
/home/yogi/src/os/chrisOSKernel/../chrisOS/src/char/keyboard.c:60
        return keyboardGetKeyFromBuffer();
}
void gets(char* buffer, int len)
{
    volatile char inchar=0;
    int cnt=0;
 1000569:	bb 00 00 00 00       	mov    ebx,0x0
/home/yogi/src/os/chrisOSKernel/../chrisOS/src/char/keyboard.c:78
            if (inchar==0x0a)
            {
                printk("%c",inchar);
                return;
            }
            if (cnt<len-2)
 100056e:	83 ee 02             	sub    esi,0x2
/home/yogi/src/os/chrisOSKernel/../chrisOS/src/char/keyboard.c:64
    volatile char inchar=0;
    int cnt=0;
    memset(buffer,0,len);
    while (1==1)
    {
        inchar=getKeyboardKey();
 1000571:	e8 cd ff ff ff       	call   1000543 <getKeyboardKey>
 1000576:	88 44 24 0f          	mov    BYTE PTR [esp+0xf],al
/home/yogi/src/os/chrisOSKernel/../chrisOS/src/char/keyboard.c:65
        if (inchar=='\b' && cnt>0)
 100057a:	0f b6 44 24 0f       	movzx  eax,BYTE PTR [esp+0xf]
 100057f:	85 db                	test   ebx,ebx
 1000581:	7e 1d                	jle    10005a0 <gets+0x56>
 1000583:	3c 08                	cmp    al,0x8
 1000585:	75 19                	jne    10005a0 <gets+0x56>
/home/yogi/src/os/chrisOSKernel/../chrisOS/src/char/keyboard.c:67
        {
            buffer[cnt]=0;
 1000587:	c6 04 1f 00          	mov    BYTE PTR [edi+ebx*1],0x0
/home/yogi/src/os/chrisOSKernel/../chrisOS/src/char/keyboard.c:68
            cnt--;
 100058b:	83 eb 01             	sub    ebx,0x1
/home/yogi/src/os/chrisOSKernel/../chrisOS/src/char/keyboard.c:69
            puts("\b");
 100058e:	83 ec 0c             	sub    esp,0xc
 1000591:	68 8b 76 00 01       	push   0x100768b
 1000596:	e8 9e fe ff ff       	call   1000439 <puts>
/home/yogi/src/os/chrisOSKernel/../chrisOS/src/char/keyboard.c:66
    memset(buffer,0,len);
    while (1==1)
    {
        inchar=getKeyboardKey();
        if (inchar=='\b' && cnt>0)
        {
 100059b:	83 c4 10             	add    esp,0x10
 100059e:	eb d1                	jmp    1000571 <gets+0x27>
/home/yogi/src/os/chrisOSKernel/../chrisOS/src/char/keyboard.c:71
            buffer[cnt]=0;
            cnt--;
            puts("\b");
        }
        else if (inchar>0)
 10005a0:	0f b6 44 24 0f       	movzx  eax,BYTE PTR [esp+0xf]
 10005a5:	84 c0                	test   al,al
 10005a7:	7e c8                	jle    1000571 <gets+0x27>
/home/yogi/src/os/chrisOSKernel/../chrisOS/src/char/keyboard.c:73
        {
            if (inchar==0x0a)
 10005a9:	0f b6 44 24 0f       	movzx  eax,BYTE PTR [esp+0xf]
 10005ae:	3c 0a                	cmp    al,0xa
 10005b0:	75 1b                	jne    10005cd <gets+0x83>
/home/yogi/src/os/chrisOSKernel/../chrisOS/src/char/keyboard.c:75
            {
                printk("%c",inchar);
 10005b2:	0f b6 44 24 0f       	movzx  eax,BYTE PTR [esp+0xf]
 10005b7:	83 ec 08             	sub    esp,0x8
 10005ba:	0f be c0             	movsx  eax,al
 10005bd:	50                   	push   eax
 10005be:	68 8d 76 00 01       	push   0x100768d
 10005c3:	e8 b3 1f 00 00       	call   100257b <printk>
/home/yogi/src/os/chrisOSKernel/../chrisOS/src/char/keyboard.c:76
                return;
 10005c8:	83 c4 10             	add    esp,0x10
 10005cb:	eb 2d                	jmp    10005fa <gets+0xb0>
/home/yogi/src/os/chrisOSKernel/../chrisOS/src/char/keyboard.c:78
            }
            if (cnt<len-2)
 10005cd:	39 f3                	cmp    ebx,esi
 10005cf:	7d a0                	jge    1000571 <gets+0x27>
/home/yogi/src/os/chrisOSKernel/../chrisOS/src/char/keyboard.c:80
            {
                printk("%c",inchar);
 10005d1:	0f b6 44 24 0f       	movzx  eax,BYTE PTR [esp+0xf]
 10005d6:	83 ec 08             	sub    esp,0x8
 10005d9:	0f be c0             	movsx  eax,al
 10005dc:	50                   	push   eax
 10005dd:	68 8d 76 00 01       	push   0x100768d
 10005e2:	e8 94 1f 00 00       	call   100257b <printk>
/home/yogi/src/os/chrisOSKernel/../chrisOS/src/char/keyboard.c:81
                buffer[cnt++]=inchar;
 10005e7:	0f b6 44 24 1f       	movzx  eax,BYTE PTR [esp+0x1f]
 10005ec:	88 04 1f             	mov    BYTE PTR [edi+ebx*1],al
 10005ef:	83 c4 10             	add    esp,0x10
 10005f2:	8d 5b 01             	lea    ebx,[ebx+0x1]
 10005f5:	e9 77 ff ff ff       	jmp    1000571 <gets+0x27>
/home/yogi/src/os/chrisOSKernel/../chrisOS/src/char/keyboard.c:85
            }
        }
    }
}
 10005fa:	83 c4 10             	add    esp,0x10
 10005fd:	5b                   	pop    ebx
 10005fe:	5e                   	pop    esi
 10005ff:	5f                   	pop    edi
 1000600:	c3                   	ret    

01000601 <getc>:
getc():
/home/yogi/src/os/chrisOSKernel/../chrisOS/src/char/keyboard.c:89

char getc()
{
   int inchar=getKeyboardKey();
 1000601:	e8 3d ff ff ff       	call   1000543 <getKeyboardKey>
 1000606:	0f be c0             	movsx  eax,al
/home/yogi/src/os/chrisOSKernel/../chrisOS/src/char/keyboard.c:91
   
   while (inchar==0)
 1000609:	85 c0                	test   eax,eax
 100060b:	75 11                	jne    100061e <getc+0x1d>
/home/yogi/src/os/chrisOSKernel/../chrisOS/src/char/keyboard.c:93
   {
       inchar=getKeyboardKey();
 100060d:	e8 31 ff ff ff       	call   1000543 <getKeyboardKey>
/home/yogi/src/os/chrisOSKernel/../chrisOS/src/char/keyboard.c:94
        inchar=getKeyboardKey();
 1000612:	e8 2c ff ff ff       	call   1000543 <getKeyboardKey>
 1000617:	0f be c0             	movsx  eax,al
/home/yogi/src/os/chrisOSKernel/../chrisOS/src/char/keyboard.c:91

char getc()
{
   int inchar=getKeyboardKey();
   
   while (inchar==0)
 100061a:	85 c0                	test   eax,eax
 100061c:	74 ef                	je     100060d <getc+0xc>
/home/yogi/src/os/chrisOSKernel/../chrisOS/src/char/keyboard.c:97
   {
       inchar=getKeyboardKey();
        inchar=getKeyboardKey();
   }
   return inchar;
}
 100061e:	f3 c3                	repz ret 

01000620 <bitsSet>:
bitsSet():
/home/yogi/src/os/chrisOSKernel/../chrisOS/src/cpu/bits.c:5
#include <stdint.h>
#include <stdbool.h>

bool bitsSet(volatile uint32_t* array, uint32_t bit)
{
 1000620:	8b 54 24 04          	mov    edx,DWORD PTR [esp+0x4]
/home/yogi/src/os/chrisOSKernel/../chrisOS/src/cpu/bits.c:7
    int lRetVal=0;
    __asm__ volatile ("bts [%[array]],%[bit]\nmov eax,0\nsetc al\n" : [array] "+m" (*array), "=a" (lRetVal) : [bit] "r" (bit));
 1000624:	8b 44 24 08          	mov    eax,DWORD PTR [esp+0x8]
 1000628:	0f ab 02             	bts    DWORD PTR [edx],eax
 100062b:	b8 00 00 00 00       	mov    eax,0x0
 1000630:	0f 92 c0             	setb   al
/home/yogi/src/os/chrisOSKernel/../chrisOS/src/cpu/bits.c:8
    return lRetVal;
 1000633:	85 c0                	test   eax,eax
 1000635:	0f 95 c0             	setne  al
/home/yogi/src/os/chrisOSKernel/../chrisOS/src/cpu/bits.c:9
}
 1000638:	c3                   	ret    

01000639 <bitsReset>:
bitsReset():
/home/yogi/src/os/chrisOSKernel/../chrisOS/src/cpu/bits.c:11
bool bitsReset(volatile uint32_t* array, uint32_t bit)
{
 1000639:	8b 54 24 04          	mov    edx,DWORD PTR [esp+0x4]
/home/yogi/src/os/chrisOSKernel/../chrisOS/src/cpu/bits.c:13
    int lRetVal=0;
    __asm__ volatile ("btr [%[array]],%[bit]\nmov eax,0\nsetc al\n" : [array] "+m" (*array), "=a" (lRetVal) : [bit] "r" (bit));
 100063d:	8b 44 24 08          	mov    eax,DWORD PTR [esp+0x8]
 1000641:	0f b3 02             	btr    DWORD PTR [edx],eax
 1000644:	b8 00 00 00 00       	mov    eax,0x0
 1000649:	0f 92 c0             	setb   al
/home/yogi/src/os/chrisOSKernel/../chrisOS/src/cpu/bits.c:14
    return lRetVal;
 100064c:	85 c0                	test   eax,eax
 100064e:	0f 95 c0             	setne  al
/home/yogi/src/os/chrisOSKernel/../chrisOS/src/cpu/bits.c:15
}
 1000651:	c3                   	ret    

01000652 <bitsTest>:
bitsTest():
/home/yogi/src/os/chrisOSKernel/../chrisOS/src/cpu/bits.c:17
bool bitsTest(volatile uint32_t* array, uint32_t bit)
{
 1000652:	8b 54 24 04          	mov    edx,DWORD PTR [esp+0x4]
/home/yogi/src/os/chrisOSKernel/../chrisOS/src/cpu/bits.c:19
    int lRetVal=0;
    __asm__ volatile ("bt [%[array]],%[bit]\nmov eax,0\nsetc al\n" :[array] "+m" (*array), "=a" (lRetVal) : [bit] "r" (bit));
 1000656:	8b 44 24 08          	mov    eax,DWORD PTR [esp+0x8]
 100065a:	0f a3 02             	bt     DWORD PTR [edx],eax
 100065d:	b8 00 00 00 00       	mov    eax,0x0
 1000662:	0f 92 c0             	setb   al
/home/yogi/src/os/chrisOSKernel/../chrisOS/src/cpu/bits.c:20
    return lRetVal;
 1000665:	85 c0                	test   eax,eax
 1000667:	0f 95 c0             	setne  al
/home/yogi/src/os/chrisOSKernel/../chrisOS/src/cpu/bits.c:21
}
 100066a:	c3                   	ret    

0100066b <bitsScanF>:
bitsScanF():
/home/yogi/src/os/chrisOSKernel/../chrisOS/src/cpu/bits.c:24

int bitsScanF(volatile uint32_t* array)
{
 100066b:	53                   	push   ebx
/home/yogi/src/os/chrisOSKernel/../chrisOS/src/cpu/bits.c:27
    int lRetVal=0;
    bool lErr=false;
    __asm__ volatile ("bsf %[ret],[%[array]]\nsetz cl\n" : [ret] "=b" (lRetVal), [lErr] "=c" (lErr) : [array] "m" (*array));
 100066c:	8b 44 24 08          	mov    eax,DWORD PTR [esp+0x8]
 1000670:	0f bc 18             	bsf    ebx,DWORD PTR [eax]
 1000673:	0f 94 c1             	sete   cl
/home/yogi/src/os/chrisOSKernel/../chrisOS/src/cpu/bits.c:28
    if (lErr==false)
 1000676:	84 c9                	test   cl,cl
/home/yogi/src/os/chrisOSKernel/../chrisOS/src/cpu/bits.c:29
        return lRetVal;
 1000678:	b8 ff ff ff ff       	mov    eax,0xffffffff
 100067d:	0f 44 c3             	cmove  eax,ebx
/home/yogi/src/os/chrisOSKernel/../chrisOS/src/cpu/bits.c:32
    else
        return -1;
 1000680:	5b                   	pop    ebx
 1000681:	c3                   	ret    
 1000682:	66 90                	xchg   ax,ax

01000684 <ataWaitForDRQ>:
ataWaitForDRQ():
/home/yogi/src/os/chrisOSKernel/../chrisOS/src/init/ata_disk.c:22
float ticks=0;
struct ataDeviceInfo_t* atablockingReadDev;

//Returns non-zero value IF TIMEOUT
uint8_t __attribute__((noinline)) ataWaitForDRQ(struct ataDeviceInfo_t* devInfo, bool toBeSet, int forHowManyMS)
{
 1000684:	57                   	push   edi
 1000685:	56                   	push   esi
 1000686:	53                   	push   ebx
 1000687:	8b 7c 24 10          	mov    edi,DWORD PTR [esp+0x10]
 100068b:	0f b6 5c 24 14       	movzx  ebx,BYTE PTR [esp+0x14]
/home/yogi/src/os/chrisOSKernel/../chrisOS/src/init/ata_disk.c:23
    int ticks = forHowManyMS*kTicksPerMS;
 1000690:	8b 4c 24 18          	mov    ecx,DWORD PTR [esp+0x18]
 1000694:	0f af 0d 84 02 12 00 	imul   ecx,DWORD PTR ds:0x120284
/home/yogi/src/os/chrisOSKernel/../chrisOS/src/init/ata_disk.c:25
    uint8_t inValue=0;
    while (ticks > 0)
 100069b:	85 c9                	test   ecx,ecx
 100069d:	7e 26                	jle    10006c5 <ataWaitForDRQ+0x41>
/home/yogi/src/os/chrisOSKernel/../chrisOS/src/init/ata_disk.c:30
    {
        STI
        //waitTicks(1);
        __asm__("sti\nhlt\n");
        inValue=inb(devInfo->ioPort+ATA_PORT_STATUS);
 100069f:	0f b7 87 69 02 00 00 	movzx  eax,WORD PTR [edi+0x269]
 10006a6:	8d 50 07             	lea    edx,[eax+0x7]
/home/yogi/src/os/chrisOSKernel/../chrisOS/src/init/ata_disk.c:27
{
    int ticks = forHowManyMS*kTicksPerMS;
    uint8_t inValue=0;
    while (ticks > 0)
    {
        STI
 10006a9:	fb                   	sti    
/home/yogi/src/os/chrisOSKernel/../chrisOS/src/init/ata_disk.c:29
        //waitTicks(1);
        __asm__("sti\nhlt\n");
 10006aa:	fb                   	sti    
 10006ab:	f4                   	hlt    
inb():
/home/yogi/src/os/chrisOSKernel/include/io.h:39
}

static __inline unsigned char inb(unsigned short __port)
{
	unsigned char __val;
	__asm__ volatile ("inb %0, %1" : "=a" (__val) : "dN" (__port));
 10006ac:	ec                   	in     al,dx
 10006ad:	89 c6                	mov    esi,eax
ataWaitForDRQ():
/home/yogi/src/os/chrisOSKernel/../chrisOS/src/init/ata_disk.c:31
        inValue=inb(devInfo->ioPort+ATA_PORT_STATUS);
        if (toBeSet && (inValue & ATA_STATUS_DRQ) == ATA_STATUS_DRQ)
 10006af:	84 db                	test   bl,bl
 10006b1:	74 06                	je     10006b9 <ataWaitForDRQ+0x35>
/home/yogi/src/os/chrisOSKernel/../chrisOS/src/init/ata_disk.c:31 (discriminator 1)
 10006b3:	a8 08                	test   al,0x8
 10006b5:	74 07                	je     10006be <ataWaitForDRQ+0x3a>
 10006b7:	eb 31                	jmp    10006ea <ataWaitForDRQ+0x66>
/home/yogi/src/os/chrisOSKernel/../chrisOS/src/init/ata_disk.c:33 (discriminator 1)
                return 0;
        else if ((!toBeSet && (inValue & ATA_STATUS_DRQ) != ATA_STATUS_DRQ))
 10006b9:	83 e0 08             	and    eax,0x8
 10006bc:	74 31                	je     10006ef <ataWaitForDRQ+0x6b>
/home/yogi/src/os/chrisOSKernel/../chrisOS/src/init/ata_disk.c:25
//Returns non-zero value IF TIMEOUT
uint8_t __attribute__((noinline)) ataWaitForDRQ(struct ataDeviceInfo_t* devInfo, bool toBeSet, int forHowManyMS)
{
    int ticks = forHowManyMS*kTicksPerMS;
    uint8_t inValue=0;
    while (ticks > 0)
 10006be:	83 e9 01             	sub    ecx,0x1
 10006c1:	75 e6                	jne    10006a9 <ataWaitForDRQ+0x25>
 10006c3:	eb 05                	jmp    10006ca <ataWaitForDRQ+0x46>
/home/yogi/src/os/chrisOSKernel/../chrisOS/src/init/ata_disk.c:24

//Returns non-zero value IF TIMEOUT
uint8_t __attribute__((noinline)) ataWaitForDRQ(struct ataDeviceInfo_t* devInfo, bool toBeSet, int forHowManyMS)
{
    int ticks = forHowManyMS*kTicksPerMS;
    uint8_t inValue=0;
 10006c5:	be 00 00 00 00       	mov    esi,0x0
inb():
/home/yogi/src/os/chrisOSKernel/include/io.h:39
 10006ca:	8b 87 69 02 00 00    	mov    eax,DWORD PTR [edi+0x269]
 10006d0:	8d 50 01             	lea    edx,[eax+0x1]
 10006d3:	ec                   	in     al,dx
ataWaitForDRQ():
/home/yogi/src/os/chrisOSKernel/../chrisOS/src/init/ata_disk.c:37
                return 0;
        else if ((!toBeSet && (inValue & ATA_STATUS_DRQ) != ATA_STATUS_DRQ))
                return 0;
        ticks--;
    }
    hdError=inb(devInfo->ioPort+ATA_PORT_ERROR);
 10006d4:	0f b6 d0             	movzx  edx,al
 10006d7:	89 15 74 4a 01 01    	mov    DWORD PTR ds:0x1014a74,edx
/home/yogi/src/os/chrisOSKernel/../chrisOS/src/init/ata_disk.c:38
    if ((hdError & 0x4)==0x4)
 10006dd:	83 e0 04             	and    eax,0x4
 10006e0:	b8 00 00 00 00       	mov    eax,0x0
 10006e5:	0f 44 c6             	cmove  eax,esi
 10006e8:	eb 05                	jmp    10006ef <ataWaitForDRQ+0x6b>
/home/yogi/src/os/chrisOSKernel/../chrisOS/src/init/ata_disk.c:32
        STI
        //waitTicks(1);
        __asm__("sti\nhlt\n");
        inValue=inb(devInfo->ioPort+ATA_PORT_STATUS);
        if (toBeSet && (inValue & ATA_STATUS_DRQ) == ATA_STATUS_DRQ)
                return 0;
 10006ea:	b8 00 00 00 00       	mov    eax,0x0
/home/yogi/src/os/chrisOSKernel/../chrisOS/src/init/ata_disk.c:41
    }
    hdError=inb(devInfo->ioPort+ATA_PORT_ERROR);
    if ((hdError & 0x4)==0x4)
        return 0;
    return inValue;
}
 10006ef:	5b                   	pop    ebx
 10006f0:	5e                   	pop    esi
 10006f1:	5f                   	pop    edi
 10006f2:	c3                   	ret    

010006f3 <ataWaitForIdle>:
ataWaitForIdle():
/home/yogi/src/os/chrisOSKernel/../chrisOS/src/init/ata_disk.c:44

uint8_t ataWaitForIdle(struct ataDeviceInfo_t* devInfo)
{
 10006f3:	53                   	push   ebx
 10006f4:	83 ec 08             	sub    esp,0x8
/home/yogi/src/os/chrisOSKernel/../chrisOS/src/init/ata_disk.c:48
    ticks = 0;
    uint8_t lValue=0;
    //printk("aaWaitForIdle: ticks(%u@0x%08X)=ATA_STANDARD_WAIT_MS(%d)*kTicksPerMS((%d@0x%08X))\n", ticks, &ticks, (ATA_STANDARD_WAIT_MS), kTicksPerMS, &kTicksPerMS);
    lValue=inb(devInfo->ioPort+ATA_PORT_STATUS);
 10006f7:	8b 44 24 10          	mov    eax,DWORD PTR [esp+0x10]
 10006fb:	8b 98 69 02 00 00    	mov    ebx,DWORD PTR [eax+0x269]
 1000701:	8d 53 07             	lea    edx,[ebx+0x7]
inb():
/home/yogi/src/os/chrisOSKernel/include/io.h:39
 1000704:	ec                   	in     al,dx
 1000705:	89 c1                	mov    ecx,eax
ataWaitForIdle():
/home/yogi/src/os/chrisOSKernel/../chrisOS/src/init/ata_disk.c:51
    if ((lValue & ATA_STATUS_DRQ) == ATA_STATUS_DRQ && ticks)
        inw(devInfo->ioPort+ATA_PORT_DATA);
    while (ticks++<=ATA_STANDARD_WAIT_MS*kTicksPerMS)
 1000707:	c7 05 68 4a 01 01 00 	mov    DWORD PTR ds:0x1014a68,0x3f800000
 100070e:	00 80 3f 
 1000711:	a1 84 02 12 00       	mov    eax,ds:0x120284
 1000716:	8d 04 80             	lea    eax,[eax+eax*4]
 1000719:	01 c0                	add    eax,eax
 100071b:	89 04 24             	mov    DWORD PTR [esp],eax
 100071e:	db 04 24             	fild   DWORD PTR [esp]
 1000721:	d9 5c 24 04          	fstp   DWORD PTR [esp+0x4]
 1000725:	d9 44 24 04          	fld    DWORD PTR [esp+0x4]
 1000729:	d9 ee                	fldz   
 100072b:	d9 c9                	fxch   st(1)
 100072d:	db e9                	fucomi st,st(1)
 100072f:	dd d9                	fstp   st(1)
 1000731:	72 5a                	jb     100078d <ataWaitForIdle+0x9a>
/home/yogi/src/os/chrisOSKernel/../chrisOS/src/init/ata_disk.c:53
    {
        __asm__("sti\nhlt\n");
 1000733:	fb                   	sti    
 1000734:	f4                   	hlt    
inb():
/home/yogi/src/os/chrisOSKernel/include/io.h:39
 1000735:	ec                   	in     al,dx
 1000736:	89 c1                	mov    ecx,eax
ataWaitForIdle():
/home/yogi/src/os/chrisOSKernel/../chrisOS/src/init/ata_disk.c:56
        lValue=inb(devInfo->ioPort+ATA_PORT_STATUS);
            //If both BUSY and DRQ are zero, then, the command is probably complete. 
        if ((lValue & (ATA_STATUS_DRQ | ATA_STATUS_BUSY)) == 0 )
 1000738:	25 88 00 00 00       	and    eax,0x88
 100073d:	74 60                	je     100079f <ataWaitForIdle+0xac>
 100073f:	d9 e8                	fld1   
/home/yogi/src/os/chrisOSKernel/../chrisOS/src/init/ata_disk.c:58
                    return 0;
        ticks++;
 1000741:	d9 e8                	fld1   
 1000743:	eb 1c                	jmp    1000761 <ataWaitForIdle+0x6e>
/home/yogi/src/os/chrisOSKernel/../chrisOS/src/init/ata_disk.c:53
    lValue=inb(devInfo->ioPort+ATA_PORT_STATUS);
    if ((lValue & ATA_STATUS_DRQ) == ATA_STATUS_DRQ && ticks)
        inw(devInfo->ioPort+ATA_PORT_DATA);
    while (ticks++<=ATA_STANDARD_WAIT_MS*kTicksPerMS)
    {
        __asm__("sti\nhlt\n");
 1000745:	fb                   	sti    
 1000746:	f4                   	hlt    
inb():
/home/yogi/src/os/chrisOSKernel/include/io.h:39
 1000747:	ec                   	in     al,dx
 1000748:	89 c1                	mov    ecx,eax
ataWaitForIdle():
/home/yogi/src/os/chrisOSKernel/../chrisOS/src/init/ata_disk.c:56
        lValue=inb(devInfo->ioPort+ATA_PORT_STATUS);
            //If both BUSY and DRQ are zero, then, the command is probably complete. 
        if ((lValue & (ATA_STATUS_DRQ | ATA_STATUS_BUSY)) == 0 )
 100074a:	25 88 00 00 00       	and    eax,0x88
 100074f:	75 0c                	jne    100075d <ataWaitForIdle+0x6a>
 1000751:	dd d8                	fstp   st(0)
 1000753:	dd d8                	fstp   st(0)
 1000755:	d9 1d 68 4a 01 01    	fstp   DWORD PTR ds:0x1014a68
 100075b:	eb 44                	jmp    10007a1 <ataWaitForIdle+0xae>
 100075d:	d9 ca                	fxch   st(2)
 100075f:	d9 c9                	fxch   st(1)
/home/yogi/src/os/chrisOSKernel/../chrisOS/src/init/ata_disk.c:58
                    return 0;
        ticks++;
 1000761:	dc c1                	fadd   st(1),st
 1000763:	d9 c9                	fxch   st(1)
 1000765:	d9 5c 24 04          	fstp   DWORD PTR [esp+0x4]
 1000769:	d9 44 24 04          	fld    DWORD PTR [esp+0x4]
/home/yogi/src/os/chrisOSKernel/../chrisOS/src/init/ata_disk.c:51
    uint8_t lValue=0;
    //printk("aaWaitForIdle: ticks(%u@0x%08X)=ATA_STANDARD_WAIT_MS(%d)*kTicksPerMS((%d@0x%08X))\n", ticks, &ticks, (ATA_STANDARD_WAIT_MS), kTicksPerMS, &kTicksPerMS);
    lValue=inb(devInfo->ioPort+ATA_PORT_STATUS);
    if ((lValue & ATA_STATUS_DRQ) == ATA_STATUS_DRQ && ticks)
        inw(devInfo->ioPort+ATA_PORT_DATA);
    while (ticks++<=ATA_STANDARD_WAIT_MS*kTicksPerMS)
 100076d:	d9 c1                	fld    st(1)
 100076f:	d8 c1                	fadd   st,st(1)
 1000771:	d9 5c 24 04          	fstp   DWORD PTR [esp+0x4]
 1000775:	d9 44 24 04          	fld    DWORD PTR [esp+0x4]
 1000779:	d9 cb                	fxch   st(3)
 100077b:	db e9                	fucomi st,st(1)
 100077d:	dd d9                	fstp   st(1)
 100077f:	73 c4                	jae    1000745 <ataWaitForIdle+0x52>
 1000781:	dd d8                	fstp   st(0)
 1000783:	dd d8                	fstp   st(0)
 1000785:	d9 1d 68 4a 01 01    	fstp   DWORD PTR ds:0x1014a68
 100078b:	eb 02                	jmp    100078f <ataWaitForIdle+0x9c>
 100078d:	dd d8                	fstp   st(0)
inb():
/home/yogi/src/os/chrisOSKernel/include/io.h:39
 100078f:	8d 53 01             	lea    edx,[ebx+0x1]
 1000792:	ec                   	in     al,dx
ataWaitForIdle():
/home/yogi/src/os/chrisOSKernel/../chrisOS/src/init/ata_disk.c:60
            //If both BUSY and DRQ are zero, then, the command is probably complete. 
        if ((lValue & (ATA_STATUS_DRQ | ATA_STATUS_BUSY)) == 0 )
                    return 0;
        ticks++;
    }
    hdError=inb(devInfo->ioPort+ATA_PORT_ERROR);
 1000793:	0f b6 c0             	movzx  eax,al
 1000796:	a3 74 4a 01 01       	mov    ds:0x1014a74,eax
/home/yogi/src/os/chrisOSKernel/../chrisOS/src/init/ata_disk.c:61
    return lValue;
 100079b:	89 c8                	mov    eax,ecx
 100079d:	eb 02                	jmp    10007a1 <ataWaitForIdle+0xae>
 100079f:	dd d8                	fstp   st(0)
/home/yogi/src/os/chrisOSKernel/../chrisOS/src/init/ata_disk.c:62
}
 10007a1:	83 c4 08             	add    esp,0x8
 10007a4:	5b                   	pop    ebx
 10007a5:	c3                   	ret    

010007a6 <ataControllerIsReady>:
ataControllerIsReady():
/home/yogi/src/os/chrisOSKernel/../chrisOS/src/init/ata_disk.c:66


uint8_t ataControllerIsReady(struct ataDeviceInfo_t* devInfo)
{
 10007a6:	55                   	push   ebp
 10007a7:	57                   	push   edi
 10007a8:	56                   	push   esi
 10007a9:	53                   	push   ebx
 10007aa:	83 ec 0c             	sub    esp,0xc
 10007ad:	8b 7c 24 20          	mov    edi,DWORD PTR [esp+0x20]
/home/yogi/src/os/chrisOSKernel/../chrisOS/src/init/ata_disk.c:69
    int ticks = 0;
    
    int lStatus=0;
 10007b1:	bd 00 00 00 00       	mov    ebp,0x0
/home/yogi/src/os/chrisOSKernel/../chrisOS/src/init/ata_disk.c:67
}


uint8_t ataControllerIsReady(struct ataDeviceInfo_t* devInfo)
{
    int ticks = 0;
 10007b6:	be 00 00 00 00       	mov    esi,0x0
/home/yogi/src/os/chrisOSKernel/../chrisOS/src/init/ata_disk.c:72
    
    int lStatus=0;
    uint8_t err=0;

    while (ticks++<=ATA_STANDARD_WAIT_MS*kTicksPerMS)
 10007bb:	eb 2a                	jmp    10007e7 <ataControllerIsReady+0x41>
inb():
/home/yogi/src/os/chrisOSKernel/include/io.h:39
 10007bd:	0f b7 87 69 02 00 00 	movzx  eax,WORD PTR [edi+0x269]
 10007c4:	8d 50 07             	lea    edx,[eax+0x7]
 10007c7:	ec                   	in     al,dx
 10007c8:	89 c3                	mov    ebx,eax
ataControllerIsReady():
/home/yogi/src/os/chrisOSKernel/../chrisOS/src/init/ata_disk.c:75
    {
        lStatus=inb(devInfo->ioPort+ATA_PORT_STATUS);
        wait(1);
 10007ca:	83 ec 0c             	sub    esp,0xc
 10007cd:	6a 01                	push   0x1
 10007cf:	e8 50 27 00 00       	call   1002f24 <wait>
/home/yogi/src/os/chrisOSKernel/../chrisOS/src/init/ata_disk.c:76
        ticks++;
 10007d4:	83 c6 02             	add    esi,0x2
/home/yogi/src/os/chrisOSKernel/../chrisOS/src/init/ata_disk.c:77
	lStatus &= (ATA_STATUS_BUSY | ATA_STATUS_READY| ATA_STATUS_SEEK);
 10007d7:	89 dd                	mov    ebp,ebx
 10007d9:	81 e5 d0 00 00 00    	and    ebp,0xd0
/home/yogi/src/os/chrisOSKernel/../chrisOS/src/init/ata_disk.c:78
        if (lStatus & ATA_STATUS_READY )
 10007df:	83 c4 10             	add    esp,0x10
 10007e2:	f6 c3 40             	test   bl,0x40
 10007e5:	75 71                	jne    1000858 <ataControllerIsReady+0xb2>
/home/yogi/src/os/chrisOSKernel/../chrisOS/src/init/ata_disk.c:72
    int ticks = 0;
    
    int lStatus=0;
    uint8_t err=0;

    while (ticks++<=ATA_STANDARD_WAIT_MS*kTicksPerMS)
 10007e7:	a1 84 02 12 00       	mov    eax,ds:0x120284
 10007ec:	8d 04 80             	lea    eax,[eax+eax*4]
 10007ef:	01 c0                	add    eax,eax
 10007f1:	39 c6                	cmp    esi,eax
 10007f3:	7e c8                	jle    10007bd <ataControllerIsReady+0x17>
/home/yogi/src/os/chrisOSKernel/../chrisOS/src/init/ata_disk.c:82
	lStatus &= (ATA_STATUS_BUSY | ATA_STATUS_READY| ATA_STATUS_SEEK);
        if (lStatus & ATA_STATUS_READY )
                return true;
    }

    if (lStatus==ATA_STATUS_ERROR || lStatus==ATA_STATUS_BUSY)
 10007f5:	81 fd 80 00 00 00    	cmp    ebp,0x80
 10007fb:	75 41                	jne    100083e <ataControllerIsReady+0x98>
inb():
/home/yogi/src/os/chrisOSKernel/include/io.h:39
 10007fd:	ba f1 01 00 00       	mov    edx,0x1f1
 1000802:	ec                   	in     al,dx
 1000803:	89 c3                	mov    ebx,eax
ataControllerIsReady():
/home/yogi/src/os/chrisOSKernel/../chrisOS/src/init/ata_disk.c:86
    {
         err=inb(0x1f1);
#ifndef DEBUG_NONE
         if ((kDebugLevel & DEBUG_HARDDRIVE) == DEBUG_HARDDRIVE)
 1000805:	f6 05 38 03 12 00 08 	test   BYTE PTR ds:0x120338,0x8
 100080c:	74 4a                	je     1000858 <ataControllerIsReady+0xb2>
/home/yogi/src/os/chrisOSKernel/../chrisOS/src/init/ata_disk.c:87
            printd(DEBUG_HARDDRIVE,"ataControllerIsReady: DRQ wait failed, lStatus=%02X, err=%02X\n",lStatus,err);
 100080e:	0f b6 c0             	movzx  eax,al
 1000811:	50                   	push   eax
 1000812:	68 80 00 00 00       	push   0x80
 1000817:	68 dc 7a 00 01       	push   0x1007adc
 100081c:	6a 08                	push   0x8
 100081e:	e8 70 1d 00 00       	call   1002593 <printd>
/home/yogi/src/os/chrisOSKernel/../chrisOS/src/init/ata_disk.c:90
#endif
    }
    if ( (lStatus & ATA_STATUS_READY)==0 && err==4)
 1000823:	83 c4 10             	add    esp,0x10
 1000826:	f7 c5 40 00 00 00    	test   ebp,0x40
 100082c:	75 10                	jne    100083e <ataControllerIsReady+0x98>
 100082e:	80 fb 04             	cmp    bl,0x4
 1000831:	0f 94 c0             	sete   al
/home/yogi/src/os/chrisOSKernel/../chrisOS/src/init/ata_disk.c:91
        lStatus=ATA_STATUS_READY;
 1000834:	84 c0                	test   al,al
 1000836:	b8 40 00 00 00       	mov    eax,0x40
 100083b:	0f 45 e8             	cmovne ebp,eax
/home/yogi/src/os/chrisOSKernel/../chrisOS/src/init/ata_disk.c:93
#ifndef DEBUG_NONE
        if ((kDebugLevel & DEBUG_HARDDRIVE) == DEBUG_HARDDRIVE)
 100083e:	f6 05 38 03 12 00 08 	test   BYTE PTR ds:0x120338,0x8
 1000845:	74 11                	je     1000858 <ataControllerIsReady+0xb2>
/home/yogi/src/os/chrisOSKernel/../chrisOS/src/init/ata_disk.c:94
            printk("ataControllerIsReady: returning %02X\n",lStatus);
 1000847:	83 ec 08             	sub    esp,0x8
 100084a:	55                   	push   ebp
 100084b:	68 1c 7b 00 01       	push   0x1007b1c
 1000850:	e8 26 1d 00 00       	call   100257b <printk>
 1000855:	83 c4 10             	add    esp,0x10
/home/yogi/src/os/chrisOSKernel/../chrisOS/src/init/ata_disk.c:97
#endif
    return true;
}
 1000858:	b8 01 00 00 00       	mov    eax,0x1
 100085d:	83 c4 0c             	add    esp,0xc
 1000860:	5b                   	pop    ebx
 1000861:	5e                   	pop    esi
 1000862:	5f                   	pop    edi
 1000863:	5d                   	pop    ebp
 1000864:	c3                   	ret    

01000865 <ataSelectDrive>:
ataSelectDrive():
/home/yogi/src/os/chrisOSKernel/../chrisOS/src/init/ata_disk.c:115
		return true;
	return 1;
}

bool ataSelectDrive(struct ataDeviceInfo_t* devInfo, uint8_t head)
{
 1000865:	57                   	push   edi
 1000866:	56                   	push   esi
 1000867:	53                   	push   ebx
 1000868:	8b 74 24 10          	mov    esi,DWORD PTR [esp+0x10]
 100086c:	8b 5c 24 14          	mov    ebx,DWORD PTR [esp+0x14]
/home/yogi/src/os/chrisOSKernel/../chrisOS/src/init/ata_disk.c:116
    ataWaitForIdle(devInfo);
 1000870:	56                   	push   esi
 1000871:	e8 7d fe ff ff       	call   10006f3 <ataWaitForIdle>
/home/yogi/src/os/chrisOSKernel/../chrisOS/src/init/ata_disk.c:117
    outb(devInfo->ioPort+ATA_DRIVE_SELECT, devInfo->driveHeadPortDesignation | (head& 0xF) ); 
 1000876:	8b 8e 69 02 00 00    	mov    ecx,DWORD PTR [esi+0x269]
outb():
/home/yogi/src/os/chrisOSKernel/include/io.h:23
void IRQ_set_mask(unsigned char IRQline);
void IRQ_clear_mask(unsigned char IRQline);

static __inline void outb(unsigned short __port, unsigned char __val)
{
	__asm__ volatile ("outb %1, %0" : : "a" (__val), "dN" (__port));
 100087c:	89 d8                	mov    eax,ebx
 100087e:	83 e0 0f             	and    eax,0xf
 1000881:	0a 86 6e 02 00 00    	or     al,BYTE PTR [esi+0x26e]
 1000887:	8d 51 06             	lea    edx,[ecx+0x6]
 100088a:	ee                   	out    dx,al
ataStatusIsOk():
/home/yogi/src/os/chrisOSKernel/../chrisOS/src/init/ata_disk.c:101
    return true;
}

static bool ataStatusIsOk(struct ataDeviceInfo_t* devInfo)
{
	unsigned char status = inb(devInfo->ioPort+ATA_PORT_STATUS);
 100088b:	8d 51 07             	lea    edx,[ecx+0x7]
inb():
/home/yogi/src/os/chrisOSKernel/include/io.h:39
}

static __inline unsigned char inb(unsigned short __port)
{
	unsigned char __val;
	__asm__ volatile ("inb %0, %1" : "=a" (__val) : "dN" (__port));
 100088e:	ec                   	in     al,dx
ataStatusIsOk():
/home/yogi/src/os/chrisOSKernel/../chrisOS/src/init/ata_disk.c:103

	if (status & ATA_STATUS_BUSY)
 100088f:	83 c4 04             	add    esp,0x4
 1000892:	84 c0                	test   al,al
 1000894:	0f 88 92 00 00 00    	js     100092c <ataSelectDrive+0xc7>
ataSelectDrive():
/home/yogi/src/os/chrisOSKernel/../chrisOS/src/init/ata_disk.c:136
        unsigned lDrive=inb(devInfo->ioPort+ATA_DRIVE_SELECT);
            printk("ataSelectDrive: Drive selected: %s (%u, 0x%02X), err=0x%02X\n", (lDrive & (1<<4)) == 1<<4?"Slave":"Master", devInfo->driveNo, lDrive, inb(devInfo->ioPort+ATA_PORT_ERROR));
    }
#endif
        
    return 0;
 100089a:	b8 00 00 00 00       	mov    eax,0x0
/home/yogi/src/os/chrisOSKernel/../chrisOS/src/init/ata_disk.c:128
            printk("ataSelectDrive: Failed to select drive %u, bus %u, status=0x%02X is not ok\n", devInfo->driveNo, devInfo->bus, inb(devInfo->ioPort+ATA_PORT_STATUS));
#endif
            return inb(devInfo->ioPort+ATA_PORT_STATUS);
    }
#ifndef DEBUG_NONE
    if ((kDebugLevel & DEBUG_HARDDRIVE) == DEBUG_HARDDRIVE)
 100089f:	f6 05 38 03 12 00 08 	test   BYTE PTR ds:0x120338,0x8
 10008a6:	0f 84 8e 00 00 00    	je     100093a <ataSelectDrive+0xd5>
 10008ac:	eb 2f                	jmp    10008dd <ataSelectDrive+0x78>
inb():
/home/yogi/src/os/chrisOSKernel/include/io.h:39
 10008ae:	ec                   	in     al,dx
ataSelectDrive():
/home/yogi/src/os/chrisOSKernel/../chrisOS/src/init/ata_disk.c:123
    //printk("Sending 0x%02X", drive==master?ATA_DRIVE_MASTER:ATA_DRIVE_SLAVE | (head& 0xF));
    if (!ataStatusIsOk(devInfo))
    {
#ifndef DEBUG_NONE
        if ((kDebugLevel & DEBUG_HARDDRIVE) == DEBUG_HARDDRIVE)
            printk("ataSelectDrive: Failed to select drive %u, bus %u, status=0x%02X is not ok\n", devInfo->driveNo, devInfo->bus, inb(devInfo->ioPort+ATA_PORT_STATUS));
 10008af:	0f b6 c0             	movzx  eax,al
 10008b2:	50                   	push   eax
 10008b3:	ff b6 61 02 00 00    	push   DWORD PTR [esi+0x261]
 10008b9:	ff b6 65 02 00 00    	push   DWORD PTR [esi+0x265]
 10008bf:	68 44 7b 00 01       	push   0x1007b44
 10008c4:	e8 b2 1c 00 00       	call   100257b <printk>
 10008c9:	83 c4 10             	add    esp,0x10
inb():
/home/yogi/src/os/chrisOSKernel/include/io.h:39
 10008cc:	8b 86 69 02 00 00    	mov    eax,DWORD PTR [esi+0x269]
 10008d2:	8d 50 07             	lea    edx,[eax+0x7]
 10008d5:	ec                   	in     al,dx
ataSelectDrive():
/home/yogi/src/os/chrisOSKernel/../chrisOS/src/init/ata_disk.c:125
#endif
            return inb(devInfo->ioPort+ATA_PORT_STATUS);
 10008d6:	84 c0                	test   al,al
 10008d8:	0f 95 c0             	setne  al
 10008db:	eb 5d                	jmp    100093a <ataSelectDrive+0xd5>
/home/yogi/src/os/chrisOSKernel/../chrisOS/src/init/ata_disk.c:130
    }
#ifndef DEBUG_NONE
    if ((kDebugLevel & DEBUG_HARDDRIVE) == DEBUG_HARDDRIVE)
    {
        wait(10);
 10008dd:	83 ec 0c             	sub    esp,0xc
 10008e0:	6a 0a                	push   0xa
 10008e2:	e8 3d 26 00 00       	call   1002f24 <wait>
/home/yogi/src/os/chrisOSKernel/../chrisOS/src/init/ata_disk.c:131
        unsigned lDrive=inb(devInfo->ioPort+ATA_DRIVE_SELECT);
 10008e7:	8b 8e 69 02 00 00    	mov    ecx,DWORD PTR [esi+0x269]
inb():
/home/yogi/src/os/chrisOSKernel/include/io.h:39
 10008ed:	8d 51 06             	lea    edx,[ecx+0x6]
 10008f0:	ec                   	in     al,dx
 10008f1:	89 c3                	mov    ebx,eax
ataSelectDrive():
/home/yogi/src/os/chrisOSKernel/../chrisOS/src/init/ata_disk.c:131
 10008f3:	0f b6 f8             	movzx  edi,al
inb():
/home/yogi/src/os/chrisOSKernel/include/io.h:39
 10008f6:	8d 51 01             	lea    edx,[ecx+0x1]
 10008f9:	ec                   	in     al,dx
ataSelectDrive():
/home/yogi/src/os/chrisOSKernel/../chrisOS/src/init/ata_disk.c:132
            printk("ataSelectDrive: Drive selected: %s (%u, 0x%02X), err=0x%02X\n", (lDrive & (1<<4)) == 1<<4?"Slave":"Master", devInfo->driveNo, lDrive, inb(devInfo->ioPort+ATA_PORT_ERROR));
 10008fa:	0f b6 c8             	movzx  ecx,al
 10008fd:	83 e3 10             	and    ebx,0x10
 1000900:	ba 96 76 00 01       	mov    edx,0x1007696
 1000905:	b8 90 76 00 01       	mov    eax,0x1007690
 100090a:	0f 44 c2             	cmove  eax,edx
 100090d:	89 0c 24             	mov    DWORD PTR [esp],ecx
 1000910:	57                   	push   edi
 1000911:	ff b6 65 02 00 00    	push   DWORD PTR [esi+0x265]
 1000917:	50                   	push   eax
 1000918:	68 90 7b 00 01       	push   0x1007b90
 100091d:	e8 59 1c 00 00       	call   100257b <printk>
 1000922:	83 c4 20             	add    esp,0x20
/home/yogi/src/os/chrisOSKernel/../chrisOS/src/init/ata_disk.c:136
    }
#endif
        
    return 0;
 1000925:	b8 00 00 00 00       	mov    eax,0x0
 100092a:	eb 0e                	jmp    100093a <ataSelectDrive+0xd5>
/home/yogi/src/os/chrisOSKernel/../chrisOS/src/init/ata_disk.c:122
    outb(devInfo->ioPort+ATA_DRIVE_SELECT, devInfo->driveHeadPortDesignation | (head& 0xF) ); 
    //printk("Sending 0x%02X", drive==master?ATA_DRIVE_MASTER:ATA_DRIVE_SLAVE | (head& 0xF));
    if (!ataStatusIsOk(devInfo))
    {
#ifndef DEBUG_NONE
        if ((kDebugLevel & DEBUG_HARDDRIVE) == DEBUG_HARDDRIVE)
 100092c:	f6 05 38 03 12 00 08 	test   BYTE PTR ds:0x120338,0x8
 1000933:	74 97                	je     10008cc <ataSelectDrive+0x67>
 1000935:	e9 74 ff ff ff       	jmp    10008ae <ataSelectDrive+0x49>
/home/yogi/src/os/chrisOSKernel/../chrisOS/src/init/ata_disk.c:137
            printk("ataSelectDrive: Drive selected: %s (%u, 0x%02X), err=0x%02X\n", (lDrive & (1<<4)) == 1<<4?"Slave":"Master", devInfo->driveNo, lDrive, inb(devInfo->ioPort+ATA_PORT_ERROR));
    }
#endif
        
    return 0;
}
 100093a:	5b                   	pop    ebx
 100093b:	5e                   	pop    esi
 100093c:	5f                   	pop    edi
 100093d:	c3                   	ret    

0100093e <ataInit>:
ataInit():
/home/yogi/src/os/chrisOSKernel/../chrisOS/src/init/ata_disk.c:180
        if ((kDebugLevel & DEBUG_HARDDRIVE) == DEBUG_HARDDRIVE)
            printk("ataResetController: controller is ready\n");
#endif
}
int ataInit(struct ataDeviceInfo_t* devInfo)
{
 100093e:	57                   	push   edi
 100093f:	56                   	push   esi
 1000940:	53                   	push   ebx
 1000941:	8b 74 24 10          	mov    esi,DWORD PTR [esp+0x10]
outb():
/home/yogi/src/os/chrisOSKernel/include/io.h:23
void IRQ_set_mask(unsigned char IRQline);
void IRQ_clear_mask(unsigned char IRQline);

static __inline void outb(unsigned short __port, unsigned char __val)
{
	__asm__ volatile ("outb %1, %0" : : "a" (__val), "dN" (__port));
 1000945:	0f b7 86 69 02 00 00 	movzx  eax,WORD PTR [esi+0x269]
 100094c:	8d 50 07             	lea    edx,[eax+0x7]
 100094f:	b8 04 00 00 00       	mov    eax,0x4
 1000954:	ee                   	out    dx,al
ataResetController():
/home/yogi/src/os/chrisOSKernel/../chrisOS/src/init/ata_disk.c:163
}
*/
static void ataResetController(struct ataDeviceInfo_t* devInfo)
{
        outb(devInfo->ioPort+ATA_PORT_COMMAND, 4);
        waitTicks(kTicksPerSecond/10);
 1000955:	83 ec 0c             	sub    esp,0xc
 1000958:	8b 0d 80 02 12 00    	mov    ecx,DWORD PTR ds:0x120280
 100095e:	ba 67 66 66 66       	mov    edx,0x66666667
 1000963:	89 c8                	mov    eax,ecx
 1000965:	f7 ea                	imul   edx
 1000967:	c1 fa 02             	sar    edx,0x2
 100096a:	c1 f9 1f             	sar    ecx,0x1f
 100096d:	29 ca                	sub    edx,ecx
 100096f:	52                   	push   edx
 1000970:	e8 9c 25 00 00       	call   1002f11 <waitTicks>
outb():
/home/yogi/src/os/chrisOSKernel/include/io.h:23
 1000975:	0f b7 86 69 02 00 00 	movzx  eax,WORD PTR [esi+0x269]
 100097c:	8d 90 f6 03 00 00    	lea    edx,[eax+0x3f6]
 1000982:	b8 04 00 00 00       	mov    eax,0x4
 1000987:	ee                   	out    dx,al
ataResetController():
/home/yogi/src/os/chrisOSKernel/../chrisOS/src/init/ata_disk.c:165
        outb(devInfo->ioPort+ATA_PORT_CONTROL, 1<<2);
        wait(10);
 1000988:	c7 04 24 0a 00 00 00 	mov    DWORD PTR [esp],0xa
 100098f:	e8 90 25 00 00       	call   1002f24 <wait>
outb():
/home/yogi/src/os/chrisOSKernel/include/io.h:23
 1000994:	0f b7 86 69 02 00 00 	movzx  eax,WORD PTR [esi+0x269]
 100099b:	8d 90 f6 03 00 00    	lea    edx,[eax+0x3f6]
 10009a1:	b8 00 00 00 00       	mov    eax,0x0
 10009a6:	ee                   	out    dx,al
ataResetController():
/home/yogi/src/os/chrisOSKernel/../chrisOS/src/init/ata_disk.c:167
        outb(devInfo->ioPort+ATA_PORT_CONTROL, 0);
        if (!ataControllerIsReady(devInfo))
 10009a7:	89 34 24             	mov    DWORD PTR [esp],esi
 10009aa:	e8 f7 fd ff ff       	call   10007a6 <ataControllerIsReady>
 10009af:	83 c4 10             	add    esp,0x10
 10009b2:	84 c0                	test   al,al
 10009b4:	75 19                	jne    10009cf <ataInit+0x91>
/home/yogi/src/os/chrisOSKernel/../chrisOS/src/init/ata_disk.c:169
#ifndef DEBUG_NONE
        if ((kDebugLevel & DEBUG_HARDDRIVE) == DEBUG_HARDDRIVE)
 10009b6:	f6 05 38 03 12 00 08 	test   BYTE PTR ds:0x120338,0x8
 10009bd:	74 10                	je     10009cf <ataInit+0x91>
/home/yogi/src/os/chrisOSKernel/../chrisOS/src/init/ata_disk.c:170
            printk("HD-controller still busy\n");
 10009bf:	83 ec 0c             	sub    esp,0xc
 10009c2:	68 af 76 00 01       	push   0x10076af
 10009c7:	e8 af 1b 00 00       	call   100257b <printk>
 10009cc:	83 c4 10             	add    esp,0x10
/home/yogi/src/os/chrisOSKernel/../chrisOS/src/init/ata_disk.c:172
#endif
        if ((hdError = inb(devInfo->ioPort+ATA_PORT_ERROR)) != 0 && (hdError = inb(devInfo->ioPort+ATA_PORT_ERROR)) != 4)
 10009cf:	0f b7 86 69 02 00 00 	movzx  eax,WORD PTR [esi+0x269]
 10009d6:	8d 50 01             	lea    edx,[eax+0x1]
inb():
/home/yogi/src/os/chrisOSKernel/include/io.h:39
}

static __inline unsigned char inb(unsigned short __port)
{
	unsigned char __val;
	__asm__ volatile ("inb %0, %1" : "=a" (__val) : "dN" (__port));
 10009d9:	ec                   	in     al,dx
ataResetController():
/home/yogi/src/os/chrisOSKernel/../chrisOS/src/init/ata_disk.c:172
 10009da:	84 c0                	test   al,al
 10009dc:	75 0c                	jne    10009ea <ataInit+0xac>
 10009de:	c7 05 74 4a 01 01 00 	mov    DWORD PTR ds:0x1014a74,0x0
 10009e5:	00 00 00 
 10009e8:	eb 34                	jmp    1000a1e <ataInit+0xe0>
inb():
/home/yogi/src/os/chrisOSKernel/include/io.h:39
 10009ea:	ec                   	in     al,dx
ataResetController():
/home/yogi/src/os/chrisOSKernel/../chrisOS/src/init/ata_disk.c:172
 10009eb:	0f b6 c0             	movzx  eax,al
 10009ee:	a3 74 4a 01 01       	mov    ds:0x1014a74,eax
 10009f3:	83 f8 04             	cmp    eax,0x4
 10009f6:	74 26                	je     1000a1e <ataInit+0xe0>
/home/yogi/src/os/chrisOSKernel/../chrisOS/src/init/ata_disk.c:173
            printk("Controller reset failed on %s bus: %02x\n",devInfo->bus==0?"Primary":"Secondary", hdError);
 10009f8:	83 be 61 02 00 00 00 	cmp    DWORD PTR [esi+0x261],0x0
 10009ff:	b9 a5 76 00 01       	mov    ecx,0x10076a5
 1000a04:	ba 9d 76 00 01       	mov    edx,0x100769d
 1000a09:	0f 45 d1             	cmovne edx,ecx
 1000a0c:	83 ec 04             	sub    esp,0x4
 1000a0f:	50                   	push   eax
 1000a10:	52                   	push   edx
 1000a11:	68 d0 7b 00 01       	push   0x1007bd0
 1000a16:	e8 60 1b 00 00       	call   100257b <printk>
 1000a1b:	83 c4 10             	add    esp,0x10
/home/yogi/src/os/chrisOSKernel/../chrisOS/src/init/ata_disk.c:175
#ifndef DEBUG_NONE
        if ((kDebugLevel & DEBUG_HARDDRIVE) == DEBUG_HARDDRIVE)
 1000a1e:	f6 05 38 03 12 00 08 	test   BYTE PTR ds:0x120338,0x8
 1000a25:	74 10                	je     1000a37 <ataInit+0xf9>
/home/yogi/src/os/chrisOSKernel/../chrisOS/src/init/ata_disk.c:176
            printk("ataResetController: controller is ready\n");
 1000a27:	83 ec 0c             	sub    esp,0xc
 1000a2a:	68 fc 7b 00 01       	push   0x1007bfc
 1000a2f:	e8 47 1b 00 00       	call   100257b <printk>
 1000a34:	83 c4 10             	add    esp,0x10
ataInit():
/home/yogi/src/os/chrisOSKernel/../chrisOS/src/init/ata_disk.c:183
}
int ataInit(struct ataDeviceInfo_t* devInfo)
{
    ataResetController(devInfo);
    int cStatus=0, ticks=0;
    ataSelectDrive(devInfo,0);
 1000a37:	83 ec 08             	sub    esp,0x8
 1000a3a:	6a 00                	push   0x0
 1000a3c:	56                   	push   esi
 1000a3d:	e8 23 fe ff ff       	call   1000865 <ataSelectDrive>
/home/yogi/src/os/chrisOSKernel/../chrisOS/src/init/ata_disk.c:184
    outb(devInfo->ioPort+ATA_PORT_SECTORCOUNT, 0x55);
 1000a42:	8b 8e 69 02 00 00    	mov    ecx,DWORD PTR [esi+0x269]
outb():
/home/yogi/src/os/chrisOSKernel/include/io.h:23
void IRQ_set_mask(unsigned char IRQline);
void IRQ_clear_mask(unsigned char IRQline);

static __inline void outb(unsigned short __port, unsigned char __val)
{
	__asm__ volatile ("outb %1, %0" : : "a" (__val), "dN" (__port));
 1000a48:	8d 51 02             	lea    edx,[ecx+0x2]
 1000a4b:	b8 55 00 00 00       	mov    eax,0x55
 1000a50:	ee                   	out    dx,al
 1000a51:	8d 51 03             	lea    edx,[ecx+0x3]
 1000a54:	b8 aa ff ff ff       	mov    eax,0xffffffaa
 1000a59:	ee                   	out    dx,al
 1000a5a:	8d 51 04             	lea    edx,[ecx+0x4]
 1000a5d:	b8 55 00 00 00       	mov    eax,0x55
 1000a62:	ee                   	out    dx,al
 1000a63:	8d 51 05             	lea    edx,[ecx+0x5]
 1000a66:	b8 aa ff ff ff       	mov    eax,0xffffffaa
 1000a6b:	ee                   	out    dx,al
 1000a6c:	8d 51 07             	lea    edx,[ecx+0x7]
 1000a6f:	b8 ec ff ff ff       	mov    eax,0xffffffec
 1000a74:	ee                   	out    dx,al
ataInit():
/home/yogi/src/os/chrisOSKernel/../chrisOS/src/init/ata_disk.c:189
    outb(devInfo->ioPort+ATA_PORT_SECTOR_NUMBER, 0xAA);
    outb(devInfo->ioPort+ATA_PORT_CYLINDER_LOW,0x55);
    outb(devInfo->ioPort+ATA_PORT_CYLINDER_HIGH,0xAA);
    outb(devInfo->ioPort+ATA_PORT_COMMAND, ATA_IDENTIFY_COMMAND);
    wait(ATA_STANDARD_WAIT_MS*kTicksPerMS);
 1000a75:	a1 84 02 12 00       	mov    eax,ds:0x120284
 1000a7a:	8d 04 80             	lea    eax,[eax+eax*4]
 1000a7d:	01 c0                	add    eax,eax
 1000a7f:	89 04 24             	mov    DWORD PTR [esp],eax
 1000a82:	e8 9d 24 00 00       	call   1002f24 <wait>
/home/yogi/src/os/chrisOSKernel/../chrisOS/src/init/ata_disk.c:190
    cStatus = inb(devInfo->ioPort+ATA_PORT_STATUS);
 1000a87:	8b 8e 69 02 00 00    	mov    ecx,DWORD PTR [esi+0x269]
inb():
/home/yogi/src/os/chrisOSKernel/include/io.h:39
}

static __inline unsigned char inb(unsigned short __port)
{
	unsigned char __val;
	__asm__ volatile ("inb %0, %1" : "=a" (__val) : "dN" (__port));
 1000a8d:	8d 51 07             	lea    edx,[ecx+0x7]
 1000a90:	ec                   	in     al,dx
ataInit():
/home/yogi/src/os/chrisOSKernel/../chrisOS/src/init/ata_disk.c:190
 1000a91:	0f b6 d8             	movzx  ebx,al
/home/yogi/src/os/chrisOSKernel/../chrisOS/src/init/ata_disk.c:191
    if (cStatus==0)
 1000a94:	83 c4 10             	add    esp,0x10
 1000a97:	85 db                	test   ebx,ebx
 1000a99:	75 34                	jne    1000acf <ataInit+0x191>
/home/yogi/src/os/chrisOSKernel/../chrisOS/src/init/ata_disk.c:197
    {
#ifndef DEBUG_NONE
        if ((kDebugLevel & DEBUG_HARDDRIVE) == DEBUG_HARDDRIVE)
            printk("Drive %02X, not ready(%02X)\n",devInfo->driveNo, cStatus);
#endif
        return false;
 1000a9b:	b8 00 00 00 00       	mov    eax,0x0
/home/yogi/src/os/chrisOSKernel/../chrisOS/src/init/ata_disk.c:194
    wait(ATA_STANDARD_WAIT_MS*kTicksPerMS);
    cStatus = inb(devInfo->ioPort+ATA_PORT_STATUS);
    if (cStatus==0)
    {
#ifndef DEBUG_NONE
        if ((kDebugLevel & DEBUG_HARDDRIVE) == DEBUG_HARDDRIVE)
 1000aa0:	f6 05 38 03 12 00 08 	test   BYTE PTR ds:0x120338,0x8
 1000aa7:	0f 84 4d 01 00 00    	je     1000bfa <ataInit+0x2bc>
/home/yogi/src/os/chrisOSKernel/../chrisOS/src/init/ata_disk.c:195
            printk("Drive %02X, not ready(%02X)\n",devInfo->driveNo, cStatus);
 1000aad:	83 ec 04             	sub    esp,0x4
 1000ab0:	6a 00                	push   0x0
 1000ab2:	ff b6 65 02 00 00    	push   DWORD PTR [esi+0x265]
 1000ab8:	68 c9 76 00 01       	push   0x10076c9
 1000abd:	e8 b9 1a 00 00       	call   100257b <printk>
 1000ac2:	83 c4 10             	add    esp,0x10
/home/yogi/src/os/chrisOSKernel/../chrisOS/src/init/ata_disk.c:197
#endif
        return false;
 1000ac5:	b8 00 00 00 00       	mov    eax,0x0
 1000aca:	e9 2b 01 00 00       	jmp    1000bfa <ataInit+0x2bc>
/home/yogi/src/os/chrisOSKernel/../chrisOS/src/init/ata_disk.c:199
    }
    if ((cStatus & 1) == 1)
 1000acf:	a8 01                	test   al,0x1
 1000ad1:	0f 84 80 00 00 00    	je     1000b57 <ataInit+0x219>
inb():
/home/yogi/src/os/chrisOSKernel/include/io.h:39
 1000ad7:	8d 51 01             	lea    edx,[ecx+0x1]
 1000ada:	ec                   	in     al,dx
ataInit():
/home/yogi/src/os/chrisOSKernel/../chrisOS/src/init/ata_disk.c:201
    {
        int err = inb(devInfo->ioPort+ATA_PORT_ERROR);
 1000adb:	0f b6 f8             	movzx  edi,al
/home/yogi/src/os/chrisOSKernel/../chrisOS/src/init/ata_disk.c:203
#ifndef DEBUG_NONE
        if ((kDebugLevel & DEBUG_HARDDRIVE) == DEBUG_HARDDRIVE)
 1000ade:	f6 05 38 03 12 00 08 	test   BYTE PTR ds:0x120338,0x8
 1000ae5:	74 15                	je     1000afc <ataInit+0x1be>
/home/yogi/src/os/chrisOSKernel/../chrisOS/src/init/ata_disk.c:204
            printk("drive %02X, cStatus=%02X, errreg=%02X\n",devInfo->driveNo, cStatus,err);
 1000ae7:	57                   	push   edi
 1000ae8:	53                   	push   ebx
 1000ae9:	ff b6 65 02 00 00    	push   DWORD PTR [esi+0x265]
 1000aef:	68 28 7c 00 01       	push   0x1007c28
 1000af4:	e8 82 1a 00 00       	call   100257b <printk>
 1000af9:	83 c4 10             	add    esp,0x10
/home/yogi/src/os/chrisOSKernel/../chrisOS/src/init/ata_disk.c:207
#endif
        if (err!=4)
            return false;
 1000afc:	b8 00 00 00 00       	mov    eax,0x0
/home/yogi/src/os/chrisOSKernel/../chrisOS/src/init/ata_disk.c:206
        int err = inb(devInfo->ioPort+ATA_PORT_ERROR);
#ifndef DEBUG_NONE
        if ((kDebugLevel & DEBUG_HARDDRIVE) == DEBUG_HARDDRIVE)
            printk("drive %02X, cStatus=%02X, errreg=%02X\n",devInfo->driveNo, cStatus,err);
#endif
        if (err!=4)
 1000b01:	83 ff 04             	cmp    edi,0x4
 1000b04:	0f 85 f0 00 00 00    	jne    1000bfa <ataInit+0x2bc>
/home/yogi/src/os/chrisOSKernel/../chrisOS/src/init/ata_disk.c:208
            return false;
        useCDROMIdentify = true;
 1000b0a:	c6 05 78 4a 01 01 01 	mov    BYTE PTR ds:0x1014a78,0x1
inb():
/home/yogi/src/os/chrisOSKernel/include/io.h:39
 1000b11:	0f b7 86 69 02 00 00 	movzx  eax,WORD PTR [esi+0x269]
 1000b18:	8d 50 07             	lea    edx,[eax+0x7]
 1000b1b:	ec                   	in     al,dx
ataInit():
/home/yogi/src/os/chrisOSKernel/../chrisOS/src/init/ata_disk.c:209
        cStatus = inb(devInfo->ioPort+ATA_PORT_STATUS);
 1000b1c:	0f b6 d8             	movzx  ebx,al
/home/yogi/src/os/chrisOSKernel/../chrisOS/src/init/ata_disk.c:210
        if (cStatus==0)
 1000b1f:	85 db                	test   ebx,ebx
 1000b21:	75 34                	jne    1000b57 <ataInit+0x219>
/home/yogi/src/os/chrisOSKernel/../chrisOS/src/init/ata_disk.c:216
        {
#ifndef DEBUG_NONE
            if ((kDebugLevel & DEBUG_HARDDRIVE) == DEBUG_HARDDRIVE)
                printk("Drive %02X, not ready(%02X)\n",devInfo->driveNo, cStatus);
#endif
            return false;
 1000b23:	b8 00 00 00 00       	mov    eax,0x0
/home/yogi/src/os/chrisOSKernel/../chrisOS/src/init/ata_disk.c:213
        useCDROMIdentify = true;
        cStatus = inb(devInfo->ioPort+ATA_PORT_STATUS);
        if (cStatus==0)
        {
#ifndef DEBUG_NONE
            if ((kDebugLevel & DEBUG_HARDDRIVE) == DEBUG_HARDDRIVE)
 1000b28:	f6 05 38 03 12 00 08 	test   BYTE PTR ds:0x120338,0x8
 1000b2f:	0f 84 c5 00 00 00    	je     1000bfa <ataInit+0x2bc>
/home/yogi/src/os/chrisOSKernel/../chrisOS/src/init/ata_disk.c:214
                printk("Drive %02X, not ready(%02X)\n",devInfo->driveNo, cStatus);
 1000b35:	83 ec 04             	sub    esp,0x4
 1000b38:	6a 00                	push   0x0
 1000b3a:	ff b6 65 02 00 00    	push   DWORD PTR [esi+0x265]
 1000b40:	68 c9 76 00 01       	push   0x10076c9
 1000b45:	e8 31 1a 00 00       	call   100257b <printk>
 1000b4a:	83 c4 10             	add    esp,0x10
/home/yogi/src/os/chrisOSKernel/../chrisOS/src/init/ata_disk.c:216
#endif
            return false;
 1000b4d:	b8 00 00 00 00       	mov    eax,0x0
 1000b52:	e9 a3 00 00 00       	jmp    1000bfa <ataInit+0x2bc>
/home/yogi/src/os/chrisOSKernel/../chrisOS/src/init/ata_disk.c:219
        }
    }
    ticks=ATA_STANDARD_WAIT_MS*kTicksPerMS;
 1000b57:	a1 84 02 12 00       	mov    eax,ds:0x120284
 1000b5c:	8d 04 80             	lea    eax,[eax+eax*4]
 1000b5f:	01 c0                	add    eax,eax
 1000b61:	89 c7                	mov    edi,eax
/home/yogi/src/os/chrisOSKernel/../chrisOS/src/init/ata_disk.c:220
    while ((cStatus & ATA_STATUS_BUSY) == ATA_STATUS_BUSY && (ticks>0))
 1000b63:	c1 eb 07             	shr    ebx,0x7
 1000b66:	84 db                	test   bl,bl
 1000b68:	74 29                	je     1000b93 <ataInit+0x255>
 1000b6a:	85 c0                	test   eax,eax
 1000b6c:	7e 25                	jle    1000b93 <ataInit+0x255>
inb():
/home/yogi/src/os/chrisOSKernel/include/io.h:39
 1000b6e:	0f b7 86 69 02 00 00 	movzx  eax,WORD PTR [esi+0x269]
 1000b75:	8d 50 07             	lea    edx,[eax+0x7]
 1000b78:	ec                   	in     al,dx
 1000b79:	89 c3                	mov    ebx,eax
ataInit():
/home/yogi/src/os/chrisOSKernel/../chrisOS/src/init/ata_disk.c:223
    {
        cStatus = inb(devInfo->ioPort+ATA_PORT_STATUS);
        wait(1);
 1000b7b:	83 ec 0c             	sub    esp,0xc
 1000b7e:	6a 01                	push   0x1
 1000b80:	e8 9f 23 00 00       	call   1002f24 <wait>
/home/yogi/src/os/chrisOSKernel/../chrisOS/src/init/ata_disk.c:224
        ticks--;
 1000b85:	83 ef 01             	sub    edi,0x1
/home/yogi/src/os/chrisOSKernel/../chrisOS/src/init/ata_disk.c:220
#endif
            return false;
        }
    }
    ticks=ATA_STANDARD_WAIT_MS*kTicksPerMS;
    while ((cStatus & ATA_STATUS_BUSY) == ATA_STATUS_BUSY && (ticks>0))
 1000b88:	83 c4 10             	add    esp,0x10
 1000b8b:	84 db                	test   bl,bl
 1000b8d:	79 04                	jns    1000b93 <ataInit+0x255>
 1000b8f:	85 ff                	test   edi,edi
 1000b91:	7f db                	jg     1000b6e <ataInit+0x230>
/home/yogi/src/os/chrisOSKernel/../chrisOS/src/init/ata_disk.c:226
    {
        cStatus = inb(devInfo->ioPort+ATA_PORT_STATUS);
        wait(1);
        ticks--;
    }
    if (!ataControllerIsReady(devInfo))
 1000b93:	83 ec 0c             	sub    esp,0xc
 1000b96:	56                   	push   esi
 1000b97:	e8 0a fc ff ff       	call   10007a6 <ataControllerIsReady>
 1000b9c:	89 c2                	mov    edx,eax
 1000b9e:	83 c4 10             	add    esp,0x10
/home/yogi/src/os/chrisOSKernel/../chrisOS/src/init/ata_disk.c:227
        return false;
 1000ba1:	b8 00 00 00 00       	mov    eax,0x0
/home/yogi/src/os/chrisOSKernel/../chrisOS/src/init/ata_disk.c:226
    {
        cStatus = inb(devInfo->ioPort+ATA_PORT_STATUS);
        wait(1);
        ticks--;
    }
    if (!ataControllerIsReady(devInfo))
 1000ba6:	84 d2                	test   dl,dl
 1000ba8:	74 50                	je     1000bfa <ataInit+0x2bc>
/home/yogi/src/os/chrisOSKernel/../chrisOS/src/init/ata_disk.c:228
        return false;
    if (inb(devInfo->ioPort+ATA_PORT_CYLINDER_LOW)!=0x55 || inb(devInfo->ioPort+ATA_PORT_CYLINDER_HIGH)!=0xaa)
 1000baa:	8b 8e 69 02 00 00    	mov    ecx,DWORD PTR [esi+0x269]
 1000bb0:	8d 59 04             	lea    ebx,[ecx+0x4]
inb():
/home/yogi/src/os/chrisOSKernel/include/io.h:39
 1000bb3:	89 da                	mov    edx,ebx
 1000bb5:	ec                   	in     al,dx
ataInit():
/home/yogi/src/os/chrisOSKernel/../chrisOS/src/init/ata_disk.c:228
 1000bb6:	3c 55                	cmp    al,0x55
 1000bb8:	75 08                	jne    1000bc2 <ataInit+0x284>
inb():
/home/yogi/src/os/chrisOSKernel/include/io.h:39 (discriminator 1)
 1000bba:	8d 51 05             	lea    edx,[ecx+0x5]
 1000bbd:	ec                   	in     al,dx
ataInit():
/home/yogi/src/os/chrisOSKernel/../chrisOS/src/init/ata_disk.c:228 (discriminator 1)
 1000bbe:	3c aa                	cmp    al,0xaa
 1000bc0:	74 33                	je     1000bf5 <ataInit+0x2b7>
/home/yogi/src/os/chrisOSKernel/../chrisOS/src/init/ata_disk.c:231
    {
#ifndef DEBUG_NONE
    if ((kDebugLevel & DEBUG_HARDDRIVE) == DEBUG_HARDDRIVE)
 1000bc2:	f6 05 38 03 12 00 08 	test   BYTE PTR ds:0x120338,0x8
 1000bc9:	74 21                	je     1000bec <ataInit+0x2ae>
inb():
/home/yogi/src/os/chrisOSKernel/include/io.h:39
 1000bcb:	8d 51 05             	lea    edx,[ecx+0x5]
 1000bce:	ec                   	in     al,dx
 1000bcf:	89 c1                	mov    ecx,eax
 1000bd1:	89 da                	mov    edx,ebx
 1000bd3:	ec                   	in     al,dx
ataInit():
/home/yogi/src/os/chrisOSKernel/../chrisOS/src/init/ata_disk.c:232
        printk("Cylinder port non-zero (%X,%X), device is non-ATA\n",inb(devInfo->ioPort+ATA_PORT_CYLINDER_LOW), inb(devInfo->ioPort+ATA_PORT_CYLINDER_HIGH));
 1000bd4:	83 ec 04             	sub    esp,0x4
 1000bd7:	0f b6 c9             	movzx  ecx,cl
 1000bda:	51                   	push   ecx
 1000bdb:	0f b6 c0             	movzx  eax,al
 1000bde:	50                   	push   eax
 1000bdf:	68 50 7c 00 01       	push   0x1007c50
 1000be4:	e8 92 19 00 00       	call   100257b <printk>
 1000be9:	83 c4 10             	add    esp,0x10
/home/yogi/src/os/chrisOSKernel/../chrisOS/src/init/ata_disk.c:197
    {
#ifndef DEBUG_NONE
        if ((kDebugLevel & DEBUG_HARDDRIVE) == DEBUG_HARDDRIVE)
            printk("Drive %02X, not ready(%02X)\n",devInfo->driveNo, cStatus);
#endif
        return false;
 1000bec:	0f b6 05 78 4a 01 01 	movzx  eax,BYTE PTR ds:0x1014a78
 1000bf3:	eb 05                	jmp    1000bfa <ataInit+0x2bc>
/home/yogi/src/os/chrisOSKernel/../chrisOS/src/init/ata_disk.c:239
        if (useCDROMIdentify)
            return true;
        else
            return false;
    }
    return true;
 1000bf5:	b8 01 00 00 00       	mov    eax,0x1
/home/yogi/src/os/chrisOSKernel/../chrisOS/src/init/ata_disk.c:240
}
 1000bfa:	5b                   	pop    ebx
 1000bfb:	5e                   	pop    esi
 1000bfc:	5f                   	pop    edi
 1000bfd:	c3                   	ret    

01000bfe <ataGetModelFromIdentify>:
ataGetModelFromIdentify():
/home/yogi/src/os/chrisOSKernel/../chrisOS/src/init/ata_disk.c:243

void ataGetModelFromIdentify(struct ataDeviceInfo_t* devInfo)
{
 1000bfe:	56                   	push   esi
 1000bff:	53                   	push   ebx
 1000c00:	8b 74 24 0c          	mov    esi,DWORD PTR [esp+0xc]
/home/yogi/src/os/chrisOSKernel/../chrisOS/src/init/ata_disk.c:244
    uint16_t* ident=devInfo->ATAIdentifyData+27;
 1000c04:	8d 46 36             	lea    eax,[esi+0x36]
 1000c07:	8d 96 01 02 00 00    	lea    edx,[esi+0x201]
 1000c0d:	8d 5e 5e             	lea    ebx,[esi+0x5e]
/home/yogi/src/os/chrisOSKernel/../chrisOS/src/init/ata_disk.c:247 (discriminator 3)
    for (int cnt=0;cnt<40;cnt+=2)
    {
        devInfo->ATADeviceModel[cnt]=(*ident >> 8) & 0xFF;
 1000c10:	0f b7 08             	movzx  ecx,WORD PTR [eax]
 1000c13:	66 c1 e9 08          	shr    cx,0x8
 1000c17:	88 4a ff             	mov    BYTE PTR [edx-0x1],cl
/home/yogi/src/os/chrisOSKernel/../chrisOS/src/init/ata_disk.c:248 (discriminator 3)
        devInfo->ATADeviceModel[cnt+1]=(*ident++) & 0xFF;
 1000c1a:	83 c0 02             	add    eax,0x2
 1000c1d:	0f b7 48 fe          	movzx  ecx,WORD PTR [eax-0x2]
 1000c21:	88 0a                	mov    BYTE PTR [edx],cl
 1000c23:	83 c2 02             	add    edx,0x2
/home/yogi/src/os/chrisOSKernel/../chrisOS/src/init/ata_disk.c:245 (discriminator 3)
}

void ataGetModelFromIdentify(struct ataDeviceInfo_t* devInfo)
{
    uint16_t* ident=devInfo->ATAIdentifyData+27;
    for (int cnt=0;cnt<40;cnt+=2)
 1000c26:	39 d8                	cmp    eax,ebx
 1000c28:	75 e6                	jne    1000c10 <ataGetModelFromIdentify+0x12>
/home/yogi/src/os/chrisOSKernel/../chrisOS/src/init/ata_disk.c:250
    {
        devInfo->ATADeviceModel[cnt]=(*ident >> 8) & 0xFF;
        devInfo->ATADeviceModel[cnt+1]=(*ident++) & 0xFF;
    }
    devInfo->ATADeviceModel[79]='\0';
 1000c2a:	c6 86 4f 02 00 00 00 	mov    BYTE PTR [esi+0x24f],0x0
/home/yogi/src/os/chrisOSKernel/../chrisOS/src/init/ata_disk.c:251
}
 1000c31:	5b                   	pop    ebx
 1000c32:	5e                   	pop    esi
 1000c33:	c3                   	ret    

01000c34 <ataIdentify>:
ataIdentify():
/home/yogi/src/os/chrisOSKernel/../chrisOS/src/init/ata_disk.c:254

int ataIdentify(struct ataDeviceInfo_t* devInfo)
{
 1000c34:	56                   	push   esi
 1000c35:	53                   	push   ebx
 1000c36:	83 ec 04             	sub    esp,0x4
 1000c39:	8b 74 24 10          	mov    esi,DWORD PTR [esp+0x10]
/home/yogi/src/os/chrisOSKernel/../chrisOS/src/init/ata_disk.c:256
    //For ATA devices, read the identity data.  For SATA, we've already read it into ATAIdentityData
    if (devInfo->queryATAData)
 1000c3d:	80 be 50 02 00 00 00 	cmp    BYTE PTR [esi+0x250],0x0
 1000c44:	74 5c                	je     1000ca2 <ataIdentify+0x6e>
/home/yogi/src/os/chrisOSKernel/../chrisOS/src/init/ata_disk.c:258
    {
        if (useCDROMIdentify)
 1000c46:	80 3d 78 4a 01 01 00 	cmp    BYTE PTR ds:0x1014a78,0x0
 1000c4d:	74 12                	je     1000c61 <ataIdentify+0x2d>
outb():
/home/yogi/src/os/chrisOSKernel/include/io.h:23
void IRQ_set_mask(unsigned char IRQline);
void IRQ_clear_mask(unsigned char IRQline);

static __inline void outb(unsigned short __port, unsigned char __val)
{
	__asm__ volatile ("outb %1, %0" : : "a" (__val), "dN" (__port));
 1000c4f:	0f b7 86 69 02 00 00 	movzx  eax,WORD PTR [esi+0x269]
 1000c56:	8d 50 07             	lea    edx,[eax+0x7]
 1000c59:	b8 a1 ff ff ff       	mov    eax,0xffffffa1
 1000c5e:	ee                   	out    dx,al
 1000c5f:	eb 10                	jmp    1000c71 <ataIdentify+0x3d>
 1000c61:	0f b7 86 69 02 00 00 	movzx  eax,WORD PTR [esi+0x269]
 1000c68:	8d 50 07             	lea    edx,[eax+0x7]
 1000c6b:	b8 ec ff ff ff       	mov    eax,0xffffffec
 1000c70:	ee                   	out    dx,al
ataIdentify():
/home/yogi/src/os/chrisOSKernel/../chrisOS/src/init/ata_disk.c:262
            outb(devInfo->ioPort+ATA_PORT_COMMAND, ATA_IDENTIFY_CDROM_COMMAND);
        else
            outb(devInfo->ioPort+ATA_PORT_COMMAND, ATA_IDENTIFY_COMMAND);
        wait(ATA_STANDARD_WAIT_MS*kTicksPerMS);
 1000c71:	83 ec 0c             	sub    esp,0xc
 1000c74:	a1 84 02 12 00       	mov    eax,ds:0x120284
 1000c79:	8d 04 80             	lea    eax,[eax+eax*4]
 1000c7c:	01 c0                	add    eax,eax
 1000c7e:	50                   	push   eax
 1000c7f:	e8 a0 22 00 00       	call   1002f24 <wait>
 1000c84:	0f b7 96 69 02 00 00 	movzx  edx,WORD PTR [esi+0x269]
 1000c8b:	89 f1                	mov    ecx,esi
 1000c8d:	8d 9e 00 02 00 00    	lea    ebx,[esi+0x200]
 1000c93:	83 c4 10             	add    esp,0x10
inw():
/home/yogi/src/os/chrisOSKernel/include/io.h:46 (discriminator 3)
}

static __inline unsigned short inw(unsigned short __port)
{
	unsigned short __val;
	__asm__ volatile ("inw %0, %1" : "=a" (__val) : "dN" (__port));
 1000c96:	66 ed                	in     ax,dx
ataIdentify():
/home/yogi/src/os/chrisOSKernel/../chrisOS/src/init/ata_disk.c:265 (discriminator 3)
        for (int readCount=0;readCount<=255;readCount++)
        {
            devInfo->ATAIdentifyData[readCount]=inw(devInfo->ioPort+ATA_PORT_DATA);
 1000c98:	66 89 01             	mov    WORD PTR [ecx],ax
 1000c9b:	83 c1 02             	add    ecx,0x2
/home/yogi/src/os/chrisOSKernel/../chrisOS/src/init/ata_disk.c:263 (discriminator 3)
        if (useCDROMIdentify)
            outb(devInfo->ioPort+ATA_PORT_COMMAND, ATA_IDENTIFY_CDROM_COMMAND);
        else
            outb(devInfo->ioPort+ATA_PORT_COMMAND, ATA_IDENTIFY_COMMAND);
        wait(ATA_STANDARD_WAIT_MS*kTicksPerMS);
        for (int readCount=0;readCount<=255;readCount++)
 1000c9e:	39 d9                	cmp    ecx,ebx
 1000ca0:	75 f4                	jne    1000c96 <ataIdentify+0x62>
/home/yogi/src/os/chrisOSKernel/../chrisOS/src/init/ata_disk.c:268
        {
            devInfo->ATAIdentifyData[readCount]=inw(devInfo->ioPort+ATA_PORT_DATA);
        }
    }
    ataGetModelFromIdentify(devInfo);
 1000ca2:	83 ec 0c             	sub    esp,0xc
 1000ca5:	56                   	push   esi
 1000ca6:	e8 53 ff ff ff       	call   1000bfe <ataGetModelFromIdentify>
/home/yogi/src/os/chrisOSKernel/../chrisOS/src/init/ata_disk.c:269
    devInfo->totalSectorCount = devInfo->ATAIdentifyData[60] | (devInfo->ATAIdentifyData[61]<<16);
 1000cab:	0f b7 46 7a          	movzx  eax,WORD PTR [esi+0x7a]
 1000caf:	c1 e0 10             	shl    eax,0x10
 1000cb2:	0f b7 56 78          	movzx  edx,WORD PTR [esi+0x78]
 1000cb6:	09 d0                	or     eax,edx
 1000cb8:	89 86 56 02 00 00    	mov    DWORD PTR [esi+0x256],eax
/home/yogi/src/os/chrisOSKernel/../chrisOS/src/init/ata_disk.c:270
    devInfo->sectorSize = (devInfo->ATAIdentifyData[106] & 1<<12)==1<<12
 1000cbe:	83 c4 10             	add    esp,0x10
 1000cc1:	b8 00 02 00 00       	mov    eax,0x200
 1000cc6:	f6 86 d5 00 00 00 10 	test   BYTE PTR [esi+0xd5],0x10
 1000ccd:	74 12                	je     1000ce1 <ataIdentify+0xad>
/home/yogi/src/os/chrisOSKernel/../chrisOS/src/init/ata_disk.c:270 (discriminator 1)
 1000ccf:	0f b7 46 24          	movzx  eax,WORD PTR [esi+0x24]
 1000cd3:	c1 e0 10             	shl    eax,0x10
 1000cd6:	89 c2                	mov    edx,eax
 1000cd8:	0f b7 86 ea 00 00 00 	movzx  eax,WORD PTR [esi+0xea]
 1000cdf:	09 d0                	or     eax,edx
/home/yogi/src/os/chrisOSKernel/../chrisOS/src/init/ata_disk.c:270 (discriminator 4)
 1000ce1:	89 86 5a 02 00 00    	mov    DWORD PTR [esi+0x25a],eax
/home/yogi/src/os/chrisOSKernel/../chrisOS/src/init/ata_disk.c:273 (discriminator 4)
            ?devInfo->ATAIdentifyData[117] | (devInfo->ATAIdentifyData[18]<<16)
            :512;
    devInfo->dmaSupported=devInfo->ATAIdentifyData[49]>>8 & 0x1;
 1000ce7:	0f b7 46 62          	movzx  eax,WORD PTR [esi+0x62]
 1000ceb:	89 c2                	mov    edx,eax
 1000ced:	66 c1 ea 08          	shr    dx,0x8
 1000cf1:	83 e2 01             	and    edx,0x1
 1000cf4:	88 96 60 02 00 00    	mov    BYTE PTR [esi+0x260],dl
/home/yogi/src/os/chrisOSKernel/../chrisOS/src/init/ata_disk.c:274 (discriminator 4)
    devInfo->lbaSupported=devInfo->ATAIdentifyData[49]>>9 & 0x1;
 1000cfa:	66 c1 e8 09          	shr    ax,0x9
 1000cfe:	83 e0 01             	and    eax,0x1
 1000d01:	88 86 5e 02 00 00    	mov    BYTE PTR [esi+0x25e],al
/home/yogi/src/os/chrisOSKernel/../chrisOS/src/init/ata_disk.c:275 (discriminator 4)
    devInfo->lba48Supported=devInfo->ATAIdentifyData[83]>>10 & 0x1;
 1000d07:	0f b7 86 a6 00 00 00 	movzx  eax,WORD PTR [esi+0xa6]
 1000d0e:	66 c1 e8 0a          	shr    ax,0xa
 1000d12:	83 e0 01             	and    eax,0x1
 1000d15:	88 86 5f 02 00 00    	mov    BYTE PTR [esi+0x25f],al
/home/yogi/src/os/chrisOSKernel/../chrisOS/src/init/ata_disk.c:278 (discriminator 4)
    
#ifndef DEBUG_NONE
    if ((kDebugLevel & DEBUG_HARDDRIVE) == DEBUG_HARDDRIVE)
 1000d1b:	f6 05 38 03 12 00 08 	test   BYTE PTR ds:0x120338,0x8
 1000d22:	74 1d                	je     1000d41 <ataIdentify+0x10d>
/home/yogi/src/os/chrisOSKernel/../chrisOS/src/init/ata_disk.c:279
        printk("drive %d, model=%s\n",devInfo->driveNo, devInfo->ATADeviceModel);
 1000d24:	83 ec 04             	sub    esp,0x4
 1000d27:	8d 86 00 02 00 00    	lea    eax,[esi+0x200]
 1000d2d:	50                   	push   eax
 1000d2e:	ff b6 65 02 00 00    	push   DWORD PTR [esi+0x265]
 1000d34:	68 e6 76 00 01       	push   0x10076e6
 1000d39:	e8 3d 18 00 00       	call   100257b <printk>
 1000d3e:	83 c4 10             	add    esp,0x10
/home/yogi/src/os/chrisOSKernel/../chrisOS/src/init/ata_disk.c:282
#endif
    return 1;
}
 1000d41:	b8 01 00 00 00       	mov    eax,0x1
 1000d46:	83 c4 04             	add    esp,0x4
 1000d49:	5b                   	pop    ebx
 1000d4a:	5e                   	pop    esi
 1000d4b:	c3                   	ret    

01000d4c <ataScanForHarddrives>:
ataScanForHarddrives():
/home/yogi/src/os/chrisOSKernel/../chrisOS/src/init/ata_disk.c:285

int ataScanForHarddrives()
{
 1000d4c:	53                   	push   ebx
 1000d4d:	83 ec 14             	sub    esp,0x14
/home/yogi/src/os/chrisOSKernel/../chrisOS/src/init/ata_disk.c:286
    kATADeviceInfo[0].bus=ATAPrimary;
 1000d50:	8b 1d c0 02 12 00    	mov    ebx,DWORD PTR ds:0x1202c0
 1000d56:	c7 83 61 02 00 00 00 	mov    DWORD PTR [ebx+0x261],0x0
 1000d5d:	00 00 00 
/home/yogi/src/os/chrisOSKernel/../chrisOS/src/init/ata_disk.c:287
    kATADeviceInfo[0].driveNo=0;
 1000d60:	c7 83 65 02 00 00 00 	mov    DWORD PTR [ebx+0x265],0x0
 1000d67:	00 00 00 
/home/yogi/src/os/chrisOSKernel/../chrisOS/src/init/ata_disk.c:288
    kATADeviceInfo[0].ioPort=0x1F0;
 1000d6a:	c7 83 69 02 00 00 f0 	mov    DWORD PTR [ebx+0x269],0x1f0
 1000d71:	01 00 00 
/home/yogi/src/os/chrisOSKernel/../chrisOS/src/init/ata_disk.c:289
    kATADeviceInfo[0].irqNum=0x14;
 1000d74:	c6 83 6d 02 00 00 14 	mov    BYTE PTR [ebx+0x26d],0x14
/home/yogi/src/os/chrisOSKernel/../chrisOS/src/init/ata_disk.c:290
    kATADeviceInfo[0].driveHeadPortDesignation=0xA0;
 1000d7b:	c6 83 6e 02 00 00 a0 	mov    BYTE PTR [ebx+0x26e],0xa0
/home/yogi/src/os/chrisOSKernel/../chrisOS/src/init/ata_disk.c:291
    kATADeviceInfo[0].queryATAData=true;
 1000d82:	c6 83 50 02 00 00 01 	mov    BYTE PTR [ebx+0x250],0x1
/home/yogi/src/os/chrisOSKernel/../chrisOS/src/init/ata_disk.c:292
    kATADeviceInfo[0].ATADeviceAvailable=ataInit(&kATADeviceInfo[0]);
 1000d89:	53                   	push   ebx
 1000d8a:	e8 af fb ff ff       	call   100093e <ataInit>
 1000d8f:	88 83 51 02 00 00    	mov    BYTE PTR [ebx+0x251],al
/home/yogi/src/os/chrisOSKernel/../chrisOS/src/init/ata_disk.c:293
    if (kATADeviceInfo[0].ATADeviceAvailable)
 1000d95:	a1 c0 02 12 00       	mov    eax,ds:0x1202c0
 1000d9a:	83 c4 10             	add    esp,0x10
 1000d9d:	80 b8 51 02 00 00 00 	cmp    BYTE PTR [eax+0x251],0x0
 1000da4:	74 35                	je     1000ddb <ataScanForHarddrives+0x8f>
/home/yogi/src/os/chrisOSKernel/../chrisOS/src/init/ata_disk.c:295
    {
        ataIdentify(&kATADeviceInfo[0]);
 1000da6:	83 ec 0c             	sub    esp,0xc
 1000da9:	50                   	push   eax
 1000daa:	e8 85 fe ff ff       	call   1000c34 <ataIdentify>
/home/yogi/src/os/chrisOSKernel/../chrisOS/src/init/ata_disk.c:296
        if (useCDROMIdentify)
 1000daf:	83 c4 10             	add    esp,0x10
 1000db2:	80 3d 78 4a 01 01 00 	cmp    BYTE PTR ds:0x1014a78,0x0
 1000db9:	74 11                	je     1000dcc <ataScanForHarddrives+0x80>
/home/yogi/src/os/chrisOSKernel/../chrisOS/src/init/ata_disk.c:297
            kATADeviceInfo[0].ATADeviceType=ATA_DEVICE_TYPE_CD;
 1000dbb:	a1 c0 02 12 00       	mov    eax,ds:0x1202c0
 1000dc0:	c7 80 52 02 00 00 01 	mov    DWORD PTR [eax+0x252],0x1
 1000dc7:	00 00 00 
 1000dca:	eb 0f                	jmp    1000ddb <ataScanForHarddrives+0x8f>
/home/yogi/src/os/chrisOSKernel/../chrisOS/src/init/ata_disk.c:299
        else
            kATADeviceInfo[0].ATADeviceType=ATA_DEVICE_TYPE_HD;
 1000dcc:	a1 c0 02 12 00       	mov    eax,ds:0x1202c0
 1000dd1:	c7 80 52 02 00 00 00 	mov    DWORD PTR [eax+0x252],0x0
 1000dd8:	00 00 00 
/home/yogi/src/os/chrisOSKernel/../chrisOS/src/init/ata_disk.c:301
    }
    useCDROMIdentify=false;
 1000ddb:	c6 05 78 4a 01 01 00 	mov    BYTE PTR ds:0x1014a78,0x0
/home/yogi/src/os/chrisOSKernel/../chrisOS/src/init/ata_disk.c:303

    kATADeviceInfo[1].bus=ATAPrimary;
 1000de2:	8b 1d c0 02 12 00    	mov    ebx,DWORD PTR ds:0x1202c0
 1000de8:	c7 83 d4 04 00 00 00 	mov    DWORD PTR [ebx+0x4d4],0x0
 1000def:	00 00 00 
/home/yogi/src/os/chrisOSKernel/../chrisOS/src/init/ata_disk.c:304
    kATADeviceInfo[1].driveNo=1;
 1000df2:	c7 83 d8 04 00 00 01 	mov    DWORD PTR [ebx+0x4d8],0x1
 1000df9:	00 00 00 
/home/yogi/src/os/chrisOSKernel/../chrisOS/src/init/ata_disk.c:305
    kATADeviceInfo[1].ioPort=0x1F0;
 1000dfc:	c7 83 dc 04 00 00 f0 	mov    DWORD PTR [ebx+0x4dc],0x1f0
 1000e03:	01 00 00 
/home/yogi/src/os/chrisOSKernel/../chrisOS/src/init/ata_disk.c:306
    kATADeviceInfo[1].irqNum=0x14;
 1000e06:	c6 83 e0 04 00 00 14 	mov    BYTE PTR [ebx+0x4e0],0x14
/home/yogi/src/os/chrisOSKernel/../chrisOS/src/init/ata_disk.c:307
    kATADeviceInfo[1].driveHeadPortDesignation=0xB0;
 1000e0d:	c6 83 e1 04 00 00 b0 	mov    BYTE PTR [ebx+0x4e1],0xb0
/home/yogi/src/os/chrisOSKernel/../chrisOS/src/init/ata_disk.c:308
    kATADeviceInfo[1].queryATAData=true;
 1000e14:	c6 83 c3 04 00 00 01 	mov    BYTE PTR [ebx+0x4c3],0x1
/home/yogi/src/os/chrisOSKernel/../chrisOS/src/init/ata_disk.c:309
    kATADeviceInfo[1].ATADeviceAvailable=ataInit(&kATADeviceInfo[1]);
 1000e1b:	83 ec 0c             	sub    esp,0xc
 1000e1e:	8d 83 73 02 00 00    	lea    eax,[ebx+0x273]
 1000e24:	50                   	push   eax
 1000e25:	e8 14 fb ff ff       	call   100093e <ataInit>
 1000e2a:	88 83 c4 04 00 00    	mov    BYTE PTR [ebx+0x4c4],al
/home/yogi/src/os/chrisOSKernel/../chrisOS/src/init/ata_disk.c:310
    if (kATADeviceInfo[1].ATADeviceAvailable)
 1000e30:	a1 c0 02 12 00       	mov    eax,ds:0x1202c0
 1000e35:	83 c4 10             	add    esp,0x10
 1000e38:	80 b8 c4 04 00 00 00 	cmp    BYTE PTR [eax+0x4c4],0x0
 1000e3f:	74 3a                	je     1000e7b <ataScanForHarddrives+0x12f>
/home/yogi/src/os/chrisOSKernel/../chrisOS/src/init/ata_disk.c:312
    {
        ataIdentify(&kATADeviceInfo[1]);
 1000e41:	83 ec 0c             	sub    esp,0xc
 1000e44:	05 73 02 00 00       	add    eax,0x273
 1000e49:	50                   	push   eax
 1000e4a:	e8 e5 fd ff ff       	call   1000c34 <ataIdentify>
/home/yogi/src/os/chrisOSKernel/../chrisOS/src/init/ata_disk.c:313
        if (useCDROMIdentify)
 1000e4f:	83 c4 10             	add    esp,0x10
 1000e52:	80 3d 78 4a 01 01 00 	cmp    BYTE PTR ds:0x1014a78,0x0
 1000e59:	74 11                	je     1000e6c <ataScanForHarddrives+0x120>
/home/yogi/src/os/chrisOSKernel/../chrisOS/src/init/ata_disk.c:314
            kATADeviceInfo[1].ATADeviceType=ATA_DEVICE_TYPE_CD;
 1000e5b:	a1 c0 02 12 00       	mov    eax,ds:0x1202c0
 1000e60:	c7 80 c5 04 00 00 01 	mov    DWORD PTR [eax+0x4c5],0x1
 1000e67:	00 00 00 
 1000e6a:	eb 0f                	jmp    1000e7b <ataScanForHarddrives+0x12f>
/home/yogi/src/os/chrisOSKernel/../chrisOS/src/init/ata_disk.c:316
        else
            kATADeviceInfo[1].ATADeviceType=ATA_DEVICE_TYPE_HD;
 1000e6c:	a1 c0 02 12 00       	mov    eax,ds:0x1202c0
 1000e71:	c7 80 c5 04 00 00 00 	mov    DWORD PTR [eax+0x4c5],0x0
 1000e78:	00 00 00 
/home/yogi/src/os/chrisOSKernel/../chrisOS/src/init/ata_disk.c:318
    }
    kATADeviceInfo[2].bus=ATASecondary;
 1000e7b:	8b 1d c0 02 12 00    	mov    ebx,DWORD PTR ds:0x1202c0
 1000e81:	c7 83 47 07 00 00 01 	mov    DWORD PTR [ebx+0x747],0x1
 1000e88:	00 00 00 
/home/yogi/src/os/chrisOSKernel/../chrisOS/src/init/ata_disk.c:319
    kATADeviceInfo[2].driveNo=2;
 1000e8b:	c7 83 4b 07 00 00 02 	mov    DWORD PTR [ebx+0x74b],0x2
 1000e92:	00 00 00 
/home/yogi/src/os/chrisOSKernel/../chrisOS/src/init/ata_disk.c:320
    kATADeviceInfo[2].ioPort=0x170;
 1000e95:	c7 83 4f 07 00 00 70 	mov    DWORD PTR [ebx+0x74f],0x170
 1000e9c:	01 00 00 
/home/yogi/src/os/chrisOSKernel/../chrisOS/src/init/ata_disk.c:321
    kATADeviceInfo[2].irqNum=0x15;
 1000e9f:	c6 83 53 07 00 00 15 	mov    BYTE PTR [ebx+0x753],0x15
/home/yogi/src/os/chrisOSKernel/../chrisOS/src/init/ata_disk.c:322
    kATADeviceInfo[2].driveHeadPortDesignation=0xA0;
 1000ea6:	c6 83 54 07 00 00 a0 	mov    BYTE PTR [ebx+0x754],0xa0
/home/yogi/src/os/chrisOSKernel/../chrisOS/src/init/ata_disk.c:323
    kATADeviceInfo[2].queryATAData=false;
 1000ead:	c6 83 36 07 00 00 00 	mov    BYTE PTR [ebx+0x736],0x0
/home/yogi/src/os/chrisOSKernel/../chrisOS/src/init/ata_disk.c:324
    kATADeviceInfo[2].ATADeviceAvailable=ataInit(&kATADeviceInfo[2]);
 1000eb4:	83 ec 0c             	sub    esp,0xc
 1000eb7:	8d 83 e6 04 00 00    	lea    eax,[ebx+0x4e6]
 1000ebd:	50                   	push   eax
 1000ebe:	e8 7b fa ff ff       	call   100093e <ataInit>
 1000ec3:	88 83 37 07 00 00    	mov    BYTE PTR [ebx+0x737],al
/home/yogi/src/os/chrisOSKernel/../chrisOS/src/init/ata_disk.c:325
    if (kATADeviceInfo[2].ATADeviceAvailable)
 1000ec9:	a1 c0 02 12 00       	mov    eax,ds:0x1202c0
 1000ece:	83 c4 10             	add    esp,0x10
 1000ed1:	80 b8 37 07 00 00 00 	cmp    BYTE PTR [eax+0x737],0x0
 1000ed8:	74 3a                	je     1000f14 <ataScanForHarddrives+0x1c8>
/home/yogi/src/os/chrisOSKernel/../chrisOS/src/init/ata_disk.c:327
    {
        ataIdentify(&kATADeviceInfo[2]);
 1000eda:	83 ec 0c             	sub    esp,0xc
 1000edd:	05 e6 04 00 00       	add    eax,0x4e6
 1000ee2:	50                   	push   eax
 1000ee3:	e8 4c fd ff ff       	call   1000c34 <ataIdentify>
/home/yogi/src/os/chrisOSKernel/../chrisOS/src/init/ata_disk.c:328
        if (useCDROMIdentify)
 1000ee8:	83 c4 10             	add    esp,0x10
 1000eeb:	80 3d 78 4a 01 01 00 	cmp    BYTE PTR ds:0x1014a78,0x0
 1000ef2:	74 11                	je     1000f05 <ataScanForHarddrives+0x1b9>
/home/yogi/src/os/chrisOSKernel/../chrisOS/src/init/ata_disk.c:329
            kATADeviceInfo[2].ATADeviceType=ATA_DEVICE_TYPE_CD;
 1000ef4:	a1 c0 02 12 00       	mov    eax,ds:0x1202c0
 1000ef9:	c7 80 38 07 00 00 01 	mov    DWORD PTR [eax+0x738],0x1
 1000f00:	00 00 00 
 1000f03:	eb 0f                	jmp    1000f14 <ataScanForHarddrives+0x1c8>
/home/yogi/src/os/chrisOSKernel/../chrisOS/src/init/ata_disk.c:331
        else
            kATADeviceInfo[2].ATADeviceType=ATA_DEVICE_TYPE_HD;
 1000f05:	a1 c0 02 12 00       	mov    eax,ds:0x1202c0
 1000f0a:	c7 80 38 07 00 00 00 	mov    DWORD PTR [eax+0x738],0x0
 1000f11:	00 00 00 
/home/yogi/src/os/chrisOSKernel/../chrisOS/src/init/ata_disk.c:334
    }

    kATADeviceInfo[3].bus=ATASecondary;
 1000f14:	8b 1d c0 02 12 00    	mov    ebx,DWORD PTR ds:0x1202c0
 1000f1a:	c7 83 ba 09 00 00 01 	mov    DWORD PTR [ebx+0x9ba],0x1
 1000f21:	00 00 00 
/home/yogi/src/os/chrisOSKernel/../chrisOS/src/init/ata_disk.c:335
    kATADeviceInfo[3].driveNo=3;
 1000f24:	c7 83 be 09 00 00 03 	mov    DWORD PTR [ebx+0x9be],0x3
 1000f2b:	00 00 00 
/home/yogi/src/os/chrisOSKernel/../chrisOS/src/init/ata_disk.c:336
    kATADeviceInfo[3].ioPort=0x170;
 1000f2e:	c7 83 c2 09 00 00 70 	mov    DWORD PTR [ebx+0x9c2],0x170
 1000f35:	01 00 00 
/home/yogi/src/os/chrisOSKernel/../chrisOS/src/init/ata_disk.c:337
    kATADeviceInfo[3].irqNum=0x15;
 1000f38:	c6 83 c6 09 00 00 15 	mov    BYTE PTR [ebx+0x9c6],0x15
/home/yogi/src/os/chrisOSKernel/../chrisOS/src/init/ata_disk.c:338
    kATADeviceInfo[3].driveHeadPortDesignation=0xB0;
 1000f3f:	c6 83 c7 09 00 00 b0 	mov    BYTE PTR [ebx+0x9c7],0xb0
/home/yogi/src/os/chrisOSKernel/../chrisOS/src/init/ata_disk.c:339
    kATADeviceInfo[3].queryATAData=true;
 1000f46:	c6 83 a9 09 00 00 01 	mov    BYTE PTR [ebx+0x9a9],0x1
/home/yogi/src/os/chrisOSKernel/../chrisOS/src/init/ata_disk.c:340
    kATADeviceInfo[3].ATADeviceAvailable=ataInit(&kATADeviceInfo[3]);
 1000f4d:	83 ec 0c             	sub    esp,0xc
 1000f50:	8d 83 59 07 00 00    	lea    eax,[ebx+0x759]
 1000f56:	50                   	push   eax
 1000f57:	e8 e2 f9 ff ff       	call   100093e <ataInit>
 1000f5c:	88 83 aa 09 00 00    	mov    BYTE PTR [ebx+0x9aa],al
/home/yogi/src/os/chrisOSKernel/../chrisOS/src/init/ata_disk.c:341
    if (kATADeviceInfo[3].ATADeviceAvailable)
 1000f62:	a1 c0 02 12 00       	mov    eax,ds:0x1202c0
 1000f67:	83 c4 10             	add    esp,0x10
 1000f6a:	80 b8 aa 09 00 00 00 	cmp    BYTE PTR [eax+0x9aa],0x0
 1000f71:	74 3a                	je     1000fad <ataScanForHarddrives+0x261>
/home/yogi/src/os/chrisOSKernel/../chrisOS/src/init/ata_disk.c:343
    {
        ataIdentify(&kATADeviceInfo[3]);
 1000f73:	83 ec 0c             	sub    esp,0xc
 1000f76:	05 59 07 00 00       	add    eax,0x759
 1000f7b:	50                   	push   eax
 1000f7c:	e8 b3 fc ff ff       	call   1000c34 <ataIdentify>
/home/yogi/src/os/chrisOSKernel/../chrisOS/src/init/ata_disk.c:344
        if (useCDROMIdentify)
 1000f81:	83 c4 10             	add    esp,0x10
 1000f84:	80 3d 78 4a 01 01 00 	cmp    BYTE PTR ds:0x1014a78,0x0
 1000f8b:	74 11                	je     1000f9e <ataScanForHarddrives+0x252>
/home/yogi/src/os/chrisOSKernel/../chrisOS/src/init/ata_disk.c:345
            kATADeviceInfo[3].ATADeviceType=ATA_DEVICE_TYPE_CD;
 1000f8d:	a1 c0 02 12 00       	mov    eax,ds:0x1202c0
 1000f92:	c7 80 ab 09 00 00 01 	mov    DWORD PTR [eax+0x9ab],0x1
 1000f99:	00 00 00 
 1000f9c:	eb 0f                	jmp    1000fad <ataScanForHarddrives+0x261>
/home/yogi/src/os/chrisOSKernel/../chrisOS/src/init/ata_disk.c:347
        else
            kATADeviceInfo[3].ATADeviceType=ATA_DEVICE_TYPE_HD;
 1000f9e:	a1 c0 02 12 00       	mov    eax,ds:0x1202c0
 1000fa3:	c7 80 ab 09 00 00 00 	mov    DWORD PTR [eax+0x9ab],0x0
 1000faa:	00 00 00 
/home/yogi/src/os/chrisOSKernel/../chrisOS/src/init/ata_disk.c:351
    }

#ifndef DEBUG_NONE
    if ((kDebugLevel & DEBUG_HARDDRIVE) == DEBUG_HARDDRIVE)
 1000fad:	f6 05 38 03 12 00 08 	test   BYTE PTR ds:0x120338,0x8
 1000fb4:	74 22                	je     1000fd8 <ataScanForHarddrives+0x28c>
/home/yogi/src/os/chrisOSKernel/../chrisOS/src/init/ata_disk.c:352
        printk("INIT: Disk1=%s  Disk2=%s\n", kATADeviceInfo[0].ATADeviceModel, kATADeviceInfo[1].ATADeviceModel);
 1000fb6:	a1 c0 02 12 00       	mov    eax,ds:0x1202c0
 1000fbb:	83 ec 04             	sub    esp,0x4
 1000fbe:	8d 90 73 04 00 00    	lea    edx,[eax+0x473]
 1000fc4:	52                   	push   edx
 1000fc5:	05 00 02 00 00       	add    eax,0x200
 1000fca:	50                   	push   eax
 1000fcb:	68 fa 76 00 01       	push   0x10076fa
 1000fd0:	e8 a6 15 00 00       	call   100257b <printk>
 1000fd5:	83 c4 10             	add    esp,0x10
/home/yogi/src/os/chrisOSKernel/../chrisOS/src/init/ata_disk.c:355
#endif
            return 0;
}
 1000fd8:	b8 00 00 00 00       	mov    eax,0x0
 1000fdd:	83 c4 08             	add    esp,0x8
 1000fe0:	5b                   	pop    ebx
 1000fe1:	c3                   	ret    

01000fe2 <ataBlockingRead28>:
ataBlockingRead28():
/home/yogi/src/os/chrisOSKernel/../chrisOS/src/init/ata_disk.c:365
        return -1;
    return ataBlockingRead28(sector, buffer, sector_count);
}

int ataBlockingRead28(uint32_t sector, uint8_t *buffer, uint32_t sector_count)
{
 1000fe2:	55                   	push   ebp
 1000fe3:	57                   	push   edi
 1000fe4:	56                   	push   esi
 1000fe5:	53                   	push   ebx
 1000fe6:	83 ec 1c             	sub    esp,0x1c
 1000fe9:	8b 74 24 34          	mov    esi,DWORD PTR [esp+0x34]
/home/yogi/src/os/chrisOSKernel/../chrisOS/src/init/ata_disk.c:370
    //For now if the FAT library calls this, we assume we've already read the same partition most recently
    int lResult=0;
    uint8_t* bufp=buffer;
    uint32_t lSectorsLeft=sector_count;
    uint32_t lSector=sector+partOffset; //this represents the start of the partition
 1000fed:	a1 70 4a 01 01       	mov    eax,ds:0x1014a70
 1000ff2:	03 44 24 30          	add    eax,DWORD PTR [esp+0x30]
 1000ff6:	89 c5                	mov    ebp,eax
/home/yogi/src/os/chrisOSKernel/../chrisOS/src/init/ata_disk.c:373

#ifndef DEBUG_NONE
        if ((kDebugLevel & DEBUG_HARDDRIVE) == DEBUG_HARDDRIVE)
 1000ff8:	f6 05 38 03 12 00 08 	test   BYTE PTR ds:0x120338,0x8
 1000fff:	74 18                	je     1001019 <ataBlockingRead28+0x37>
/home/yogi/src/os/chrisOSKernel/../chrisOS/src/init/ata_disk.c:375
        {
            printk("ataBlockingRead28: sec: 0x%08X, buf 0x%08X, cnt 0x%08X\n", lSector, bufp, sector_count);
 1001001:	ff 74 24 38          	push   DWORD PTR [esp+0x38]
 1001005:	56                   	push   esi
 1001006:	50                   	push   eax
 1001007:	68 84 7c 00 01       	push   0x1007c84
 100100c:	e8 6a 15 00 00       	call   100257b <printk>
/home/yogi/src/os/chrisOSKernel/../chrisOS/src/init/ata_disk.c:376
            waitForKeyboardKey();
 1001011:	e8 a2 f4 ff ff       	call   10004b8 <waitForKeyboardKey>
 1001016:	83 c4 10             	add    esp,0x10
/home/yogi/src/os/chrisOSKernel/../chrisOS/src/init/ata_disk.c:379
        }
#endif
    lResult=ataWaitForIdle(atablockingReadDev);
 1001019:	83 ec 0c             	sub    esp,0xc
 100101c:	ff 35 20 a0 00 01    	push   DWORD PTR ds:0x100a020
 1001022:	e8 cc f6 ff ff       	call   10006f3 <ataWaitForIdle>
 1001027:	0f b6 c0             	movzx  eax,al
/home/yogi/src/os/chrisOSKernel/../chrisOS/src/init/ata_disk.c:380
    if (lResult)
 100102a:	83 c4 10             	add    esp,0x10
 100102d:	85 c0                	test   eax,eax
 100102f:	74 11                	je     1001042 <ataBlockingRead28+0x60>
/home/yogi/src/os/chrisOSKernel/../chrisOS/src/init/ata_disk.c:381
        panic("ataBlockingRead28: Timeout waiting for DRQ and BSY to be clear (0x%02X)", lResult);
 1001031:	83 ec 08             	sub    esp,0x8
 1001034:	50                   	push   eax
 1001035:	68 bc 7c 00 01       	push   0x1007cbc
 100103a:	e8 b5 10 00 00       	call   10020f4 <panic>
 100103f:	83 c4 10             	add    esp,0x10
/home/yogi/src/os/chrisOSKernel/../chrisOS/src/init/ata_disk.c:386
        //Select the drive we want
        //NOTE: Drive selected prior to calling this function
        //ataSelectDrive(drive,0);
        //Magic bit (6) to set LBA mode and top 4 bits of LBA28 sector # go in bottom 4
    outb(atablockingReadDev->ioPort+ATA_DRIVE_SELECT, inb(atablockingReadDev->ioPort+ATA_DRIVE_SELECT) | (1 << 6) | ((lSector >> 24) & 0x0F));
 1001042:	8b 1d 20 a0 00 01    	mov    ebx,DWORD PTR ds:0x100a020
 1001048:	8b 8b 69 02 00 00    	mov    ecx,DWORD PTR [ebx+0x269]
 100104e:	8d 51 06             	lea    edx,[ecx+0x6]
inb():
/home/yogi/src/os/chrisOSKernel/include/io.h:39
}

static __inline unsigned char inb(unsigned short __port)
{
	unsigned char __val;
	__asm__ volatile ("inb %0, %1" : "=a" (__val) : "dN" (__port));
 1001051:	ec                   	in     al,dx
 1001052:	89 c7                	mov    edi,eax
outb():
/home/yogi/src/os/chrisOSKernel/include/io.h:23
void IRQ_set_mask(unsigned char IRQline);
void IRQ_clear_mask(unsigned char IRQline);

static __inline void outb(unsigned short __port, unsigned char __val)
{
	__asm__ volatile ("outb %1, %0" : : "a" (__val), "dN" (__port));
 1001054:	89 e8                	mov    eax,ebp
 1001056:	c1 e8 18             	shr    eax,0x18
 1001059:	83 e0 0f             	and    eax,0xf
 100105c:	83 c8 40             	or     eax,0x40
 100105f:	09 f8                	or     eax,edi
 1001061:	ee                   	out    dx,al
 1001062:	8d 51 02             	lea    edx,[ecx+0x2]
 1001065:	0f b6 44 24 38       	movzx  eax,BYTE PTR [esp+0x38]
 100106a:	ee                   	out    dx,al
 100106b:	8d 51 03             	lea    edx,[ecx+0x3]
 100106e:	89 e8                	mov    eax,ebp
 1001070:	ee                   	out    dx,al
 1001071:	89 e8                	mov    eax,ebp
 1001073:	c1 e8 08             	shr    eax,0x8
 1001076:	8d 51 04             	lea    edx,[ecx+0x4]
 1001079:	ee                   	out    dx,al
 100107a:	89 e8                	mov    eax,ebp
 100107c:	c1 e8 10             	shr    eax,0x10
 100107f:	8d 51 05             	lea    edx,[ecx+0x5]
 1001082:	ee                   	out    dx,al
 1001083:	8d 51 07             	lea    edx,[ecx+0x7]
 1001086:	b8 20 00 00 00       	mov    eax,0x20
 100108b:	ee                   	out    dx,al
ataBlockingRead28():
/home/yogi/src/os/chrisOSKernel/../chrisOS/src/init/ata_disk.c:396
    //Send the LBA sector number in the next 3 fields + high bit in the 
    outb(atablockingReadDev->ioPort+ATA_PORT_SECTOR_NUMBER, (lSector) & 0xFF);
    outb(atablockingReadDev->ioPort+ATA_PORT_CYLINDER_LOW, (lSector >> 8) & 0xFF);
    outb(atablockingReadDev->ioPort+ATA_PORT_CYLINDER_HIGH, (lSector >> 16) & 0xFF);
    outb(atablockingReadDev->ioPort+ATA_PORT_COMMAND, ATA_COMMAND_READ_SECTOR);
    lResult=ataWaitForDRQ(atablockingReadDev, true, ATA_STANDARD_WAIT_MS*kTicksPerMS);
 100108c:	83 ec 04             	sub    esp,0x4
 100108f:	a1 84 02 12 00       	mov    eax,ds:0x120284
 1001094:	8d 04 80             	lea    eax,[eax+eax*4]
 1001097:	01 c0                	add    eax,eax
 1001099:	50                   	push   eax
 100109a:	6a 01                	push   0x1
 100109c:	53                   	push   ebx
 100109d:	e8 e2 f5 ff ff       	call   1000684 <ataWaitForDRQ>
 10010a2:	0f b6 c0             	movzx  eax,al
/home/yogi/src/os/chrisOSKernel/../chrisOS/src/init/ata_disk.c:397
    if (lResult)
 10010a5:	83 c4 10             	add    esp,0x10
 10010a8:	85 c0                	test   eax,eax
 10010aa:	74 17                	je     10010c3 <ataBlockingRead28+0xe1>
/home/yogi/src/os/chrisOSKernel/../chrisOS/src/init/ata_disk.c:398
        panic("ataBlockingRead28: Timeout waiting for DRQ to be set Stts=0x%02X, Err=0x%02X", lResult, hdError);
 10010ac:	83 ec 04             	sub    esp,0x4
 10010af:	ff 35 74 4a 01 01    	push   DWORD PTR ds:0x1014a74
 10010b5:	50                   	push   eax
 10010b6:	68 04 7d 00 01       	push   0x1007d04
 10010bb:	e8 34 10 00 00       	call   10020f4 <panic>
 10010c0:	83 c4 10             	add    esp,0x10
/home/yogi/src/os/chrisOSKernel/../chrisOS/src/init/ata_disk.c:399
    while (lSectorsLeft)
 10010c3:	83 7c 24 38 00       	cmp    DWORD PTR [esp+0x38],0x0
 10010c8:	0f 84 e7 00 00 00    	je     10011b5 <ataBlockingRead28+0x1d3>
 10010ce:	8b 44 24 38          	mov    eax,DWORD PTR [esp+0x38]
 10010d2:	89 44 24 0c          	mov    DWORD PTR [esp+0xc],eax
/home/yogi/src/os/chrisOSKernel/../chrisOS/src/init/ata_disk.c:401
    {
        insw(atablockingReadDev->ioPort+ATA_PORT_DATA, bufp, 256);
 10010d6:	a1 20 a0 00 01       	mov    eax,ds:0x100a020
insw():
/home/yogi/src/os/chrisOSKernel/include/io.h:87
		      : "d" (__port));
}

static __inline void insw(unsigned short __port, void *__buf, unsigned long __n)
{
	__asm__ volatile ("cld; rep; insw"
 10010db:	8b 90 69 02 00 00    	mov    edx,DWORD PTR [eax+0x269]
 10010e1:	89 f7                	mov    edi,esi
 10010e3:	b9 00 01 00 00       	mov    ecx,0x100
 10010e8:	fc                   	cld    
 10010e9:	f3 66 6d             	rep ins WORD PTR es:[edi],dx
ataBlockingRead28():
/home/yogi/src/os/chrisOSKernel/../chrisOS/src/init/ata_disk.c:403
        #ifndef DEBUG_NONE
            if ((kDebugLevel & DEBUG_HARDDRIVE) == DEBUG_HARDDRIVE)
 10010ec:	f6 05 38 03 12 00 08 	test   BYTE PTR ds:0x120338,0x8
 10010f3:	74 40                	je     1001135 <ataBlockingRead28+0x153>
/home/yogi/src/os/chrisOSKernel/../chrisOS/src/init/ata_disk.c:405
            {
                printk("ataBlockingRead28: Debugging: ");
 10010f5:	83 ec 0c             	sub    esp,0xc
 10010f8:	68 54 7d 00 01       	push   0x1007d54
 10010fd:	e8 79 14 00 00       	call   100257b <printk>
 1001102:	89 f3                	mov    ebx,esi
 1001104:	8d 7e 14             	lea    edi,[esi+0x14]
 1001107:	83 c4 10             	add    esp,0x10
/home/yogi/src/os/chrisOSKernel/../chrisOS/src/init/ata_disk.c:407 (discriminator 3)
                for (int cnt2=0;cnt2<20;cnt2++)
                    printk("%02X ", bufp[cnt2]);
 100110a:	83 ec 08             	sub    esp,0x8
 100110d:	0f b6 03             	movzx  eax,BYTE PTR [ebx]
 1001110:	50                   	push   eax
 1001111:	68 14 77 00 01       	push   0x1007714
 1001116:	e8 60 14 00 00       	call   100257b <printk>
 100111b:	83 c3 01             	add    ebx,0x1
/home/yogi/src/os/chrisOSKernel/../chrisOS/src/init/ata_disk.c:406 (discriminator 3)
        insw(atablockingReadDev->ioPort+ATA_PORT_DATA, bufp, 256);
        #ifndef DEBUG_NONE
            if ((kDebugLevel & DEBUG_HARDDRIVE) == DEBUG_HARDDRIVE)
            {
                printk("ataBlockingRead28: Debugging: ");
                for (int cnt2=0;cnt2<20;cnt2++)
 100111e:	83 c4 10             	add    esp,0x10
 1001121:	39 df                	cmp    edi,ebx
 1001123:	75 e5                	jne    100110a <ataBlockingRead28+0x128>
/home/yogi/src/os/chrisOSKernel/../chrisOS/src/init/ata_disk.c:408
                    printk("%02X ", bufp[cnt2]);
                printk("\n");
 1001125:	83 ec 0c             	sub    esp,0xc
 1001128:	68 66 7a 00 01       	push   0x1007a66
 100112d:	e8 49 14 00 00       	call   100257b <printk>
 1001132:	83 c4 10             	add    esp,0x10
/home/yogi/src/os/chrisOSKernel/../chrisOS/src/init/ata_disk.c:411
            }
        #endif
        if (--lSectorsLeft>0) //zero based vs 1 based
 1001135:	83 6c 24 0c 01       	sub    DWORD PTR [esp+0xc],0x1
 100113a:	74 79                	je     10011b5 <ataBlockingRead28+0x1d3>
/home/yogi/src/os/chrisOSKernel/../chrisOS/src/init/ata_disk.c:413
        {
            wait(50);
 100113c:	83 ec 0c             	sub    esp,0xc
 100113f:	6a 32                	push   0x32
 1001141:	e8 de 1d 00 00       	call   1002f24 <wait>
/home/yogi/src/os/chrisOSKernel/../chrisOS/src/init/ata_disk.c:414
            lResult=ataWaitForDRQ(atablockingReadDev, true, ATA_STANDARD_WAIT_MS*kTicksPerMS);
 1001146:	83 c4 0c             	add    esp,0xc
 1001149:	a1 84 02 12 00       	mov    eax,ds:0x120284
 100114e:	8d 04 80             	lea    eax,[eax+eax*4]
 1001151:	01 c0                	add    eax,eax
 1001153:	50                   	push   eax
 1001154:	6a 01                	push   0x1
 1001156:	ff 35 20 a0 00 01    	push   DWORD PTR ds:0x100a020
 100115c:	e8 23 f5 ff ff       	call   1000684 <ataWaitForDRQ>
 1001161:	0f b6 c0             	movzx  eax,al
/home/yogi/src/os/chrisOSKernel/../chrisOS/src/init/ata_disk.c:415
            bufp+=512;
 1001164:	81 c6 00 02 00 00    	add    esi,0x200
/home/yogi/src/os/chrisOSKernel/../chrisOS/src/init/ata_disk.c:416
            lSector++;
 100116a:	83 c5 01             	add    ebp,0x1
/home/yogi/src/os/chrisOSKernel/../chrisOS/src/init/ata_disk.c:417
            if (lResult)
 100116d:	83 c4 10             	add    esp,0x10
 1001170:	85 c0                	test   eax,eax
 1001172:	74 17                	je     100118b <ataBlockingRead28+0x1a9>
/home/yogi/src/os/chrisOSKernel/../chrisOS/src/init/ata_disk.c:418
                panic("ataBlockingRead28: Timeout in read loop, waiting for DRQ to be set Stts=0x%02X, Err=0x%02X", lResult, hdError);
 1001174:	83 ec 04             	sub    esp,0x4
 1001177:	ff 35 74 4a 01 01    	push   DWORD PTR ds:0x1014a74
 100117d:	50                   	push   eax
 100117e:	68 74 7d 00 01       	push   0x1007d74
 1001183:	e8 6c 0f 00 00       	call   10020f4 <panic>
 1001188:	83 c4 10             	add    esp,0x10
/home/yogi/src/os/chrisOSKernel/../chrisOS/src/init/ata_disk.c:420
#ifndef DEBUG_NONE
        if ((kDebugLevel & DEBUG_HARDDRIVE) == DEBUG_HARDDRIVE)
 100118b:	f6 05 38 03 12 00 08 	test   BYTE PTR ds:0x120338,0x8
 1001192:	0f 84 3e ff ff ff    	je     10010d6 <ataBlockingRead28+0xf4>
/home/yogi/src/os/chrisOSKernel/../chrisOS/src/init/ata_disk.c:422
        {
            printk("ataBlockingRead28: sec=0x%08X, buf=0x%08X, rep=0x%08X    \n", lSector, bufp, lSectorsLeft);
 1001198:	ff 74 24 0c          	push   DWORD PTR [esp+0xc]
 100119c:	56                   	push   esi
 100119d:	55                   	push   ebp
 100119e:	68 d0 7d 00 01       	push   0x1007dd0
 10011a3:	e8 d3 13 00 00       	call   100257b <printk>
/home/yogi/src/os/chrisOSKernel/../chrisOS/src/init/ata_disk.c:423
            waitForKeyboardKey();
 10011a8:	e8 0b f3 ff ff       	call   10004b8 <waitForKeyboardKey>
 10011ad:	83 c4 10             	add    esp,0x10
 10011b0:	e9 21 ff ff ff       	jmp    10010d6 <ataBlockingRead28+0xf4>
/home/yogi/src/os/chrisOSKernel/../chrisOS/src/init/ata_disk.c:428
        }
#endif
        }
    }
    return 512*sector_count;
 10011b5:	8b 44 24 38          	mov    eax,DWORD PTR [esp+0x38]
 10011b9:	c1 e0 09             	shl    eax,0x9
/home/yogi/src/os/chrisOSKernel/../chrisOS/src/init/ata_disk.c:429
}
 10011bc:	83 c4 1c             	add    esp,0x1c
 10011bf:	5b                   	pop    ebx
 10011c0:	5e                   	pop    esi
 10011c1:	5f                   	pop    edi
 10011c2:	5d                   	pop    ebp
 10011c3:	c3                   	ret    

010011c4 <ataReadDisk>:
ataReadDisk():
/home/yogi/src/os/chrisOSKernel/../chrisOS/src/init/ata_disk.c:357
        printk("INIT: Disk1=%s  Disk2=%s\n", kATADeviceInfo[0].ATADeviceModel, kATADeviceInfo[1].ATADeviceModel);
#endif
            return 0;
}
int ataReadDisk(struct ataDeviceInfo_t* devInfo, uint32_t sector, uint8_t *buffer, uint32_t sector_count)
{
 10011c4:	83 ec 0c             	sub    esp,0xc
 10011c7:	8b 44 24 1c          	mov    eax,DWORD PTR [esp+0x1c]
/home/yogi/src/os/chrisOSKernel/../chrisOS/src/init/ata_disk.c:358
    atablockingReadDev = devInfo;
 10011cb:	8b 54 24 10          	mov    edx,DWORD PTR [esp+0x10]
 10011cf:	89 15 20 a0 00 01    	mov    DWORD PTR ds:0x100a020,edx
/home/yogi/src/os/chrisOSKernel/../chrisOS/src/init/ata_disk.c:359
    if (sector_count==0)    //this function can be called with a sector_count of 0 in order to set partOffset
 10011d5:	85 c0                	test   eax,eax
 10011d7:	74 16                	je     10011ef <ataReadDisk+0x2b>
/home/yogi/src/os/chrisOSKernel/../chrisOS/src/init/ata_disk.c:361
        return -1;
    return ataBlockingRead28(sector, buffer, sector_count);
 10011d9:	83 ec 04             	sub    esp,0x4
 10011dc:	50                   	push   eax
 10011dd:	ff 74 24 20          	push   DWORD PTR [esp+0x20]
 10011e1:	ff 74 24 20          	push   DWORD PTR [esp+0x20]
 10011e5:	e8 f8 fd ff ff       	call   1000fe2 <ataBlockingRead28>
 10011ea:	83 c4 10             	add    esp,0x10
 10011ed:	eb 05                	jmp    10011f4 <ataReadDisk+0x30>
/home/yogi/src/os/chrisOSKernel/../chrisOS/src/init/ata_disk.c:360
}
int ataReadDisk(struct ataDeviceInfo_t* devInfo, uint32_t sector, uint8_t *buffer, uint32_t sector_count)
{
    atablockingReadDev = devInfo;
    if (sector_count==0)    //this function can be called with a sector_count of 0 in order to set partOffset
        return -1;
 10011ef:	b8 ff ff ff ff       	mov    eax,0xffffffff
/home/yogi/src/os/chrisOSKernel/../chrisOS/src/init/ata_disk.c:362
    return ataBlockingRead28(sector, buffer, sector_count);
}
 10011f4:	83 c4 0c             	add    esp,0xc
 10011f7:	c3                   	ret    

010011f8 <ataBlockingWrite28>:
ataBlockingWrite28():
/home/yogi/src/os/chrisOSKernel/../chrisOS/src/init/ata_disk.c:468
#ifndef DEBUG_NONE
        if ((kDebugLevel & DEBUG_HARDDRIVE) == DEBUG_HARDDRIVE)
            printk("ataBlockingWrite28: Finished sending data\n");
#endif
    return 512;
*/}
 10011f8:	f3 c3                	repz ret 
 10011fa:	66 90                	xchg   ax,ax

010011fc <kPagingGet4kPDEntryValue>:
kPagingGet4kPDEntryValue():
/home/yogi/src/os/chrisOSKernel/../chrisOS/src/init/kpaging.c:19
extern uint32_t*  kKernelPageDir;
extern uint64_t kE820MemoryBytes;
extern uint32_t kDebugLevel;

uint32_t kPagingGet4kPDEntryValue(uint32_t address)
{
 10011fc:	53                   	push   ebx
 10011fd:	83 ec 08             	sub    esp,0x8
/home/yogi/src/os/chrisOSKernel/../chrisOS/src/init/kpaging.c:21
    address&=0xFFFFF000;
    uintptr_t* lTemp=(uint32_t*)((KERNEL_PAGE_DIR_ADDRESS + (((address & 0xFFC00000) >> 22) << 2)));
 1001200:	8b 5c 24 10          	mov    ebx,DWORD PTR [esp+0x10]
 1001204:	c1 eb 16             	shr    ebx,0x16
/home/yogi/src/os/chrisOSKernel/../chrisOS/src/init/kpaging.c:23
#ifndef DEBUG_NONE
         if ((kDebugLevel & DEBUG_PAGING) == DEBUG_PAGING)
 1001207:	f6 05 38 03 12 00 40 	test   BYTE PTR ds:0x120338,0x40
 100120e:	74 17                	je     1001227 <kPagingGet4kPDEntryValue+0x2b>
/home/yogi/src/os/chrisOSKernel/../chrisOS/src/init/kpaging.c:24
            printk("pagingGet4kPDEntryValue: dirAddressPtr=0x%08x\n", *lTemp);
 1001210:	83 ec 08             	sub    esp,0x8
 1001213:	ff 34 9d 00 90 4a 00 	push   DWORD PTR [ebx*4+0x4a9000]
 100121a:	68 0c 7e 00 01       	push   0x1007e0c
 100121f:	e8 57 13 00 00       	call   100257b <printk>
 1001224:	83 c4 10             	add    esp,0x10
/home/yogi/src/os/chrisOSKernel/../chrisOS/src/init/kpaging.c:26
#endif
    return (uint32_t)*lTemp;
 1001227:	8b 04 9d 00 90 4a 00 	mov    eax,DWORD PTR [ebx*4+0x4a9000]
/home/yogi/src/os/chrisOSKernel/../chrisOS/src/init/kpaging.c:27
}
 100122e:	83 c4 08             	add    esp,0x8
 1001231:	5b                   	pop    ebx
 1001232:	c3                   	ret    

01001233 <kPagingGet4kPDEntryAddress>:
kPagingGet4kPDEntryAddress():
/home/yogi/src/os/chrisOSKernel/../chrisOS/src/init/kpaging.c:30

uint32_t kPagingGet4kPDEntryAddress(uint32_t address)
{
 1001233:	53                   	push   ebx
 1001234:	83 ec 08             	sub    esp,0x8
/home/yogi/src/os/chrisOSKernel/../chrisOS/src/init/kpaging.c:32
    address&=0xFFFFF000;
    uintptr_t lTemp=((KERNEL_PAGE_DIR_ADDRESS  | (((address & 0xFFC00000) >> 22) << 2)));
 1001237:	8b 5c 24 10          	mov    ebx,DWORD PTR [esp+0x10]
 100123b:	c1 eb 16             	shr    ebx,0x16
 100123e:	c1 e3 02             	shl    ebx,0x2
 1001241:	81 cb 00 90 4a 00    	or     ebx,0x4a9000
/home/yogi/src/os/chrisOSKernel/../chrisOS/src/init/kpaging.c:34
#ifndef DEBUG_NONE
         if ((kDebugLevel & DEBUG_PAGING) == DEBUG_PAGING)
 1001247:	f6 05 38 03 12 00 40 	test   BYTE PTR ds:0x120338,0x40
 100124e:	74 11                	je     1001261 <kPagingGet4kPDEntryAddress+0x2e>
/home/yogi/src/os/chrisOSKernel/../chrisOS/src/init/kpaging.c:35
            printk("dirEntryAddress=0x%08x\n", lTemp);
 1001250:	83 ec 08             	sub    esp,0x8
 1001253:	53                   	push   ebx
 1001254:	68 1a 77 00 01       	push   0x100771a
 1001259:	e8 1d 13 00 00       	call   100257b <printk>
 100125e:	83 c4 10             	add    esp,0x10
/home/yogi/src/os/chrisOSKernel/../chrisOS/src/init/kpaging.c:38
#endif
    return (uint32_t)lTemp & 0xFFFFFFFF;
}
 1001261:	89 d8                	mov    eax,ebx
 1001263:	83 c4 08             	add    esp,0x8
 1001266:	5b                   	pop    ebx
 1001267:	c3                   	ret    

01001268 <kPagingGet4kPTEntryAddress>:
kPagingGet4kPTEntryAddress():
/home/yogi/src/os/chrisOSKernel/../chrisOS/src/init/kpaging.c:41

uint32_t kPagingGet4kPTEntryAddress(uint32_t address)
{
 1001268:	53                   	push   ebx
 1001269:	83 ec 14             	sub    esp,0x14
 100126c:	8b 5c 24 1c          	mov    ebx,DWORD PTR [esp+0x1c]
/home/yogi/src/os/chrisOSKernel/../chrisOS/src/init/kpaging.c:43
    address&=0xFFFFF000;
    uintptr_t pDirPtr=kPagingGet4kPDEntryValue(address) & 0xFFFFF000;
 1001270:	89 d8                	mov    eax,ebx
 1001272:	25 00 f0 ff ff       	and    eax,0xfffff000
 1001277:	50                   	push   eax
 1001278:	e8 7f ff ff ff       	call   10011fc <kPagingGet4kPDEntryValue>
/home/yogi/src/os/chrisOSKernel/../chrisOS/src/init/kpaging.c:44
    return ((address & 0x3FF000) >> 12) << 2 | pDirPtr;
 100127d:	81 e3 00 f0 3f 00    	and    ebx,0x3ff000
 1001283:	c1 eb 0a             	shr    ebx,0xa
 1001286:	25 00 f0 ff ff       	and    eax,0xfffff000
 100128b:	09 d8                	or     eax,ebx
/home/yogi/src/os/chrisOSKernel/../chrisOS/src/init/kpaging.c:45
}
 100128d:	83 c4 18             	add    esp,0x18
 1001290:	5b                   	pop    ebx
 1001291:	c3                   	ret    

01001292 <kPagingGet4kPTEntryValue>:
kPagingGet4kPTEntryValue():
/home/yogi/src/os/chrisOSKernel/../chrisOS/src/init/kpaging.c:48

uint32_t kPagingGet4kPTEntryValue(uint32_t address)
{
 1001292:	53                   	push   ebx
 1001293:	83 ec 14             	sub    esp,0x14
/home/yogi/src/os/chrisOSKernel/../chrisOS/src/init/kpaging.c:50
    address&=0xFFFFF000;
    uint32_t* pTablePtr=(uint32_t*)kPagingGet4kPTEntryAddress(address);
 1001296:	8b 44 24 1c          	mov    eax,DWORD PTR [esp+0x1c]
 100129a:	25 00 f0 ff ff       	and    eax,0xfffff000
 100129f:	50                   	push   eax
 10012a0:	e8 c3 ff ff ff       	call   1001268 <kPagingGet4kPTEntryAddress>
 10012a5:	89 c3                	mov    ebx,eax
/home/yogi/src/os/chrisOSKernel/../chrisOS/src/init/kpaging.c:52
#ifndef DEBUG_NONE
         if ((kDebugLevel & DEBUG_PAGING) == DEBUG_PAGING)
 10012a7:	83 c4 10             	add    esp,0x10
 10012aa:	f6 05 38 03 12 00 40 	test   BYTE PTR ds:0x120338,0x40
 10012b1:	74 11                	je     10012c4 <kPagingGet4kPTEntryValue+0x32>
/home/yogi/src/os/chrisOSKernel/../chrisOS/src/init/kpaging.c:53
             printk("pagingGet4kPTEntryValue: pageEntryAddress=0x%08X\n", pTablePtr);
 10012b3:	83 ec 08             	sub    esp,0x8
 10012b6:	50                   	push   eax
 10012b7:	68 3c 7e 00 01       	push   0x1007e3c
 10012bc:	e8 ba 12 00 00       	call   100257b <printk>
 10012c1:	83 c4 10             	add    esp,0x10
/home/yogi/src/os/chrisOSKernel/../chrisOS/src/init/kpaging.c:56
             //printf("pageEntryValue=0x%08X\n", *pTablePtr);
#endif
    return *pTablePtr;
 10012c4:	8b 03                	mov    eax,DWORD PTR [ebx]
/home/yogi/src/os/chrisOSKernel/../chrisOS/src/init/kpaging.c:57
}
 10012c6:	83 c4 08             	add    esp,0x8
 10012c9:	5b                   	pop    ebx
 10012ca:	c3                   	ret    

010012cb <kPagingSetPageReadOnlyFlag>:
kPagingSetPageReadOnlyFlag():
/home/yogi/src/os/chrisOSKernel/../chrisOS/src/init/kpaging.c:60

void kPagingSetPageReadOnlyFlag(uintptr_t* ptEntry, bool readOnly)
{
 10012cb:	56                   	push   esi
 10012cc:	53                   	push   ebx
 10012cd:	83 ec 04             	sub    esp,0x4
 10012d0:	8b 5c 24 10          	mov    ebx,DWORD PTR [esp+0x10]
 10012d4:	8b 74 24 14          	mov    esi,DWORD PTR [esp+0x14]
/home/yogi/src/os/chrisOSKernel/../chrisOS/src/init/kpaging.c:62
#ifndef DEBUG_NONE
         if ((kDebugLevel & DEBUG_PAGING) == DEBUG_PAGING)
 10012d8:	f6 05 38 03 12 00 40 	test   BYTE PTR ds:0x120338,0x40
 10012df:	74 13                	je     10012f4 <kPagingSetPageReadOnlyFlag+0x29>
/home/yogi/src/os/chrisOSKernel/../chrisOS/src/init/kpaging.c:63
            printk("pagingMakePageReadOnly: 0x%08X - before/after: 0x%08X/", ptEntry, *ptEntry);
 10012e1:	83 ec 04             	sub    esp,0x4
 10012e4:	ff 33                	push   DWORD PTR [ebx]
 10012e6:	53                   	push   ebx
 10012e7:	68 70 7e 00 01       	push   0x1007e70
 10012ec:	e8 8a 12 00 00       	call   100257b <printk>
 10012f1:	83 c4 10             	add    esp,0x10
/home/yogi/src/os/chrisOSKernel/../chrisOS/src/init/kpaging.c:65
#endif
         if (readOnly)
 10012f4:	89 f0                	mov    eax,esi
 10012f6:	84 c0                	test   al,al
 10012f8:	74 05                	je     10012ff <kPagingSetPageReadOnlyFlag+0x34>
/home/yogi/src/os/chrisOSKernel/../chrisOS/src/init/kpaging.c:66
            *ptEntry&=0xFFFFFFFD;
 10012fa:	83 23 fd             	and    DWORD PTR [ebx],0xfffffffd
 10012fd:	eb 03                	jmp    1001302 <kPagingSetPageReadOnlyFlag+0x37>
/home/yogi/src/os/chrisOSKernel/../chrisOS/src/init/kpaging.c:68
         else
            *ptEntry|=2; 
 10012ff:	83 0b 02             	or     DWORD PTR [ebx],0x2
/home/yogi/src/os/chrisOSKernel/../chrisOS/src/init/kpaging.c:69
    RELOAD_CR3
 1001302:	0f 20 d8             	mov    eax,cr3
 1001305:	0f 22 d8             	mov    cr3,eax
/home/yogi/src/os/chrisOSKernel/../chrisOS/src/init/kpaging.c:71
#ifndef DEBUG_NONE
         if ((kDebugLevel & DEBUG_PAGING) == DEBUG_PAGING)
 1001308:	f6 05 38 03 12 00 40 	test   BYTE PTR ds:0x120338,0x40
 100130f:	74 12                	je     1001323 <kPagingSetPageReadOnlyFlag+0x58>
/home/yogi/src/os/chrisOSKernel/../chrisOS/src/init/kpaging.c:72
            printk("0x%08X\n", *ptEntry);
 1001311:	83 ec 08             	sub    esp,0x8
 1001314:	ff 33                	push   DWORD PTR [ebx]
 1001316:	68 8d 7a 00 01       	push   0x1007a8d
 100131b:	e8 5b 12 00 00       	call   100257b <printk>
 1001320:	83 c4 10             	add    esp,0x10
/home/yogi/src/os/chrisOSKernel/../chrisOS/src/init/kpaging.c:74
#endif
}
 1001323:	83 c4 04             	add    esp,0x4
 1001326:	5b                   	pop    ebx
 1001327:	5e                   	pop    esi
 1001328:	c3                   	ret    

01001329 <kPagingUpdatePTEPresentFlag>:
kPagingUpdatePTEPresentFlag():
/home/yogi/src/os/chrisOSKernel/../chrisOS/src/init/kpaging.c:77

void kPagingUpdatePTEPresentFlag(uintptr_t* ptEntry, bool present)
{
 1001329:	56                   	push   esi
 100132a:	53                   	push   ebx
 100132b:	83 ec 04             	sub    esp,0x4
 100132e:	8b 5c 24 10          	mov    ebx,DWORD PTR [esp+0x10]
 1001332:	8b 74 24 14          	mov    esi,DWORD PTR [esp+0x14]
/home/yogi/src/os/chrisOSKernel/../chrisOS/src/init/kpaging.c:78
         printd(DEBUG_PAGING,"pagingUpdatePTEPresentFlag: 0x%08X - before/after: 0x%08X/", ptEntry, *ptEntry);
 1001336:	ff 33                	push   DWORD PTR [ebx]
 1001338:	53                   	push   ebx
 1001339:	68 a8 7e 00 01       	push   0x1007ea8
 100133e:	6a 40                	push   0x40
 1001340:	e8 4e 12 00 00       	call   1002593 <printd>
/home/yogi/src/os/chrisOSKernel/../chrisOS/src/init/kpaging.c:79
         if (present)
 1001345:	83 c4 10             	add    esp,0x10
 1001348:	89 f0                	mov    eax,esi
 100134a:	84 c0                	test   al,al
 100134c:	74 05                	je     1001353 <kPagingUpdatePTEPresentFlag+0x2a>
/home/yogi/src/os/chrisOSKernel/../chrisOS/src/init/kpaging.c:80
             *ptEntry=*ptEntry | 1;
 100134e:	83 0b 01             	or     DWORD PTR [ebx],0x1
 1001351:	eb 03                	jmp    1001356 <kPagingUpdatePTEPresentFlag+0x2d>
/home/yogi/src/os/chrisOSKernel/../chrisOS/src/init/kpaging.c:82
         else
             *ptEntry&=0xFFFFFFFE;
 1001353:	83 23 fe             	and    DWORD PTR [ebx],0xfffffffe
/home/yogi/src/os/chrisOSKernel/../chrisOS/src/init/kpaging.c:83
         __asm__("mov eax,cr3\nmov cr3,eax\n":::"eax");
 1001356:	0f 20 d8             	mov    eax,cr3
 1001359:	0f 22 d8             	mov    cr3,eax
/home/yogi/src/os/chrisOSKernel/../chrisOS/src/init/kpaging.c:84
         printd(DEBUG_PAGING,"0x%08X\n", *ptEntry);
 100135c:	83 ec 04             	sub    esp,0x4
 100135f:	ff 33                	push   DWORD PTR [ebx]
 1001361:	68 8d 7a 00 01       	push   0x1007a8d
 1001366:	6a 40                	push   0x40
 1001368:	e8 26 12 00 00       	call   1002593 <printd>
/home/yogi/src/os/chrisOSKernel/../chrisOS/src/init/kpaging.c:85
}
 100136d:	83 c4 14             	add    esp,0x14
 1001370:	5b                   	pop    ebx
 1001371:	5e                   	pop    esi
 1001372:	c3                   	ret    

01001373 <kSetVirtualRangeRO>:
kSetVirtualRangeRO():
/home/yogi/src/os/chrisOSKernel/../chrisOS/src/init/kpaging.c:88

void kSetVirtualRangeRO(uint32_t startAddy, uint32_t endAddy, bool readOnly)
{
 1001373:	55                   	push   ebp
 1001374:	57                   	push   edi
 1001375:	56                   	push   esi
 1001376:	53                   	push   ebx
 1001377:	83 ec 1c             	sub    esp,0x1c
 100137a:	8b 5c 24 30          	mov    ebx,DWORD PTR [esp+0x30]
 100137e:	8b 6c 24 34          	mov    ebp,DWORD PTR [esp+0x34]
 1001382:	8b 74 24 38          	mov    esi,DWORD PTR [esp+0x38]
 1001386:	89 f7                	mov    edi,esi
/home/yogi/src/os/chrisOSKernel/../chrisOS/src/init/kpaging.c:91
    uintptr_t* startPTE;
#ifndef DEBUG_NONE
        if ((kDebugLevel & DEBUG_PAGING) == DEBUG_PAGING)
 1001388:	f6 05 38 03 12 00 40 	test   BYTE PTR ds:0x120338,0x40
 100138f:	74 12                	je     10013a3 <kSetVirtualRangeRO+0x30>
/home/yogi/src/os/chrisOSKernel/../chrisOS/src/init/kpaging.c:92
           printk("kMakeVirtualRangeRO: Make 0x%08X-0x%08X r/o\n", startAddy, endAddy);
 1001391:	83 ec 04             	sub    esp,0x4
 1001394:	55                   	push   ebp
 1001395:	53                   	push   ebx
 1001396:	68 e4 7e 00 01       	push   0x1007ee4
 100139b:	e8 db 11 00 00       	call   100257b <printk>
 10013a0:	83 c4 10             	add    esp,0x10
/home/yogi/src/os/chrisOSKernel/../chrisOS/src/init/kpaging.c:94 (discriminator 1)
#endif
    for (uint32_t cnt=(startAddy);cnt<=(endAddy)+1;cnt+=0x1000)
 10013a3:	83 c5 01             	add    ebp,0x1
 10013a6:	39 eb                	cmp    ebx,ebp
 10013a8:	77 5b                	ja     1001405 <kSetVirtualRangeRO+0x92>
 10013aa:	89 f0                	mov    eax,esi
 10013ac:	84 c0                	test   al,al
 10013ae:	b8 35 77 00 01       	mov    eax,0x1007735
 10013b3:	ba 32 77 00 01       	mov    edx,0x1007732
 10013b8:	0f 45 c2             	cmovne eax,edx
 10013bb:	89 44 24 0c          	mov    DWORD PTR [esp+0xc],eax
/home/yogi/src/os/chrisOSKernel/../chrisOS/src/init/kpaging.c:101
        startPTE=(uintptr_t*)kPagingGet4kPTEntryAddress(cnt);
#ifndef DEBUG_NONE
        if ((kDebugLevel & DEBUG_PAGING) == DEBUG_PAGING)
            printk("0x%08X (0x%08X) %s --> ", cnt, startPTE, readOnly?"ro":"rw");
#endif
        kPagingSetPageReadOnlyFlag(startPTE++, readOnly);
 10013bf:	89 f8                	mov    eax,edi
 10013c1:	0f b6 f8             	movzx  edi,al
/home/yogi/src/os/chrisOSKernel/../chrisOS/src/init/kpaging.c:96
        if ((kDebugLevel & DEBUG_PAGING) == DEBUG_PAGING)
           printk("kMakeVirtualRangeRO: Make 0x%08X-0x%08X r/o\n", startAddy, endAddy);
#endif
    for (uint32_t cnt=(startAddy);cnt<=(endAddy)+1;cnt+=0x1000)
    {
        startPTE=(uintptr_t*)kPagingGet4kPTEntryAddress(cnt);
 10013c4:	83 ec 0c             	sub    esp,0xc
 10013c7:	53                   	push   ebx
 10013c8:	e8 9b fe ff ff       	call   1001268 <kPagingGet4kPTEntryAddress>
 10013cd:	89 c6                	mov    esi,eax
/home/yogi/src/os/chrisOSKernel/../chrisOS/src/init/kpaging.c:98
#ifndef DEBUG_NONE
        if ((kDebugLevel & DEBUG_PAGING) == DEBUG_PAGING)
 10013cf:	83 c4 10             	add    esp,0x10
 10013d2:	f6 05 38 03 12 00 40 	test   BYTE PTR ds:0x120338,0x40
 10013d9:	74 13                	je     10013ee <kSetVirtualRangeRO+0x7b>
/home/yogi/src/os/chrisOSKernel/../chrisOS/src/init/kpaging.c:99 (discriminator 4)
            printk("0x%08X (0x%08X) %s --> ", cnt, startPTE, readOnly?"ro":"rw");
 10013db:	ff 74 24 0c          	push   DWORD PTR [esp+0xc]
 10013df:	50                   	push   eax
 10013e0:	53                   	push   ebx
 10013e1:	68 38 77 00 01       	push   0x1007738
 10013e6:	e8 90 11 00 00       	call   100257b <printk>
 10013eb:	83 c4 10             	add    esp,0x10
/home/yogi/src/os/chrisOSKernel/../chrisOS/src/init/kpaging.c:101 (discriminator 2)
#endif
        kPagingSetPageReadOnlyFlag(startPTE++, readOnly);
 10013ee:	83 ec 08             	sub    esp,0x8
 10013f1:	57                   	push   edi
 10013f2:	56                   	push   esi
 10013f3:	e8 d3 fe ff ff       	call   10012cb <kPagingSetPageReadOnlyFlag>
/home/yogi/src/os/chrisOSKernel/../chrisOS/src/init/kpaging.c:94 (discriminator 2)
    uintptr_t* startPTE;
#ifndef DEBUG_NONE
        if ((kDebugLevel & DEBUG_PAGING) == DEBUG_PAGING)
           printk("kMakeVirtualRangeRO: Make 0x%08X-0x%08X r/o\n", startAddy, endAddy);
#endif
    for (uint32_t cnt=(startAddy);cnt<=(endAddy)+1;cnt+=0x1000)
 10013f8:	81 c3 00 10 00 00    	add    ebx,0x1000
 10013fe:	83 c4 10             	add    esp,0x10
 1001401:	39 eb                	cmp    ebx,ebp
 1001403:	76 bf                	jbe    10013c4 <kSetVirtualRangeRO+0x51>
/home/yogi/src/os/chrisOSKernel/../chrisOS/src/init/kpaging.c:105
#endif
        kPagingSetPageReadOnlyFlag(startPTE++, readOnly);
            
    }
        //for cnt=0;cnt<=8192;cnt+=4096
}
 1001405:	83 c4 1c             	add    esp,0x1c
 1001408:	5b                   	pop    ebx
 1001409:	5e                   	pop    esi
 100140a:	5f                   	pop    edi
 100140b:	5d                   	pop    ebp
 100140c:	c3                   	ret    

0100140d <kpagingUpdatePresentFlagA>:
kpagingUpdatePresentFlagA():
/home/yogi/src/os/chrisOSKernel/../chrisOS/src/init/kpaging.c:109

//Absolute version, page passed is already virtual
void kpagingUpdatePresentFlagA(uint32_t address, bool present)
{
 100140d:	56                   	push   esi
 100140e:	53                   	push   ebx
 100140f:	83 ec 04             	sub    esp,0x4
 1001412:	8b 74 24 10          	mov    esi,DWORD PTR [esp+0x10]
 1001416:	8b 5c 24 14          	mov    ebx,DWORD PTR [esp+0x14]
/home/yogi/src/os/chrisOSKernel/../chrisOS/src/init/kpaging.c:111
#ifndef DEBUG_NONE
        if ((kDebugLevel & DEBUG_PAGING) == DEBUG_PAGING)
 100141a:	f6 05 38 03 12 00 40 	test   BYTE PTR ds:0x120338,0x40
 1001421:	74 21                	je     1001444 <kpagingUpdatePresentFlagA+0x37>
/home/yogi/src/os/chrisOSKernel/../chrisOS/src/init/kpaging.c:112
            printk("kpagingUpdatePresentFlagA: Make 0x%08X %s\n", address, present?"present":"not present");
 1001423:	84 db                	test   bl,bl
 1001425:	ba 50 77 00 01       	mov    edx,0x1007750
 100142a:	b8 54 77 00 01       	mov    eax,0x1007754
 100142f:	0f 44 c2             	cmove  eax,edx
 1001432:	83 ec 04             	sub    esp,0x4
 1001435:	50                   	push   eax
 1001436:	56                   	push   esi
 1001437:	68 14 7f 00 01       	push   0x1007f14
 100143c:	e8 3a 11 00 00       	call   100257b <printk>
 1001441:	83 c4 10             	add    esp,0x10
/home/yogi/src/os/chrisOSKernel/../chrisOS/src/init/kpaging.c:114
#endif
        uintptr_t* pagePTE= (uintptr_t*)kPagingGet4kPTEntryAddress(address&0xFFFFF000);
 1001444:	83 ec 0c             	sub    esp,0xc
 1001447:	81 e6 00 f0 ff ff    	and    esi,0xfffff000
 100144d:	56                   	push   esi
 100144e:	e8 15 fe ff ff       	call   1001268 <kPagingGet4kPTEntryAddress>
 1001453:	89 c6                	mov    esi,eax
/home/yogi/src/os/chrisOSKernel/../chrisOS/src/init/kpaging.c:116
#ifndef DEBUG_NONE
        if ((kDebugLevel & DEBUG_PAGING) == DEBUG_PAGING)
 1001455:	83 c4 10             	add    esp,0x10
 1001458:	f6 05 38 03 12 00 40 	test   BYTE PTR ds:0x120338,0x40
 100145f:	74 11                	je     1001472 <kpagingUpdatePresentFlagA+0x65>
/home/yogi/src/os/chrisOSKernel/../chrisOS/src/init/kpaging.c:117
            printk("kpagingUpdatePresentFlagA: updating entry 0x%08X\n", pagePTE);
 1001461:	83 ec 08             	sub    esp,0x8
 1001464:	50                   	push   eax
 1001465:	68 40 7f 00 01       	push   0x1007f40
 100146a:	e8 0c 11 00 00       	call   100257b <printk>
 100146f:	83 c4 10             	add    esp,0x10
/home/yogi/src/os/chrisOSKernel/../chrisOS/src/init/kpaging.c:119
#endif
        kPagingUpdatePTEPresentFlag(pagePTE, present);
 1001472:	83 ec 08             	sub    esp,0x8
 1001475:	0f b6 db             	movzx  ebx,bl
 1001478:	53                   	push   ebx
 1001479:	56                   	push   esi
 100147a:	e8 aa fe ff ff       	call   1001329 <kPagingUpdatePTEPresentFlag>
/home/yogi/src/os/chrisOSKernel/../chrisOS/src/init/kpaging.c:120
}
 100147f:	83 c4 14             	add    esp,0x14
 1001482:	5b                   	pop    ebx
 1001483:	5e                   	pop    esi
 1001484:	c3                   	ret    

01001485 <kpagingUpdatePresentFlagV>:
kpagingUpdatePresentFlagV():
/home/yogi/src/os/chrisOSKernel/../chrisOS/src/init/kpaging.c:123

void kpagingUpdatePresentFlagV(uint32_t address, bool present)
{
 1001485:	83 ec 14             	sub    esp,0x14
/home/yogi/src/os/chrisOSKernel/../chrisOS/src/init/kpaging.c:125
    address+=KERNEL_PAGED_BASE_ADDRESS; 
    kpagingUpdatePresentFlagA(address, present);
 1001488:	0f b6 44 24 1c       	movzx  eax,BYTE PTR [esp+0x1c]
 100148d:	50                   	push   eax
 100148e:	8b 44 24 1c          	mov    eax,DWORD PTR [esp+0x1c]
 1001492:	2d 00 00 00 40       	sub    eax,0x40000000
 1001497:	50                   	push   eax
 1001498:	e8 70 ff ff ff       	call   100140d <kpagingUpdatePresentFlagA>
/home/yogi/src/os/chrisOSKernel/../chrisOS/src/init/kpaging.c:126
}
 100149d:	83 c4 1c             	add    esp,0x1c
 10014a0:	c3                   	ret    

010014a1 <kMapPage>:
kMapPage():
/home/yogi/src/os/chrisOSKernel/../chrisOS/src/init/kpaging.c:129

void kMapPage(uintptr_t mapTo, uintptr_t mapFrom, uint8_t flags)
{
 10014a1:	57                   	push   edi
 10014a2:	56                   	push   esi
 10014a3:	53                   	push   ebx
 10014a4:	8b 4c 24 10          	mov    ecx,DWORD PTR [esp+0x10]
 10014a8:	8b 54 24 18          	mov    edx,DWORD PTR [esp+0x18]
/home/yogi/src/os/chrisOSKernel/../chrisOS/src/init/kpaging.c:134
    uint32_t *ptr;
    uint32_t ptrVal;
    uint32_t *ptrT;
    ptr=(uint32_t*)kKernelPageDir;
    ptrVal=ptr[(mapTo>>22)];
 10014ac:	89 cb                	mov    ebx,ecx
 10014ae:	c1 eb 16             	shr    ebx,0x16
 10014b1:	a1 a4 02 12 00       	mov    eax,ds:0x1202a4
 10014b6:	8d 1c 98             	lea    ebx,[eax+ebx*4]
/home/yogi/src/os/chrisOSKernel/../chrisOS/src/init/kpaging.c:135
    if (ptrVal==0 && mapTo < kE820MemoryBytes)
 10014b9:	83 3b 00             	cmp    DWORD PTR [ebx],0x0
 10014bc:	75 6a                	jne    1001528 <kMapPage+0x87>
/home/yogi/src/os/chrisOSKernel/../chrisOS/src/init/kpaging.c:135 (discriminator 1)
 10014be:	bf 00 00 00 00       	mov    edi,0x0
 10014c3:	3b 3d 4c 00 12 00    	cmp    edi,DWORD PTR ds:0x12004c
 10014c9:	72 08                	jb     10014d3 <kMapPage+0x32>
 10014cb:	3b 0d 48 00 12 00    	cmp    ecx,DWORD PTR ds:0x120048
 10014d1:	73 41                	jae    1001514 <kMapPage+0x73>
/home/yogi/src/os/chrisOSKernel/../chrisOS/src/init/kpaging.c:138
    {
        ptrT=(uint32_t*)0x20000000;
        ptr[(mapTo>>22)]=0x20000063;
 10014d3:	c7 03 63 00 00 20    	mov    DWORD PTR [ebx],0x20000063
/home/yogi/src/os/chrisOSKernel/../chrisOS/src/init/kpaging.c:139
        ptrT[(mapTo&0x003FFFFF/4096)]=mapFrom | flags;
 10014d9:	89 c8                	mov    eax,ecx
 10014db:	25 ff 03 00 00       	and    eax,0x3ff
 10014e0:	8d 34 85 00 00 00 20 	lea    esi,[eax*4+0x20000000]
 10014e7:	0f b6 d2             	movzx  edx,dl
 10014ea:	0b 54 24 14          	or     edx,DWORD PTR [esp+0x14]
 10014ee:	89 14 85 00 00 00 20 	mov    DWORD PTR [eax*4+0x20000000],edx
/home/yogi/src/os/chrisOSKernel/../chrisOS/src/init/kpaging.c:141
#ifndef DEBUG_NONE
         if ((kDebugLevel & DEBUG_PAGING) == DEBUG_PAGING)
 10014f5:	f6 05 38 03 12 00 40 	test   BYTE PTR ds:0x120338,0x40
 10014fc:	74 64                	je     1001562 <kMapPage+0xc1>
/home/yogi/src/os/chrisOSKernel/../chrisOS/src/init/kpaging.c:142
            printk("kMapPage: Mapped 0x%08X via dir=0x%08X, page=0x%08X, to 0x%08X\n", mapTo, &ptr[(mapTo>>22)], &ptrT[(mapTo&0x003FFFFF/4096)],ptrT[(mapTo&0x003FFFFF/4096)]);
 10014fe:	83 ec 0c             	sub    esp,0xc
 1001501:	52                   	push   edx
 1001502:	56                   	push   esi
 1001503:	53                   	push   ebx
 1001504:	51                   	push   ecx
 1001505:	68 74 7f 00 01       	push   0x1007f74
 100150a:	e8 6c 10 00 00       	call   100257b <printk>
 100150f:	83 c4 20             	add    esp,0x20
 1001512:	eb 4e                	jmp    1001562 <kMapPage+0xc1>
/home/yogi/src/os/chrisOSKernel/../chrisOS/src/init/kpaging.c:150
    else
    {
        //ptrVal right now points to the pdir entry
        ptr=(uint32_t*)kKernelPageDir;
        if (ptr[(mapTo>>22)]==0)
            ptr[mapTo>>22]=(KERNEL_PAGE_TABLE_BASE_ADDRESS + ((mapTo&0x003FFFFF)/4096)) | 0x63;
 1001514:	89 c8                	mov    eax,ecx
 1001516:	25 ff ff 3f 00       	and    eax,0x3fffff
 100151b:	c1 e8 0c             	shr    eax,0xc
 100151e:	05 00 b0 4b 00       	add    eax,0x4bb000
 1001523:	83 c8 63             	or     eax,0x63
 1001526:	89 03                	mov    DWORD PTR [ebx],eax
/home/yogi/src/os/chrisOSKernel/../chrisOS/src/init/kpaging.c:156
        ptrVal=ptr[mapTo>>22];
        ptrVal=(ptrVal&0xFFFFF000);
        ptrT=(uint32_t*)ptrVal;
        //Now ptrVal will point to offset within page table
        ptrVal=(mapTo&0x003FFFFF)/4096;
        ptrT[ptrVal]=mapFrom | flags;
 1001528:	8b 33                	mov    esi,DWORD PTR [ebx]
 100152a:	81 e6 00 f0 ff ff    	and    esi,0xfffff000
 1001530:	89 c8                	mov    eax,ecx
 1001532:	c1 e8 0a             	shr    eax,0xa
 1001535:	25 fc 0f 00 00       	and    eax,0xffc
 100153a:	01 f0                	add    eax,esi
 100153c:	0f b6 d2             	movzx  edx,dl
 100153f:	0b 54 24 14          	or     edx,DWORD PTR [esp+0x14]
 1001543:	89 10                	mov    DWORD PTR [eax],edx
/home/yogi/src/os/chrisOSKernel/../chrisOS/src/init/kpaging.c:160
//                printk("ptrT=%X(%X)\n",&ptrT[ptrVal],ptrT[ptrVal]);
//                STOPHERE2
#ifndef DEBUG_NONE
        if ((kDebugLevel & DEBUG_PAGING) == DEBUG_PAGING)
 1001545:	f6 05 38 03 12 00 40 	test   BYTE PTR ds:0x120338,0x40
 100154c:	74 14                	je     1001562 <kMapPage+0xc1>
/home/yogi/src/os/chrisOSKernel/../chrisOS/src/init/kpaging.c:161
            printk("2) Mapped 0x%08X via dir=0x%08X, page=0x%08X, to 0x%08X\n", mapTo, &ptr[(mapTo>>22)], &ptrT[ptrVal],ptrT[ptrVal]);
 100154e:	83 ec 0c             	sub    esp,0xc
 1001551:	52                   	push   edx
 1001552:	50                   	push   eax
 1001553:	53                   	push   ebx
 1001554:	51                   	push   ecx
 1001555:	68 b4 7f 00 01       	push   0x1007fb4
 100155a:	e8 1c 10 00 00       	call   100257b <printk>
 100155f:	83 c4 20             	add    esp,0x20
/home/yogi/src/os/chrisOSKernel/../chrisOS/src/init/kpaging.c:165
#endif
    }
//    if (ptrT[(src&0x003FFFFF/1000)]==0)
}
 1001562:	5b                   	pop    ebx
 1001563:	5e                   	pop    esi
 1001564:	5f                   	pop    edi
 1001565:	c3                   	ret    

01001566 <kIsPageMapped>:
kIsPageMapped():
/home/yogi/src/os/chrisOSKernel/../chrisOS/src/init/kpaging.c:168

bool kIsPageMapped(uintptr_t Address)
{
 1001566:	83 ec 18             	sub    esp,0x18
/home/yogi/src/os/chrisOSKernel/../chrisOS/src/init/kpaging.c:169
    if (!kPagingGet4kPTEntryValue(Address))
 1001569:	ff 74 24 1c          	push   DWORD PTR [esp+0x1c]
 100156d:	e8 20 fd ff ff       	call   1001292 <kPagingGet4kPTEntryValue>
 1001572:	85 c0                	test   eax,eax
 1001574:	0f 95 c0             	setne  al
/home/yogi/src/os/chrisOSKernel/../chrisOS/src/init/kpaging.c:172
        return false;
    return true;
}
 1001577:	83 c4 1c             	add    esp,0x1c
 100157a:	c3                   	ret    

0100157b <kUnMapPage>:
kUnMapPage():
/home/yogi/src/os/chrisOSKernel/../chrisOS/src/init/kpaging.c:175

void kUnMapPage(uintptr_t mapTo)
{
 100157b:	57                   	push   edi
 100157c:	56                   	push   esi
 100157d:	83 ec 04             	sub    esp,0x4
 1001580:	8b 54 24 10          	mov    edx,DWORD PTR [esp+0x10]
/home/yogi/src/os/chrisOSKernel/../chrisOS/src/init/kpaging.c:180
    uint32_t *ptr;
    uint32_t ptrVal;
    uint32_t *ptrT;
    ptr=(uint32_t*)kKernelPageDir;
    ptrVal=ptr[(mapTo>>22)];
 1001584:	89 d1                	mov    ecx,edx
 1001586:	c1 e9 16             	shr    ecx,0x16
 1001589:	a1 a4 02 12 00       	mov    eax,ds:0x1202a4
 100158e:	8d 0c 88             	lea    ecx,[eax+ecx*4]
 1001591:	8b 01                	mov    eax,DWORD PTR [ecx]
/home/yogi/src/os/chrisOSKernel/../chrisOS/src/init/kpaging.c:181
    if (ptrVal==0 && mapTo < kE820MemoryBytes)
 1001593:	85 c0                	test   eax,eax
 1001595:	75 4f                	jne    10015e6 <kUnMapPage+0x6b>
/home/yogi/src/os/chrisOSKernel/../chrisOS/src/init/kpaging.c:181 (discriminator 1)
 1001597:	bf 00 00 00 00       	mov    edi,0x0
 100159c:	3b 3d 4c 00 12 00    	cmp    edi,DWORD PTR ds:0x12004c
 10015a2:	72 08                	jb     10015ac <kUnMapPage+0x31>
 10015a4:	3b 15 48 00 12 00    	cmp    edx,DWORD PTR ds:0x120048
 10015aa:	73 3a                	jae    10015e6 <kUnMapPage+0x6b>
/home/yogi/src/os/chrisOSKernel/../chrisOS/src/init/kpaging.c:184
    {
        ptrT=(uint32_t*)0x20000000;
        ptr[(mapTo>>22)]=0x20000063;
 10015ac:	c7 01 63 00 00 20    	mov    DWORD PTR [ecx],0x20000063
/home/yogi/src/os/chrisOSKernel/../chrisOS/src/init/kpaging.c:185
        ptrT[(mapTo&0x003FFFFF/4096)]=0;
 10015b2:	89 d0                	mov    eax,edx
 10015b4:	25 ff 03 00 00       	and    eax,0x3ff
 10015b9:	8d 34 85 00 00 00 20 	lea    esi,[eax*4+0x20000000]
 10015c0:	c7 04 85 00 00 00 20 	mov    DWORD PTR [eax*4+0x20000000],0x0
 10015c7:	00 00 00 00 
/home/yogi/src/os/chrisOSKernel/../chrisOS/src/init/kpaging.c:187
#ifndef DEBUG_NONE
         if ((kDebugLevel & DEBUG_PAGING) == DEBUG_PAGING)
 10015cb:	f6 05 38 03 12 00 40 	test   BYTE PTR ds:0x120338,0x40
 10015d2:	74 44                	je     1001618 <kUnMapPage+0x9d>
/home/yogi/src/os/chrisOSKernel/../chrisOS/src/init/kpaging.c:188
            printk("kMapPage: Unmapped 0x%08X via dir=0x%08X, page=0x%08X\n", mapTo, &ptr[(mapTo>>22)], &ptrT[(mapTo&0x003FFFFF/4096)]);
 10015d4:	56                   	push   esi
 10015d5:	51                   	push   ecx
 10015d6:	52                   	push   edx
 10015d7:	68 f0 7f 00 01       	push   0x1007ff0
 10015dc:	e8 9a 0f 00 00       	call   100257b <printk>
 10015e1:	83 c4 10             	add    esp,0x10
 10015e4:	eb 32                	jmp    1001618 <kUnMapPage+0x9d>
/home/yogi/src/os/chrisOSKernel/../chrisOS/src/init/kpaging.c:200
        ptrVal=ptr[mapTo>>22];
        ptrVal=(ptrVal&0xFFFFF000);
        ptrT=(uint32_t*)ptrVal;
        //Now ptrVal will point to offset within page table
        ptrVal=(mapTo&0x003FFFFF)/4096;
        ptrT[ptrVal]=0;
 10015e6:	25 00 f0 ff ff       	and    eax,0xfffff000
 10015eb:	89 c6                	mov    esi,eax
 10015ed:	89 d0                	mov    eax,edx
 10015ef:	c1 e8 0a             	shr    eax,0xa
 10015f2:	25 fc 0f 00 00       	and    eax,0xffc
 10015f7:	01 f0                	add    eax,esi
 10015f9:	c7 00 00 00 00 00    	mov    DWORD PTR [eax],0x0
/home/yogi/src/os/chrisOSKernel/../chrisOS/src/init/kpaging.c:204
//                printk("ptrT=%X(%X)\n",&ptrT[ptrVal],ptrT[ptrVal]);
//                STOPHERE2
#ifndef DEBUG_NONE
        if ((kDebugLevel & DEBUG_PAGING) == DEBUG_PAGING)
 10015ff:	f6 05 38 03 12 00 40 	test   BYTE PTR ds:0x120338,0x40
 1001606:	74 10                	je     1001618 <kUnMapPage+0x9d>
/home/yogi/src/os/chrisOSKernel/../chrisOS/src/init/kpaging.c:205
            printk("2) Unmapped 0x%08X via dir=0x%08X, page=0x%08X\n", mapTo, &ptr[(mapTo>>22)], &ptrT[ptrVal]);
 1001608:	50                   	push   eax
 1001609:	51                   	push   ecx
 100160a:	52                   	push   edx
 100160b:	68 28 80 00 01       	push   0x1008028
 1001610:	e8 66 0f 00 00       	call   100257b <printk>
 1001615:	83 c4 10             	add    esp,0x10
/home/yogi/src/os/chrisOSKernel/../chrisOS/src/init/kpaging.c:209
#endif
    }
//    if (ptrT[(src&0x003FFFFF/1000)]==0)
}
 1001618:	83 c4 04             	add    esp,0x4
 100161b:	5e                   	pop    esi
 100161c:	5f                   	pop    edi
 100161d:	c3                   	ret    

0100161e <kSetPhysicalRangeRO>:
kSetPhysicalRangeRO():
/home/yogi/src/os/chrisOSKernel/../chrisOS/src/init/kpaging.c:212

void kSetPhysicalRangeRO(uint32_t startAddy, uint32_t endAddy, bool readOnly)
{
 100161e:	55                   	push   ebp
 100161f:	57                   	push   edi
 1001620:	56                   	push   esi
 1001621:	53                   	push   ebx
 1001622:	83 ec 0c             	sub    esp,0xc
 1001625:	8b 6c 24 20          	mov    ebp,DWORD PTR [esp+0x20]
 1001629:	8b 74 24 24          	mov    esi,DWORD PTR [esp+0x24]
 100162d:	8b 5c 24 28          	mov    ebx,DWORD PTR [esp+0x28]
/home/yogi/src/os/chrisOSKernel/../chrisOS/src/init/kpaging.c:214
#ifndef DEBUG_NONE
        if ((kDebugLevel & DEBUG_PAGING) == DEBUG_PAGING)
 1001631:	f6 05 38 03 12 00 40 	test   BYTE PTR ds:0x120338,0x40
 1001638:	74 22                	je     100165c <kSetPhysicalRangeRO+0x3e>
/home/yogi/src/os/chrisOSKernel/../chrisOS/src/init/kpaging.c:215
            printk("kMakePhysicalRangeRO: Make 0x%08X(0x%08X)-0x%08X(0x%08X) r/o\n", startAddy, startAddy&0xFffff000, endAddy, endAddy&0xFFFFF000);
 100163a:	83 ec 0c             	sub    esp,0xc
 100163d:	89 f0                	mov    eax,esi
 100163f:	25 00 f0 ff ff       	and    eax,0xfffff000
 1001644:	50                   	push   eax
 1001645:	56                   	push   esi
 1001646:	89 e8                	mov    eax,ebp
 1001648:	25 00 f0 ff ff       	and    eax,0xfffff000
 100164d:	50                   	push   eax
 100164e:	55                   	push   ebp
 100164f:	68 58 80 00 01       	push   0x1008058
 1001654:	e8 22 0f 00 00       	call   100257b <printk>
 1001659:	83 c4 20             	add    esp,0x20
/home/yogi/src/os/chrisOSKernel/../chrisOS/src/init/kpaging.c:217
#endif
    kSetVirtualRangeRO((startAddy + KERNEL_PAGED_BASE_ADDRESS) & 0xFFFFF000, (endAddy + KERNEL_PAGED_BASE_ADDRESS) & 0xFFFFF000, readOnly);
 100165c:	83 ec 04             	sub    esp,0x4
 100165f:	0f b6 fb             	movzx  edi,bl
 1001662:	57                   	push   edi
 1001663:	81 ee 00 00 00 40    	sub    esi,0x40000000
 1001669:	81 e6 00 f0 ff ff    	and    esi,0xfffff000
 100166f:	56                   	push   esi
 1001670:	8d 9d 00 00 00 c0    	lea    ebx,[ebp-0x40000000]
 1001676:	81 e3 00 f0 ff ff    	and    ebx,0xfffff000
 100167c:	53                   	push   ebx
 100167d:	e8 f1 fc ff ff       	call   1001373 <kSetVirtualRangeRO>
/home/yogi/src/os/chrisOSKernel/../chrisOS/src/init/kpaging.c:218
}
 1001682:	83 c4 1c             	add    esp,0x1c
 1001685:	5b                   	pop    ebx
 1001686:	5e                   	pop    esi
 1001687:	5f                   	pop    edi
 1001688:	5d                   	pop    ebp
 1001689:	c3                   	ret    

0100168a <mmKernelSetPageInUseFlag>:
mmKernelSetPageInUseFlag():
/home/yogi/src/os/chrisOSKernel/../chrisOS/src/init/kpaging.c:221

void mmKernelSetPageInUseFlag(uintptr_t address, bool inUse)
{
 100168a:	56                   	push   esi
 100168b:	53                   	push   ebx
 100168c:	83 ec 04             	sub    esp,0x4
 100168f:	8b 5c 24 10          	mov    ebx,DWORD PTR [esp+0x10]
 1001693:	8b 74 24 14          	mov    esi,DWORD PTR [esp+0x14]
/home/yogi/src/os/chrisOSKernel/../chrisOS/src/init/kpaging.c:224
    uintptr_t* ptEntry;
#ifndef DEBUG_NONE
        if ((kDebugLevel & DEBUG_PAGING) == DEBUG_PAGING)
 1001697:	f6 05 38 03 12 00 40 	test   BYTE PTR ds:0x120338,0x40
 100169e:	74 22                	je     10016c2 <mmKernelSetPageInUseFlag+0x38>
/home/yogi/src/os/chrisOSKernel/../chrisOS/src/init/kpaging.c:225
           printd(DEBUG_PAGING, "mmKernelSetPageInUseFlag: Marking page with address 0x%08X as %s\n", address, inUse?"in use":"not in use");
 10016a0:	89 f0                	mov    eax,esi
 10016a2:	84 c0                	test   al,al
 10016a4:	ba 5c 77 00 01       	mov    edx,0x100775c
 10016a9:	b8 60 77 00 01       	mov    eax,0x1007760
 10016ae:	0f 44 c2             	cmove  eax,edx
 10016b1:	50                   	push   eax
 10016b2:	53                   	push   ebx
 10016b3:	68 98 80 00 01       	push   0x1008098
 10016b8:	6a 40                	push   0x40
 10016ba:	e8 d4 0e 00 00       	call   1002593 <printd>
 10016bf:	83 c4 10             	add    esp,0x10
/home/yogi/src/os/chrisOSKernel/../chrisOS/src/init/kpaging.c:227
#endif
        ptEntry=(uintptr_t*)kPagingGet4kPTEntryAddress(address);
 10016c2:	83 ec 0c             	sub    esp,0xc
 10016c5:	53                   	push   ebx
 10016c6:	e8 9d fb ff ff       	call   1001268 <kPagingGet4kPTEntryAddress>
 10016cb:	89 c3                	mov    ebx,eax
/home/yogi/src/os/chrisOSKernel/../chrisOS/src/init/kpaging.c:228
        printd(DEBUG_PAGING,"mmKernelSetPageInUseFlag: PTE=0x%08X, Before PTE value=0x%08X\n",ptEntry,*ptEntry);
 10016cd:	ff 30                	push   DWORD PTR [eax]
 10016cf:	50                   	push   eax
 10016d0:	68 dc 80 00 01       	push   0x10080dc
 10016d5:	6a 40                	push   0x40
 10016d7:	e8 b7 0e 00 00       	call   1002593 <printd>
/home/yogi/src/os/chrisOSKernel/../chrisOS/src/init/kpaging.c:229
        if (inUse)
 10016dc:	83 c4 20             	add    esp,0x20
 10016df:	89 f0                	mov    eax,esi
 10016e1:	84 c0                	test   al,al
 10016e3:	74 08                	je     10016ed <mmKernelSetPageInUseFlag+0x63>
/home/yogi/src/os/chrisOSKernel/../chrisOS/src/init/kpaging.c:230
            *ptEntry|=PAGING_IN_USE_FLAG_MASK;
 10016e5:	81 0b 00 08 00 00    	or     DWORD PTR [ebx],0x800
 10016eb:	eb 06                	jmp    10016f3 <mmKernelSetPageInUseFlag+0x69>
/home/yogi/src/os/chrisOSKernel/../chrisOS/src/init/kpaging.c:232
        else
            *ptEntry&=~PAGING_IN_USE_FLAG_MASK;
 10016ed:	81 23 ff f7 ff ff    	and    DWORD PTR [ebx],0xfffff7ff
/home/yogi/src/os/chrisOSKernel/../chrisOS/src/init/kpaging.c:233
}
 10016f3:	83 c4 04             	add    esp,0x4
 10016f6:	5b                   	pop    ebx
 10016f7:	5e                   	pop    esi
 10016f8:	c3                   	ret    

010016f9 <mmKernelSetPageRangeInUseFlag>:
mmKernelSetPageRangeInUseFlag():
/home/yogi/src/os/chrisOSKernel/../chrisOS/src/init/kpaging.c:236

void mmKernelSetPageRangeInUseFlag(uintptr_t startAddress, uintptr_t endAddress, int pageSize, bool inUse)
{
 10016f9:	55                   	push   ebp
 10016fa:	57                   	push   edi
 10016fb:	56                   	push   esi
 10016fc:	53                   	push   ebx
 10016fd:	83 ec 0c             	sub    esp,0xc
 1001700:	8b 5c 24 20          	mov    ebx,DWORD PTR [esp+0x20]
 1001704:	8b 7c 24 24          	mov    edi,DWORD PTR [esp+0x24]
 1001708:	8b 6c 24 28          	mov    ebp,DWORD PTR [esp+0x28]
 100170c:	0f b6 44 24 2c       	movzx  eax,BYTE PTR [esp+0x2c]
/home/yogi/src/os/chrisOSKernel/../chrisOS/src/init/kpaging.c:237
    for (uintptr_t cnt=startAddress;cnt<endAddress;cnt+=pageSize)
 1001711:	39 fb                	cmp    ebx,edi
 1001713:	73 16                	jae    100172b <mmKernelSetPageRangeInUseFlag+0x32>
/home/yogi/src/os/chrisOSKernel/../chrisOS/src/init/kpaging.c:238 (discriminator 3)
        mmKernelSetPageInUseFlag(cnt,inUse);
 1001715:	0f b6 f0             	movzx  esi,al
 1001718:	83 ec 08             	sub    esp,0x8
 100171b:	56                   	push   esi
 100171c:	53                   	push   ebx
 100171d:	e8 68 ff ff ff       	call   100168a <mmKernelSetPageInUseFlag>
 1001722:	01 eb                	add    ebx,ebp
/home/yogi/src/os/chrisOSKernel/../chrisOS/src/init/kpaging.c:237 (discriminator 3)
            *ptEntry&=~PAGING_IN_USE_FLAG_MASK;
}

void mmKernelSetPageRangeInUseFlag(uintptr_t startAddress, uintptr_t endAddress, int pageSize, bool inUse)
{
    for (uintptr_t cnt=startAddress;cnt<endAddress;cnt+=pageSize)
 1001724:	83 c4 10             	add    esp,0x10
 1001727:	39 fb                	cmp    ebx,edi
 1001729:	72 ed                	jb     1001718 <mmKernelSetPageRangeInUseFlag+0x1f>
/home/yogi/src/os/chrisOSKernel/../chrisOS/src/init/kpaging.c:239
        mmKernelSetPageInUseFlag(cnt,inUse);
}
 100172b:	83 c4 0c             	add    esp,0xc
 100172e:	5b                   	pop    ebx
 100172f:	5e                   	pop    esi
 1001730:	5f                   	pop    edi
 1001731:	5d                   	pop    ebp
 1001732:	c3                   	ret    

01001733 <mmUnusePageRange>:
mmUnusePageRange():
/home/yogi/src/os/chrisOSKernel/../chrisOS/src/init/kpaging.c:242

void mmUnusePageRange()
{
 1001733:	f3 c3                	repz ret 
 1001735:	66 90                	xchg   ax,ax
 1001737:	90                   	nop

01001738 <reverse>:
reverse():
/home/yogi/src/os/chrisOSKernel/../chrisOS/src/init/utility.c:29
//#include <string.h>

/* reverse:  reverse string s in place */
extern int strlen(char*);
 void reverse(char s[])
 {
 1001738:	56                   	push   esi
 1001739:	53                   	push   ebx
 100173a:	83 ec 10             	sub    esp,0x10
 100173d:	8b 5c 24 1c          	mov    ebx,DWORD PTR [esp+0x1c]
/home/yogi/src/os/chrisOSKernel/../chrisOS/src/init/utility.c:33
     int i, j;
     char c;

     for (i = 0, j = strlen(s)-1; i<j; i++, j--) {
 1001741:	53                   	push   ebx
 1001742:	e8 e1 0e 00 00       	call   1002628 <strlen>
 1001747:	83 e8 01             	sub    eax,0x1
 100174a:	83 c4 10             	add    esp,0x10
 100174d:	85 c0                	test   eax,eax
 100174f:	7e 1f                	jle    1001770 <reverse+0x38>
 1001751:	ba 00 00 00 00       	mov    edx,0x0
/home/yogi/src/os/chrisOSKernel/../chrisOS/src/init/utility.c:34 (discriminator 3)
         c = s[i];
 1001756:	0f b6 34 13          	movzx  esi,BYTE PTR [ebx+edx*1]
/home/yogi/src/os/chrisOSKernel/../chrisOS/src/init/utility.c:35 (discriminator 3)
         s[i] = s[j];
 100175a:	0f b6 0c 03          	movzx  ecx,BYTE PTR [ebx+eax*1]
 100175e:	88 0c 13             	mov    BYTE PTR [ebx+edx*1],cl
/home/yogi/src/os/chrisOSKernel/../chrisOS/src/init/utility.c:36 (discriminator 3)
         s[j] = c;
 1001761:	89 f1                	mov    ecx,esi
 1001763:	88 0c 03             	mov    BYTE PTR [ebx+eax*1],cl
/home/yogi/src/os/chrisOSKernel/../chrisOS/src/init/utility.c:33 (discriminator 3)
 void reverse(char s[])
 {
     int i, j;
     char c;

     for (i = 0, j = strlen(s)-1; i<j; i++, j--) {
 1001766:	83 c2 01             	add    edx,0x1
 1001769:	83 e8 01             	sub    eax,0x1
 100176c:	39 c2                	cmp    edx,eax
 100176e:	7c e6                	jl     1001756 <reverse+0x1e>
/home/yogi/src/os/chrisOSKernel/../chrisOS/src/init/utility.c:38
         c = s[i];
         s[i] = s[j];
         s[j] = c;
     }
 }
 1001770:	83 c4 04             	add    esp,0x4
 1001773:	5b                   	pop    ebx
 1001774:	5e                   	pop    esi
 1001775:	c3                   	ret    

01001776 <itoa>:
itoa():
/home/yogi/src/os/chrisOSKernel/../chrisOS/src/init/utility.c:40
 void itoa(int n, char s[])
 {
 1001776:	55                   	push   ebp
 1001777:	57                   	push   edi
 1001778:	56                   	push   esi
 1001779:	53                   	push   ebx
 100177a:	83 ec 1c             	sub    esp,0x1c
 100177d:	8b 7c 24 34          	mov    edi,DWORD PTR [esp+0x34]
 1001781:	8b 44 24 30          	mov    eax,DWORD PTR [esp+0x30]
 1001785:	c1 f8 1f             	sar    eax,0x1f
 1001788:	89 c1                	mov    ecx,eax
 100178a:	33 4c 24 30          	xor    ecx,DWORD PTR [esp+0x30]
 100178e:	29 c1                	sub    ecx,eax
 1001790:	be 00 00 00 00       	mov    esi,0x0
/home/yogi/src/os/chrisOSKernel/../chrisOS/src/init/utility.c:47

     if ((sign = n) < 0)  /* record sign */
         n = -n;          /* make n positive */
     i = 0;
     do {       /* generate digits in reverse order */
         s[i++] = n % 10 + '0';   /* get next digit */
 1001795:	bd 67 66 66 66       	mov    ebp,0x66666667
 100179a:	eb 02                	jmp    100179e <itoa+0x28>
 100179c:	89 de                	mov    esi,ebx
/home/yogi/src/os/chrisOSKernel/../chrisOS/src/init/utility.c:47 (discriminator 1)
 100179e:	8d 5e 01             	lea    ebx,[esi+0x1]
 10017a1:	89 5c 24 0c          	mov    DWORD PTR [esp+0xc],ebx
 10017a5:	89 c8                	mov    eax,ecx
 10017a7:	f7 ed                	imul   ebp
 10017a9:	c1 fa 02             	sar    edx,0x2
 10017ac:	89 c8                	mov    eax,ecx
 10017ae:	c1 f8 1f             	sar    eax,0x1f
 10017b1:	29 c2                	sub    edx,eax
 10017b3:	8d 04 92             	lea    eax,[edx+edx*4]
 10017b6:	01 c0                	add    eax,eax
 10017b8:	29 c1                	sub    ecx,eax
 10017ba:	83 c1 30             	add    ecx,0x30
 10017bd:	88 4c 1f ff          	mov    BYTE PTR [edi+ebx*1-0x1],cl
/home/yogi/src/os/chrisOSKernel/../chrisOS/src/init/utility.c:48 (discriminator 1)
     } while ((n /= 10) > 0);     /* delete it */
 10017c1:	89 d1                	mov    ecx,edx
 10017c3:	85 d2                	test   edx,edx
 10017c5:	7f d5                	jg     100179c <itoa+0x26>
/home/yogi/src/os/chrisOSKernel/../chrisOS/src/init/utility.c:49
     if (sign < 0)
 10017c7:	83 7c 24 30 00       	cmp    DWORD PTR [esp+0x30],0x0
 10017cc:	79 0b                	jns    10017d9 <itoa+0x63>
/home/yogi/src/os/chrisOSKernel/../chrisOS/src/init/utility.c:50
         s[i++] = '-';
 10017ce:	8d 5e 02             	lea    ebx,[esi+0x2]
 10017d1:	8b 44 24 0c          	mov    eax,DWORD PTR [esp+0xc]
 10017d5:	c6 04 07 2d          	mov    BYTE PTR [edi+eax*1],0x2d
/home/yogi/src/os/chrisOSKernel/../chrisOS/src/init/utility.c:51
     s[i] = '\0';
 10017d9:	c6 04 1f 00          	mov    BYTE PTR [edi+ebx*1],0x0
/home/yogi/src/os/chrisOSKernel/../chrisOS/src/init/utility.c:52
     reverse(s);
 10017dd:	83 ec 0c             	sub    esp,0xc
 10017e0:	57                   	push   edi
 10017e1:	e8 52 ff ff ff       	call   1001738 <reverse>
/home/yogi/src/os/chrisOSKernel/../chrisOS/src/init/utility.c:53
 }
 10017e6:	83 c4 2c             	add    esp,0x2c
 10017e9:	5b                   	pop    ebx
 10017ea:	5e                   	pop    esi
 10017eb:	5f                   	pop    edi
 10017ec:	5d                   	pop    ebp
 10017ed:	c3                   	ret    

010017ee <itox>:
itox():
/home/yogi/src/os/chrisOSKernel/../chrisOS/src/init/utility.c:55
void itox(unsigned int i, char *s)
{
 10017ee:	53                   	push   ebx
 10017ef:	8b 54 24 08          	mov    edx,DWORD PTR [esp+0x8]
 10017f3:	8b 5c 24 0c          	mov    ebx,DWORD PTR [esp+0xc]
/home/yogi/src/os/chrisOSKernel/../chrisOS/src/init/utility.c:58
    unsigned char n;

    s += 4;
 10017f7:	8d 43 04             	lea    eax,[ebx+0x4]
/home/yogi/src/os/chrisOSKernel/../chrisOS/src/init/utility.c:59
    *s = '\0';
 10017fa:	c6 43 04 00          	mov    BYTE PTR [ebx+0x4],0x0
 10017fe:	83 eb 04             	sub    ebx,0x4
/home/yogi/src/os/chrisOSKernel/../chrisOS/src/init/utility.c:62 (discriminator 3)

    for (n = 8; n != 0; --n) {
        *--s = "0123456789ABCDEF"[i & 0x0F];
 1001801:	83 e8 01             	sub    eax,0x1
 1001804:	89 d1                	mov    ecx,edx
 1001806:	83 e1 0f             	and    ecx,0xf
 1001809:	0f b6 89 67 77 00 01 	movzx  ecx,BYTE PTR [ecx+0x1007767]
 1001810:	88 08                	mov    BYTE PTR [eax],cl
/home/yogi/src/os/chrisOSKernel/../chrisOS/src/init/utility.c:63 (discriminator 3)
        i >>= 4;
 1001812:	c1 ea 04             	shr    edx,0x4
/home/yogi/src/os/chrisOSKernel/../chrisOS/src/init/utility.c:61 (discriminator 3)
    unsigned char n;

    s += 4;
    *s = '\0';

    for (n = 8; n != 0; --n) {
 1001815:	39 c3                	cmp    ebx,eax
 1001817:	75 e8                	jne    1001801 <itox+0x13>
/home/yogi/src/os/chrisOSKernel/../chrisOS/src/init/utility.c:65
        *--s = "0123456789ABCDEF"[i & 0x0F];
        i >>= 4;
    }
}
 1001819:	5b                   	pop    ebx
 100181a:	c3                   	ret    

0100181b <atoi>:
atoi():
/home/yogi/src/os/chrisOSKernel/../chrisOS/src/init/utility.c:68
// A simple atoi() function - from http://www.geeksforgeeks.org/write-your-own-atoi
int atoi(char *str)
{
 100181b:	8b 4c 24 04          	mov    ecx,DWORD PTR [esp+0x4]
/home/yogi/src/os/chrisOSKernel/../chrisOS/src/init/utility.c:73
    int res = 0; // Initialize result
  
    // Iterate through all characters of input string and
    // update result
    for (int i = 0; str[i] != '\0'; ++i)
 100181f:	0f b6 11             	movzx  edx,BYTE PTR [ecx]
 1001822:	84 d2                	test   dl,dl
 1001824:	74 1f                	je     1001845 <atoi+0x2a>
 1001826:	83 c1 01             	add    ecx,0x1
 1001829:	b8 00 00 00 00       	mov    eax,0x0
/home/yogi/src/os/chrisOSKernel/../chrisOS/src/init/utility.c:74 (discriminator 3)
        res = res*10 + str[i] - '0';
 100182e:	8d 04 80             	lea    eax,[eax+eax*4]
 1001831:	0f be d2             	movsx  edx,dl
 1001834:	8d 44 42 d0          	lea    eax,[edx+eax*2-0x30]
 1001838:	83 c1 01             	add    ecx,0x1
/home/yogi/src/os/chrisOSKernel/../chrisOS/src/init/utility.c:73 (discriminator 3)
{
    int res = 0; // Initialize result
  
    // Iterate through all characters of input string and
    // update result
    for (int i = 0; str[i] != '\0'; ++i)
 100183b:	0f b6 51 ff          	movzx  edx,BYTE PTR [ecx-0x1]
 100183f:	84 d2                	test   dl,dl
 1001841:	75 eb                	jne    100182e <atoi+0x13>
 1001843:	f3 c3                	repz ret 
/home/yogi/src/os/chrisOSKernel/../chrisOS/src/init/utility.c:69
    }
}
// A simple atoi() function - from http://www.geeksforgeeks.org/write-your-own-atoi
int atoi(char *str)
{
    int res = 0; // Initialize result
 1001845:	b8 00 00 00 00       	mov    eax,0x0
/home/yogi/src/os/chrisOSKernel/../chrisOS/src/init/utility.c:78
    for (int i = 0; str[i] != '\0'; ++i)
        res = res*10 + str[i] - '0';
  
    // return result.
    return res;
}
 100184a:	c3                   	ret    

0100184b <convert>:
convert():
/home/yogi/src/os/chrisOSKernel/../chrisOS/src/init/utility.c:81

int convert(int s)
{
 100184b:	83 ec 10             	sub    esp,0x10
 100184e:	8b 44 24 14          	mov    eax,DWORD PTR [esp+0x14]
/home/yogi/src/os/chrisOSKernel/../chrisOS/src/init/utility.c:83
  int c;
  char hex[] = {'A', 'B', 'C', 'D', 'E', 'F'};
 1001852:	c6 44 24 0a 41       	mov    BYTE PTR [esp+0xa],0x41
 1001857:	c6 44 24 0b 42       	mov    BYTE PTR [esp+0xb],0x42
 100185c:	c6 44 24 0c 43       	mov    BYTE PTR [esp+0xc],0x43
 1001861:	c6 44 24 0d 44       	mov    BYTE PTR [esp+0xd],0x44
 1001866:	c6 44 24 0e 45       	mov    BYTE PTR [esp+0xe],0x45
 100186b:	c6 44 24 0f 46       	mov    BYTE PTR [esp+0xf],0x46
/home/yogi/src/os/chrisOSKernel/../chrisOS/src/init/utility.c:84
  c = (s >= 0 && s < 9) ? s + '0' : hex[s - 10];
 1001870:	83 f8 08             	cmp    eax,0x8
 1001873:	77 05                	ja     100187a <convert+0x2f>
/home/yogi/src/os/chrisOSKernel/../chrisOS/src/init/utility.c:84 (discriminator 1)
 1001875:	83 c0 30             	add    eax,0x30
 1001878:	eb 04                	jmp    100187e <convert+0x33>
/home/yogi/src/os/chrisOSKernel/../chrisOS/src/init/utility.c:84 (discriminator 2)
 100187a:	0f be 04 04          	movsx  eax,BYTE PTR [esp+eax*1]
/home/yogi/src/os/chrisOSKernel/../chrisOS/src/init/utility.c:86 (discriminator 4)
  return c;
}
 100187e:	83 c4 10             	add    esp,0x10
 1001881:	c3                   	ret    

01001882 <itoha>:
itoha():
/home/yogi/src/os/chrisOSKernel/../chrisOS/src/init/utility.c:89

void itoha(unsigned int n, char *buf)
{
 1001882:	55                   	push   ebp
 1001883:	57                   	push   edi
 1001884:	56                   	push   esi
 1001885:	53                   	push   ebx
 1001886:	8b 5c 24 14          	mov    ebx,DWORD PTR [esp+0x14]
 100188a:	8b 7c 24 18          	mov    edi,DWORD PTR [esp+0x18]
/home/yogi/src/os/chrisOSKernel/../chrisOS/src/init/utility.c:92
  int i = 0, j =0;
  j=7;
  while(n != 0)
 100188e:	85 db                	test   ebx,ebx
 1001890:	74 25                	je     10018b7 <itoha+0x35>
 1001892:	be 07 00 00 00       	mov    esi,0x7
/home/yogi/src/os/chrisOSKernel/../chrisOS/src/init/utility.c:94
  {
    i = n % 16;
 1001897:	89 dd                	mov    ebp,ebx
 1001899:	83 e5 0f             	and    ebp,0xf
/home/yogi/src/os/chrisOSKernel/../chrisOS/src/init/utility.c:95
      buf[j--] = convert(i);
 100189c:	83 ee 01             	sub    esi,0x1
 100189f:	55                   	push   ebp
 10018a0:	e8 a6 ff ff ff       	call   100184b <convert>
 10018a5:	83 c4 04             	add    esp,0x4
 10018a8:	88 44 37 01          	mov    BYTE PTR [edi+esi*1+0x1],al
/home/yogi/src/os/chrisOSKernel/../chrisOS/src/init/utility.c:96
      n = (n - i) / 16;
 10018ac:	29 eb                	sub    ebx,ebp
 10018ae:	c1 eb 04             	shr    ebx,0x4
/home/yogi/src/os/chrisOSKernel/../chrisOS/src/init/utility.c:92

void itoha(unsigned int n, char *buf)
{
  int i = 0, j =0;
  j=7;
  while(n != 0)
 10018b1:	85 db                	test   ebx,ebx
 10018b3:	75 e2                	jne    1001897 <itoha+0x15>
 10018b5:	eb 05                	jmp    10018bc <itoha+0x3a>
/home/yogi/src/os/chrisOSKernel/../chrisOS/src/init/utility.c:91
}

void itoha(unsigned int n, char *buf)
{
  int i = 0, j =0;
  j=7;
 10018b7:	be 07 00 00 00       	mov    esi,0x7
/home/yogi/src/os/chrisOSKernel/../chrisOS/src/init/utility.c:98
  {
    i = n % 16;
      buf[j--] = convert(i);
      n = (n - i) / 16;
  }
  buf[j] = '\0';
 10018bc:	c6 04 37 00          	mov    BYTE PTR [edi+esi*1],0x0
/home/yogi/src/os/chrisOSKernel/../chrisOS/src/init/utility.c:99
}
 10018c0:	5b                   	pop    ebx
 10018c1:	5e                   	pop    esi
 10018c2:	5f                   	pop    edi
 10018c3:	5d                   	pop    ebp
 10018c4:	c3                   	ret    

010018c5 <identify_data_sizes>:
identify_data_sizes():
/home/yogi/src/os/chrisOSKernel/../chrisOS/src/init/utility.c:102

void identify_data_sizes(sizeof_t* sizes)
{
 10018c5:	8b 44 24 04          	mov    eax,DWORD PTR [esp+0x4]
/home/yogi/src/os/chrisOSKernel/../chrisOS/src/init/utility.c:103
    sizes->shortSize = sizeof(short);
 10018c9:	66 c7 00 02 00       	mov    WORD PTR [eax],0x2
/home/yogi/src/os/chrisOSKernel/../chrisOS/src/init/utility.c:104
    sizes->intSize = sizeof(int);
 10018ce:	66 c7 40 02 04 00    	mov    WORD PTR [eax+0x2],0x4
/home/yogi/src/os/chrisOSKernel/../chrisOS/src/init/utility.c:105
    sizes->longSize = sizeof(long);
 10018d4:	66 c7 40 04 04 00    	mov    WORD PTR [eax+0x4],0x4
/home/yogi/src/os/chrisOSKernel/../chrisOS/src/init/utility.c:106
    sizes->longLongSize = sizeof(long long);
 10018da:	66 c7 40 06 08 00    	mov    WORD PTR [eax+0x6],0x8
/home/yogi/src/os/chrisOSKernel/../chrisOS/src/init/utility.c:107
    sizes->longLongIntSize = sizeof(long long int);
 10018e0:	66 c7 40 08 08 00    	mov    WORD PTR [eax+0x8],0x8
 10018e6:	c3                   	ret    

010018e7 <memset>:
memset():
/home/yogi/src/os/chrisOSKernel/../chrisOS/src/init/utility.c:111
}

void *memset(void *d1, int val, size_t len)
{
 10018e7:	56                   	push   esi
 10018e8:	53                   	push   ebx
 10018e9:	8b 44 24 0c          	mov    eax,DWORD PTR [esp+0xc]
 10018ed:	8b 74 24 10          	mov    esi,DWORD PTR [esp+0x10]
 10018f1:	8b 54 24 14          	mov    edx,DWORD PTR [esp+0x14]
/home/yogi/src/os/chrisOSKernel/../chrisOS/src/init/utility.c:114
    uint8_t *d = d1;
    uint16_t*e = d1;
    uint16_t eVal=(val << 16) | (val << 8) | val;
 10018f5:	89 f1                	mov    ecx,esi
 10018f7:	c1 e1 08             	shl    ecx,0x8
/home/yogi/src/os/chrisOSKernel/../chrisOS/src/init/utility.c:118
    uint32_t*f = d1;
    uint32_t fVal=(val << 24) | (val << 16) | (val << 8) | val;
    
    if ((len%4)==0)
 10018fa:	f6 c2 03             	test   dl,0x3
 10018fd:	75 16                	jne    1001915 <memset+0x2e>
/home/yogi/src/os/chrisOSKernel/../chrisOS/src/init/utility.c:119
    while (len-=4) {
 10018ff:	83 ea 04             	sub    edx,0x4
 1001902:	74 43                	je     1001947 <memset+0x60>
/home/yogi/src/os/chrisOSKernel/../chrisOS/src/init/utility.c:120
        *d++ = fVal;
 1001904:	89 f3                	mov    ebx,esi
 1001906:	89 c1                	mov    ecx,eax
 1001908:	83 c1 01             	add    ecx,0x1
 100190b:	88 59 ff             	mov    BYTE PTR [ecx-0x1],bl
/home/yogi/src/os/chrisOSKernel/../chrisOS/src/init/utility.c:119
    uint16_t eVal=(val << 16) | (val << 8) | val;
    uint32_t*f = d1;
    uint32_t fVal=(val << 24) | (val << 16) | (val << 8) | val;
    
    if ((len%4)==0)
    while (len-=4) {
 100190e:	83 ea 04             	sub    edx,0x4
 1001911:	75 f5                	jne    1001908 <memset+0x21>
 1001913:	eb 32                	jmp    1001947 <memset+0x60>
/home/yogi/src/os/chrisOSKernel/../chrisOS/src/init/utility.c:122
        *d++ = fVal;
    }
    else if (((len%2)==0))
 1001915:	f6 c2 01             	test   dl,0x1
 1001918:	74 0b                	je     1001925 <memset+0x3e>
 100191a:	8d 1c 10             	lea    ebx,[eax+edx*1]
/home/yogi/src/os/chrisOSKernel/../chrisOS/src/init/utility.c:127
    while (len-=2) {
        *d++ = eVal;
    }
    else
    while (len--) {
 100191d:	89 c1                	mov    ecx,eax
 100191f:	85 d2                	test   edx,edx
 1001921:	75 18                	jne    100193b <memset+0x54>
 1001923:	eb 22                	jmp    1001947 <memset+0x60>
/home/yogi/src/os/chrisOSKernel/../chrisOS/src/init/utility.c:123
    if ((len%4)==0)
    while (len-=4) {
        *d++ = fVal;
    }
    else if (((len%2)==0))
    while (len-=2) {
 1001925:	83 ea 02             	sub    edx,0x2
 1001928:	74 1d                	je     1001947 <memset+0x60>
 100192a:	89 c3                	mov    ebx,eax
/home/yogi/src/os/chrisOSKernel/../chrisOS/src/init/utility.c:124
        *d++ = eVal;
 100192c:	09 f1                	or     ecx,esi
 100192e:	83 c3 01             	add    ebx,0x1
 1001931:	88 4b ff             	mov    BYTE PTR [ebx-0x1],cl
/home/yogi/src/os/chrisOSKernel/../chrisOS/src/init/utility.c:123
    if ((len%4)==0)
    while (len-=4) {
        *d++ = fVal;
    }
    else if (((len%2)==0))
    while (len-=2) {
 1001934:	83 ea 02             	sub    edx,0x2
 1001937:	75 f5                	jne    100192e <memset+0x47>
 1001939:	eb 0c                	jmp    1001947 <memset+0x60>
/home/yogi/src/os/chrisOSKernel/../chrisOS/src/init/utility.c:128
        *d++ = eVal;
    }
    else
    while (len--) {
        *d++ = val;
 100193b:	83 c1 01             	add    ecx,0x1
 100193e:	89 f2                	mov    edx,esi
 1001940:	88 51 ff             	mov    BYTE PTR [ecx-0x1],dl
/home/yogi/src/os/chrisOSKernel/../chrisOS/src/init/utility.c:127
    else if (((len%2)==0))
    while (len-=2) {
        *d++ = eVal;
    }
    else
    while (len--) {
 1001943:	39 cb                	cmp    ebx,ecx
 1001945:	75 f4                	jne    100193b <memset+0x54>
/home/yogi/src/os/chrisOSKernel/../chrisOS/src/init/utility.c:131
        *d++ = val;
    }
    return d1;
}
 1001947:	5b                   	pop    ebx
 1001948:	5e                   	pop    esi
 1001949:	c3                   	ret    

0100194a <bcdToDec>:
bcdToDec():
/home/yogi/src/os/chrisOSKernel/../chrisOS/src/init/utility.c:134

uint8_t bcdToDec(uint8_t val)
{
 100194a:	8b 44 24 04          	mov    eax,DWORD PTR [esp+0x4]
/home/yogi/src/os/chrisOSKernel/../chrisOS/src/init/utility.c:135
  return ( (val/16*10) + (val%16) );
 100194e:	89 c2                	mov    edx,eax
 1001950:	c0 ea 04             	shr    dl,0x4
 1001953:	8d 14 92             	lea    edx,[edx+edx*4]
 1001956:	83 e0 0f             	and    eax,0xf
 1001959:	8d 04 50             	lea    eax,[eax+edx*2]
/home/yogi/src/os/chrisOSKernel/../chrisOS/src/init/utility.c:136
}
 100195c:	c3                   	ret    

0100195d <decToBcd>:
decToBcd():
/home/yogi/src/os/chrisOSKernel/../chrisOS/src/init/utility.c:139

uint8_t decToBcd(uint8_t val)
{
 100195d:	8b 44 24 04          	mov    eax,DWORD PTR [esp+0x4]
/home/yogi/src/os/chrisOSKernel/../chrisOS/src/init/utility.c:140
  return ( (val/10*16) + (val%10) );
 1001961:	0f b6 c8             	movzx  ecx,al
 1001964:	8d 14 89             	lea    edx,[ecx+ecx*4]
 1001967:	8d 14 d1             	lea    edx,[ecx+edx*8]
 100196a:	8d 14 92             	lea    edx,[edx+edx*4]
 100196d:	66 c1 ea 0b          	shr    dx,0xb
 1001971:	89 d1                	mov    ecx,edx
 1001973:	c1 e1 04             	shl    ecx,0x4
 1001976:	8d 14 92             	lea    edx,[edx+edx*4]
 1001979:	01 d2                	add    edx,edx
 100197b:	29 d0                	sub    eax,edx
 100197d:	01 c8                	add    eax,ecx
/home/yogi/src/os/chrisOSKernel/../chrisOS/src/init/utility.c:141
}
 100197f:	c3                   	ret    

01001980 <initSystemDate>:
initSystemDate():
/home/yogi/src/os/chrisOSKernel/../chrisOS/src/init/utility.c:143
void initSystemDate()
{
 1001980:	83 ec 3c             	sub    esp,0x3c
outb():
/home/yogi/src/os/chrisOSKernel/include/io.h:23
void IRQ_set_mask(unsigned char IRQline);
void IRQ_clear_mask(unsigned char IRQline);

static __inline void outb(unsigned short __port, unsigned char __val)
{
	__asm__ volatile ("outb %1, %0" : : "a" (__val), "dN" (__port));
 1001983:	b8 00 00 00 00       	mov    eax,0x0
 1001988:	e6 70                	out    0x70,al
inb():
/home/yogi/src/os/chrisOSKernel/include/io.h:39
}

static __inline unsigned char inb(unsigned short __port)
{
	unsigned char __val;
	__asm__ volatile ("inb %0, %1" : "=a" (__val) : "dN" (__port));
 100198a:	e4 71                	in     al,0x71
initSystemDate():
/home/yogi/src/os/chrisOSKernel/../chrisOS/src/init/utility.c:147
    struct tm tmbuf;

    outb(0x70, 0x00);
    tmbuf.tm_sec = bcdToDec(inb(0x71));
 100198c:	0f b6 c0             	movzx  eax,al
 100198f:	50                   	push   eax
 1001990:	e8 b5 ff ff ff       	call   100194a <bcdToDec>
 1001995:	0f b6 c0             	movzx  eax,al
 1001998:	89 44 24 08          	mov    DWORD PTR [esp+0x8],eax
outb():
/home/yogi/src/os/chrisOSKernel/include/io.h:23
void IRQ_set_mask(unsigned char IRQline);
void IRQ_clear_mask(unsigned char IRQline);

static __inline void outb(unsigned short __port, unsigned char __val)
{
	__asm__ volatile ("outb %1, %0" : : "a" (__val), "dN" (__port));
 100199c:	b8 02 00 00 00       	mov    eax,0x2
 10019a1:	e6 70                	out    0x70,al
inb():
/home/yogi/src/os/chrisOSKernel/include/io.h:39
}

static __inline unsigned char inb(unsigned short __port)
{
	unsigned char __val;
	__asm__ volatile ("inb %0, %1" : "=a" (__val) : "dN" (__port));
 10019a3:	e4 71                	in     al,0x71
initSystemDate():
/home/yogi/src/os/chrisOSKernel/../chrisOS/src/init/utility.c:149
    outb(0x70, 0x02);
    tmbuf.tm_min = bcdToDec(inb(0x71));
 10019a5:	0f b6 c0             	movzx  eax,al
 10019a8:	89 04 24             	mov    DWORD PTR [esp],eax
 10019ab:	e8 9a ff ff ff       	call   100194a <bcdToDec>
 10019b0:	0f b6 c0             	movzx  eax,al
 10019b3:	89 44 24 0c          	mov    DWORD PTR [esp+0xc],eax
outb():
/home/yogi/src/os/chrisOSKernel/include/io.h:23
void IRQ_set_mask(unsigned char IRQline);
void IRQ_clear_mask(unsigned char IRQline);

static __inline void outb(unsigned short __port, unsigned char __val)
{
	__asm__ volatile ("outb %1, %0" : : "a" (__val), "dN" (__port));
 10019b7:	b8 04 00 00 00       	mov    eax,0x4
 10019bc:	e6 70                	out    0x70,al
inb():
/home/yogi/src/os/chrisOSKernel/include/io.h:39
}

static __inline unsigned char inb(unsigned short __port)
{
	unsigned char __val;
	__asm__ volatile ("inb %0, %1" : "=a" (__val) : "dN" (__port));
 10019be:	e4 71                	in     al,0x71
initSystemDate():
/home/yogi/src/os/chrisOSKernel/../chrisOS/src/init/utility.c:151
    outb(0x70, 0x04);
    tmbuf.tm_hour = bcdToDec(inb(0x71));
 10019c0:	0f b6 c0             	movzx  eax,al
 10019c3:	89 04 24             	mov    DWORD PTR [esp],eax
 10019c6:	e8 7f ff ff ff       	call   100194a <bcdToDec>
 10019cb:	0f b6 c0             	movzx  eax,al
 10019ce:	89 44 24 10          	mov    DWORD PTR [esp+0x10],eax
outb():
/home/yogi/src/os/chrisOSKernel/include/io.h:23
void IRQ_set_mask(unsigned char IRQline);
void IRQ_clear_mask(unsigned char IRQline);

static __inline void outb(unsigned short __port, unsigned char __val)
{
	__asm__ volatile ("outb %1, %0" : : "a" (__val), "dN" (__port));
 10019d2:	b8 07 00 00 00       	mov    eax,0x7
 10019d7:	e6 70                	out    0x70,al
inb():
/home/yogi/src/os/chrisOSKernel/include/io.h:39
}

static __inline unsigned char inb(unsigned short __port)
{
	unsigned char __val;
	__asm__ volatile ("inb %0, %1" : "=a" (__val) : "dN" (__port));
 10019d9:	e4 71                	in     al,0x71
initSystemDate():
/home/yogi/src/os/chrisOSKernel/../chrisOS/src/init/utility.c:153
    outb(0x70, 0x07);
    tmbuf.tm_mday = bcdToDec(inb(0x71));
 10019db:	0f b6 c0             	movzx  eax,al
 10019de:	89 04 24             	mov    DWORD PTR [esp],eax
 10019e1:	e8 64 ff ff ff       	call   100194a <bcdToDec>
 10019e6:	0f b6 c0             	movzx  eax,al
 10019e9:	89 44 24 14          	mov    DWORD PTR [esp+0x14],eax
outb():
/home/yogi/src/os/chrisOSKernel/include/io.h:23
void IRQ_set_mask(unsigned char IRQline);
void IRQ_clear_mask(unsigned char IRQline);

static __inline void outb(unsigned short __port, unsigned char __val)
{
	__asm__ volatile ("outb %1, %0" : : "a" (__val), "dN" (__port));
 10019ed:	b8 08 00 00 00       	mov    eax,0x8
 10019f2:	e6 70                	out    0x70,al
inb():
/home/yogi/src/os/chrisOSKernel/include/io.h:39
}

static __inline unsigned char inb(unsigned short __port)
{
	unsigned char __val;
	__asm__ volatile ("inb %0, %1" : "=a" (__val) : "dN" (__port));
 10019f4:	e4 71                	in     al,0x71
initSystemDate():
/home/yogi/src/os/chrisOSKernel/../chrisOS/src/init/utility.c:155
    outb(0x70, 0x08);
    tmbuf.tm_mon = bcdToDec(inb(0x71));
 10019f6:	0f b6 c0             	movzx  eax,al
 10019f9:	89 04 24             	mov    DWORD PTR [esp],eax
 10019fc:	e8 49 ff ff ff       	call   100194a <bcdToDec>
 1001a01:	0f b6 c0             	movzx  eax,al
 1001a04:	89 44 24 18          	mov    DWORD PTR [esp+0x18],eax
outb():
/home/yogi/src/os/chrisOSKernel/include/io.h:23
void IRQ_set_mask(unsigned char IRQline);
void IRQ_clear_mask(unsigned char IRQline);

static __inline void outb(unsigned short __port, unsigned char __val)
{
	__asm__ volatile ("outb %1, %0" : : "a" (__val), "dN" (__port));
 1001a08:	b8 09 00 00 00       	mov    eax,0x9
 1001a0d:	e6 70                	out    0x70,al
inb():
/home/yogi/src/os/chrisOSKernel/include/io.h:39
}

static __inline unsigned char inb(unsigned short __port)
{
	unsigned char __val;
	__asm__ volatile ("inb %0, %1" : "=a" (__val) : "dN" (__port));
 1001a0f:	e4 71                	in     al,0x71
initSystemDate():
/home/yogi/src/os/chrisOSKernel/../chrisOS/src/init/utility.c:157
    outb(0x70, 0x09);
    tmbuf.tm_year = bcdToDec(inb(0x71));
 1001a11:	0f b6 c0             	movzx  eax,al
 1001a14:	89 04 24             	mov    DWORD PTR [esp],eax
 1001a17:	e8 2e ff ff ff       	call   100194a <bcdToDec>
 1001a1c:	83 ec 08             	sub    esp,0x8
/home/yogi/src/os/chrisOSKernel/../chrisOS/src/init/utility.c:158
    tmbuf.tm_isdst = -1;
 1001a1f:	c7 44 24 30 ff ff ff 	mov    DWORD PTR [esp+0x30],0xffffffff
 1001a26:	ff 
/home/yogi/src/os/chrisOSKernel/../chrisOS/src/init/utility.c:160
    tmbuf.tm_year += 2000;
    tmbuf.tm_year = tmbuf.tm_year - 1900;
 1001a27:	0f b6 c0             	movzx  eax,al
 1001a2a:	83 c0 64             	add    eax,0x64
 1001a2d:	89 44 24 24          	mov    DWORD PTR [esp+0x24],eax
/home/yogi/src/os/chrisOSKernel/../chrisOS/src/init/utility.c:161
    kSystemStartTime = mktime(&tmbuf);
 1001a31:	8d 44 24 10          	lea    eax,[esp+0x10]
 1001a35:	50                   	push   eax
 1001a36:	e8 ab 0f 00 00       	call   10029e6 <mktime>
 1001a3b:	a3 88 02 12 00       	mov    ds:0x120288,eax
/home/yogi/src/os/chrisOSKernel/../chrisOS/src/init/utility.c:162
    kSystemCurrentTime = kSystemStartTime;
 1001a40:	a3 8c 02 12 00       	mov    ds:0x12028c,eax
/home/yogi/src/os/chrisOSKernel/../chrisOS/src/init/utility.c:164
//printf("System Date = %d/%d/%d %d:%d:%d\n", tmbuf.tm_mon, tmbuf.tm_mday, tmbuf.tm_year, tmbuf.tm_hour, tmbuf.tm_min, tmbuf.tm_sec, tmbuf.tm_hour, tmbuf.tm_min, tmbuf.tm_sec);
}
 1001a45:	83 c4 4c             	add    esp,0x4c
 1001a48:	c3                   	ret    

01001a49 <strtoupper>:
strtoupper():
/home/yogi/src/os/chrisOSKernel/../chrisOS/src/init/utility.c:166
char * strtoupper(char* pointerToString)
{
 1001a49:	56                   	push   esi
 1001a4a:	53                   	push   ebx
 1001a4b:	83 ec 10             	sub    esp,0x10
 1001a4e:	8b 5c 24 1c          	mov    ebx,DWORD PTR [esp+0x1c]
/home/yogi/src/os/chrisOSKernel/../chrisOS/src/init/utility.c:167
    uint8_t start=0, length=strlen(pointerToString);
 1001a52:	53                   	push   ebx
 1001a53:	e8 d0 0b 00 00       	call   1002628 <strlen>
/home/yogi/src/os/chrisOSKernel/../chrisOS/src/init/utility.c:171
    char* myPtr=pointerToString;
    
        // Trim.Start:
        while (start<length)
 1001a58:	83 c4 10             	add    esp,0x10
 1001a5b:	84 c0                	test   al,al
 1001a5d:	74 23                	je     1001a82 <strtoupper+0x39>
 1001a5f:	89 da                	mov    edx,ebx
 1001a61:	83 e8 01             	sub    eax,0x1
 1001a64:	0f b6 c0             	movzx  eax,al
 1001a67:	8d 74 03 01          	lea    esi,[ebx+eax*1+0x1]
/home/yogi/src/os/chrisOSKernel/../chrisOS/src/init/utility.c:173
        {
            if (myPtr[start]>='a' && myPtr[start]<='z')
 1001a6b:	0f b6 02             	movzx  eax,BYTE PTR [edx]
 1001a6e:	8d 48 9f             	lea    ecx,[eax-0x61]
 1001a71:	80 f9 19             	cmp    cl,0x19
 1001a74:	77 05                	ja     1001a7b <strtoupper+0x32>
/home/yogi/src/os/chrisOSKernel/../chrisOS/src/init/utility.c:174
                myPtr[start]-=32;
 1001a76:	83 e8 20             	sub    eax,0x20
 1001a79:	88 02                	mov    BYTE PTR [edx],al
 1001a7b:	83 c2 01             	add    edx,0x1
/home/yogi/src/os/chrisOSKernel/../chrisOS/src/init/utility.c:171
{
    uint8_t start=0, length=strlen(pointerToString);
    char* myPtr=pointerToString;
    
        // Trim.Start:
        while (start<length)
 1001a7e:	39 f2                	cmp    edx,esi
 1001a80:	75 e9                	jne    1001a6b <strtoupper+0x22>
/home/yogi/src/os/chrisOSKernel/../chrisOS/src/init/utility.c:179
                myPtr[start]-=32;
            start++;
        }

    return pointerToString;
}
 1001a82:	89 d8                	mov    eax,ebx
 1001a84:	83 c4 04             	add    esp,0x4
 1001a87:	5b                   	pop    ebx
 1001a88:	5e                   	pop    esi
 1001a89:	c3                   	ret    

01001a8a <printDumpedRegs>:
printDumpedRegs():
/home/yogi/src/os/chrisOSKernel/../chrisOS/src/init/utility.c:182

void printDumpedRegs()
{
 1001a8a:	57                   	push   edi
 1001a8b:	56                   	push   esi
 1001a8c:	53                   	push   ebx
/home/yogi/src/os/chrisOSKernel/../chrisOS/src/init/utility.c:183
    uint32_t esp = exceptionSavedESP;
 1001a8d:	8b 35 ec 01 12 00    	mov    esi,DWORD PTR ds:0x1201ec
/home/yogi/src/os/chrisOSKernel/../chrisOS/src/init/utility.c:187
    uint8_t* lCSIPPtr;

    
    lCSIPPtr=(uint8_t*)(exceptionEIP);
 1001a93:	8b 1d f8 01 12 00    	mov    ebx,DWORD PTR ds:0x1201f8
/home/yogi/src/os/chrisOSKernel/../chrisOS/src/init/utility.c:188
    printk("EAX=%08X\tEBX=%08X\tECX=%08X\tEDX=%08X\tEFL=%08X\n", exceptionAX, exceptionBX, exceptionCX, exceptionDX,exceptionFlags);
 1001a99:	83 ec 08             	sub    esp,0x8
 1001a9c:	ff 35 f0 01 12 00    	push   DWORD PTR ds:0x1201f0
 1001aa2:	ff 35 bc 01 12 00    	push   DWORD PTR ds:0x1201bc
 1001aa8:	ff 35 b8 01 12 00    	push   DWORD PTR ds:0x1201b8
 1001aae:	ff 35 b4 01 12 00    	push   DWORD PTR ds:0x1201b4
 1001ab4:	ff 35 b0 01 12 00    	push   DWORD PTR ds:0x1201b0
 1001aba:	68 1c 81 00 01       	push   0x100811c
 1001abf:	e8 b7 0a 00 00       	call   100257b <printk>
/home/yogi/src/os/chrisOSKernel/../chrisOS/src/init/utility.c:189
    printk("EBP=%08X\tESI=%08X\tEDI=%08X\tESP=%08X\n", exceptionBP, exceptionSI, exceptionDI, exceptionSavedESP);
 1001ac4:	83 c4 14             	add    esp,0x14
 1001ac7:	ff 35 ec 01 12 00    	push   DWORD PTR ds:0x1201ec
 1001acd:	ff 35 c4 01 12 00    	push   DWORD PTR ds:0x1201c4
 1001ad3:	ff 35 c0 01 12 00    	push   DWORD PTR ds:0x1201c0
 1001ad9:	ff 35 c8 01 12 00    	push   DWORD PTR ds:0x1201c8
 1001adf:	68 4c 81 00 01       	push   0x100814c
 1001ae4:	e8 92 0a 00 00       	call   100257b <printk>
/home/yogi/src/os/chrisOSKernel/../chrisOS/src/init/utility.c:190
    printk("CR0=%08X\tCR2=%08X\tCR3=%08X\tCR4=%08X\n", exceptionCR0, exceptionCR2, exceptionCR3, exceptionCR4);
 1001ae9:	83 c4 14             	add    esp,0x14
 1001aec:	ff 35 d4 01 12 00    	push   DWORD PTR ds:0x1201d4
 1001af2:	ff 35 d0 01 12 00    	push   DWORD PTR ds:0x1201d0
 1001af8:	ff 35 00 02 12 00    	push   DWORD PTR ds:0x120200
 1001afe:	ff 35 cc 01 12 00    	push   DWORD PTR ds:0x1201cc
 1001b04:	68 74 81 00 01       	push   0x1008174
 1001b09:	e8 6d 0a 00 00       	call   100257b <printk>
/home/yogi/src/os/chrisOSKernel/../chrisOS/src/init/utility.c:191
    printk(" DS=%08X\t ES=%08X\t FS=%08X\t GS=%08X\n", exceptionDS, exceptionES, exceptionGS, exceptionFS);
 1001b0e:	83 c4 14             	add    esp,0x14
 1001b11:	ff 35 e0 01 12 00    	push   DWORD PTR ds:0x1201e0
 1001b17:	ff 35 e4 01 12 00    	push   DWORD PTR ds:0x1201e4
 1001b1d:	ff 35 dc 01 12 00    	push   DWORD PTR ds:0x1201dc
 1001b23:	ff 35 d8 01 12 00    	push   DWORD PTR ds:0x1201d8
 1001b29:	68 9c 81 00 01       	push   0x100819c
 1001b2e:	e8 48 0a 00 00       	call   100257b <printk>
/home/yogi/src/os/chrisOSKernel/../chrisOS/src/init/utility.c:192
    printk("GDT=%08X\n",kernelGDT.base);
 1001b33:	83 c4 18             	add    esp,0x18
 1001b36:	ff 35 4e 04 12 00    	push   DWORD PTR ds:0x12044e
 1001b3c:	68 78 77 00 01       	push   0x1007778
 1001b41:	e8 35 0a 00 00       	call   100257b <printk>
/home/yogi/src/os/chrisOSKernel/../chrisOS/src/init/utility.c:193
    printk("CS:EIP = %04X:%08X, error code=%08X\n", exceptionCS, exceptionEIP, exceptionErrorCode);
 1001b46:	ff 35 f4 01 12 00    	push   DWORD PTR ds:0x1201f4
 1001b4c:	ff 35 f8 01 12 00    	push   DWORD PTR ds:0x1201f8
 1001b52:	ff 35 fc 01 12 00    	push   DWORD PTR ds:0x1201fc
 1001b58:	68 c4 81 00 01       	push   0x10081c4
 1001b5d:	e8 19 0a 00 00       	call   100257b <printk>
/home/yogi/src/os/chrisOSKernel/../chrisOS/src/init/utility.c:194
          printk("Bytes at CS:EIP: ");
 1001b62:	83 c4 14             	add    esp,0x14
 1001b65:	68 82 77 00 01       	push   0x1007782
 1001b6a:	e8 0c 0a 00 00       	call   100257b <printk>
 1001b6f:	8d 7b 13             	lea    edi,[ebx+0x13]
 1001b72:	83 c4 10             	add    esp,0x10
/home/yogi/src/os/chrisOSKernel/../chrisOS/src/init/utility.c:196 (discriminator 3)
          for (int cnt=0;cnt<19;cnt++)
              printk("%02X ", lCSIPPtr[cnt]);
 1001b75:	83 ec 08             	sub    esp,0x8
 1001b78:	0f b6 03             	movzx  eax,BYTE PTR [ebx]
 1001b7b:	50                   	push   eax
 1001b7c:	68 14 77 00 01       	push   0x1007714
 1001b81:	e8 f5 09 00 00       	call   100257b <printk>
 1001b86:	83 c3 01             	add    ebx,0x1
/home/yogi/src/os/chrisOSKernel/../chrisOS/src/init/utility.c:195 (discriminator 3)
    printk("CR0=%08X\tCR2=%08X\tCR3=%08X\tCR4=%08X\n", exceptionCR0, exceptionCR2, exceptionCR3, exceptionCR4);
    printk(" DS=%08X\t ES=%08X\t FS=%08X\t GS=%08X\n", exceptionDS, exceptionES, exceptionGS, exceptionFS);
    printk("GDT=%08X\n",kernelGDT.base);
    printk("CS:EIP = %04X:%08X, error code=%08X\n", exceptionCS, exceptionEIP, exceptionErrorCode);
          printk("Bytes at CS:EIP: ");
          for (int cnt=0;cnt<19;cnt++)
 1001b89:	83 c4 10             	add    esp,0x10
 1001b8c:	39 df                	cmp    edi,ebx
 1001b8e:	75 e5                	jne    1001b75 <printDumpedRegs+0xeb>
/home/yogi/src/os/chrisOSKernel/../chrisOS/src/init/utility.c:197
              printk("%02X ", lCSIPPtr[cnt]);
          printk("\n");
 1001b90:	83 ec 0c             	sub    esp,0xc
 1001b93:	68 66 7a 00 01       	push   0x1007a66
 1001b98:	e8 de 09 00 00       	call   100257b <printk>
/home/yogi/src/os/chrisOSKernel/../chrisOS/src/init/utility.c:198
          printk ("Stack @ 0x%08x:0x%08X:\n",exceptionSS, esp);
 1001b9d:	83 c4 0c             	add    esp,0xc
 1001ba0:	56                   	push   esi
 1001ba1:	ff 35 e8 01 12 00    	push   DWORD PTR ds:0x1201e8
 1001ba7:	68 94 77 00 01       	push   0x1007794
 1001bac:	e8 ca 09 00 00       	call   100257b <printk>
 1001bb1:	83 c4 10             	add    esp,0x10
 1001bb4:	bb 00 00 00 00       	mov    ebx,0x0
 1001bb9:	8d 04 33             	lea    eax,[ebx+esi*1]
/home/yogi/src/os/chrisOSKernel/../chrisOS/src/init/utility.c:201 (discriminator 3)
          for (int cnt=0;cnt<10;cnt++)
          {
              printk("\t0x%08X%: 0x%08X\n",esp, exceptionSavedStack[cnt]);
 1001bbc:	83 ec 04             	sub    esp,0x4
 1001bbf:	8b 15 a8 01 12 00    	mov    edx,DWORD PTR ds:0x1201a8
 1001bc5:	ff 34 1a             	push   DWORD PTR [edx+ebx*1]
 1001bc8:	50                   	push   eax
 1001bc9:	68 ac 77 00 01       	push   0x10077ac
 1001bce:	e8 a8 09 00 00       	call   100257b <printk>
 1001bd3:	83 c3 04             	add    ebx,0x4
/home/yogi/src/os/chrisOSKernel/../chrisOS/src/init/utility.c:199 (discriminator 3)
          printk("Bytes at CS:EIP: ");
          for (int cnt=0;cnt<19;cnt++)
              printk("%02X ", lCSIPPtr[cnt]);
          printk("\n");
          printk ("Stack @ 0x%08x:0x%08X:\n",exceptionSS, esp);
          for (int cnt=0;cnt<10;cnt++)
 1001bd6:	83 c4 10             	add    esp,0x10
 1001bd9:	83 fb 28             	cmp    ebx,0x28
 1001bdc:	75 db                	jne    1001bb9 <printDumpedRegs+0x12f>
/home/yogi/src/os/chrisOSKernel/../chrisOS/src/init/utility.c:206
              printk("\t0x%08X%: 0x%08X\n",esp, exceptionSavedStack[cnt]);
              esp+=4;
          }


}
 1001bde:	5b                   	pop    ebx
 1001bdf:	5e                   	pop    esi
 1001be0:	5f                   	pop    edi
 1001be1:	c3                   	ret    

01001be2 <printDebugRegs>:
printDebugRegs():
/home/yogi/src/os/chrisOSKernel/../chrisOS/src/init/utility.c:209

void printDebugRegs()
{
 1001be2:	57                   	push   edi
 1001be3:	56                   	push   esi
 1001be4:	53                   	push   ebx
/home/yogi/src/os/chrisOSKernel/../chrisOS/src/init/utility.c:210
    uint32_t esp = debugSavedESP;
 1001be5:	8b 35 40 02 12 00    	mov    esi,DWORD PTR ds:0x120240
/home/yogi/src/os/chrisOSKernel/../chrisOS/src/init/utility.c:213
    uint8_t* lCSIPPtr;

    lCSIPPtr=(uint8_t*)(debugEIP);
 1001beb:	8b 1d 50 02 12 00    	mov    ebx,DWORD PTR ds:0x120250
/home/yogi/src/os/chrisOSKernel/../chrisOS/src/init/utility.c:214
    printk("EAX=%08X\tEBX=%08X\tECX=%08X\tEDX=%08X\tEFL=%08X\n", debugAX, debugBX, debugCX, debugDX,debugFlags);
 1001bf1:	83 ec 08             	sub    esp,0x8
 1001bf4:	ff 35 44 02 12 00    	push   DWORD PTR ds:0x120244
 1001bfa:	ff 35 10 02 12 00    	push   DWORD PTR ds:0x120210
 1001c00:	ff 35 0c 02 12 00    	push   DWORD PTR ds:0x12020c
 1001c06:	ff 35 08 02 12 00    	push   DWORD PTR ds:0x120208
 1001c0c:	ff 35 04 02 12 00    	push   DWORD PTR ds:0x120204
 1001c12:	68 1c 81 00 01       	push   0x100811c
 1001c17:	e8 5f 09 00 00       	call   100257b <printk>
/home/yogi/src/os/chrisOSKernel/../chrisOS/src/init/utility.c:215
    printk("EBP=%08X\tESI=%08X\tEDI=%08X\tESP=%08X\n", debugBP, debugSI, debugDI, debugSavedESP);
 1001c1c:	83 c4 14             	add    esp,0x14
 1001c1f:	ff 35 40 02 12 00    	push   DWORD PTR ds:0x120240
 1001c25:	ff 35 18 02 12 00    	push   DWORD PTR ds:0x120218
 1001c2b:	ff 35 14 02 12 00    	push   DWORD PTR ds:0x120214
 1001c31:	ff 35 1c 02 12 00    	push   DWORD PTR ds:0x12021c
 1001c37:	68 4c 81 00 01       	push   0x100814c
 1001c3c:	e8 3a 09 00 00       	call   100257b <printk>
/home/yogi/src/os/chrisOSKernel/../chrisOS/src/init/utility.c:216
    printk("CR0=%08X\tCR2=%08X\tCR3=%08X\n", debugCR0, debugCR3, debugCR4);
 1001c41:	83 c4 20             	add    esp,0x20
 1001c44:	ff 35 28 02 12 00    	push   DWORD PTR ds:0x120228
 1001c4a:	ff 35 24 02 12 00    	push   DWORD PTR ds:0x120224
 1001c50:	ff 35 20 02 12 00    	push   DWORD PTR ds:0x120220
 1001c56:	68 be 77 00 01       	push   0x10077be
 1001c5b:	e8 1b 09 00 00       	call   100257b <printk>
/home/yogi/src/os/chrisOSKernel/../chrisOS/src/init/utility.c:217
    printk(" DS=%08X\t ES=%08X\t FS=%08X\t GS=%08X\n", debugDS, debugES, debugGS, debugFS);
 1001c60:	83 c4 04             	add    esp,0x4
 1001c63:	ff 35 34 02 12 00    	push   DWORD PTR ds:0x120234
 1001c69:	ff 35 38 02 12 00    	push   DWORD PTR ds:0x120238
 1001c6f:	ff 35 30 02 12 00    	push   DWORD PTR ds:0x120230
 1001c75:	ff 35 2c 02 12 00    	push   DWORD PTR ds:0x12022c
 1001c7b:	68 9c 81 00 01       	push   0x100819c
 1001c80:	e8 f6 08 00 00       	call   100257b <printk>
/home/yogi/src/os/chrisOSKernel/../chrisOS/src/init/utility.c:218
    printk("CS:EIP = %04X:%08X, error code=%08X\n", debugCS, debugEIP, debugErrorCode);
 1001c85:	83 c4 20             	add    esp,0x20
 1001c88:	ff 35 48 02 12 00    	push   DWORD PTR ds:0x120248
 1001c8e:	ff 35 50 02 12 00    	push   DWORD PTR ds:0x120250
 1001c94:	ff 35 4c 02 12 00    	push   DWORD PTR ds:0x12024c
 1001c9a:	68 c4 81 00 01       	push   0x10081c4
 1001c9f:	e8 d7 08 00 00       	call   100257b <printk>
/home/yogi/src/os/chrisOSKernel/../chrisOS/src/init/utility.c:219
          printk("Bytes at CS:EIP: ");
 1001ca4:	c7 04 24 82 77 00 01 	mov    DWORD PTR [esp],0x1007782
 1001cab:	e8 cb 08 00 00       	call   100257b <printk>
 1001cb0:	8d 7b 13             	lea    edi,[ebx+0x13]
 1001cb3:	83 c4 10             	add    esp,0x10
/home/yogi/src/os/chrisOSKernel/../chrisOS/src/init/utility.c:221 (discriminator 3)
          for (int cnt=0;cnt<19;cnt++)
              printk("%02X ", lCSIPPtr[cnt]);
 1001cb6:	83 ec 08             	sub    esp,0x8
 1001cb9:	0f b6 03             	movzx  eax,BYTE PTR [ebx]
 1001cbc:	50                   	push   eax
 1001cbd:	68 14 77 00 01       	push   0x1007714
 1001cc2:	e8 b4 08 00 00       	call   100257b <printk>
 1001cc7:	83 c3 01             	add    ebx,0x1
/home/yogi/src/os/chrisOSKernel/../chrisOS/src/init/utility.c:220 (discriminator 3)
    printk("EBP=%08X\tESI=%08X\tEDI=%08X\tESP=%08X\n", debugBP, debugSI, debugDI, debugSavedESP);
    printk("CR0=%08X\tCR2=%08X\tCR3=%08X\n", debugCR0, debugCR3, debugCR4);
    printk(" DS=%08X\t ES=%08X\t FS=%08X\t GS=%08X\n", debugDS, debugES, debugGS, debugFS);
    printk("CS:EIP = %04X:%08X, error code=%08X\n", debugCS, debugEIP, debugErrorCode);
          printk("Bytes at CS:EIP: ");
          for (int cnt=0;cnt<19;cnt++)
 1001cca:	83 c4 10             	add    esp,0x10
 1001ccd:	39 df                	cmp    edi,ebx
 1001ccf:	75 e5                	jne    1001cb6 <printDebugRegs+0xd4>
/home/yogi/src/os/chrisOSKernel/../chrisOS/src/init/utility.c:222
              printk("%02X ", lCSIPPtr[cnt]);
          printk("\n");
 1001cd1:	83 ec 0c             	sub    esp,0xc
 1001cd4:	68 66 7a 00 01       	push   0x1007a66
 1001cd9:	e8 9d 08 00 00       	call   100257b <printk>
/home/yogi/src/os/chrisOSKernel/../chrisOS/src/init/utility.c:223
          printk ("Stack @ 0x%08x:0x%08X:\n",debugSS, esp);
 1001cde:	83 c4 0c             	add    esp,0xc
 1001ce1:	56                   	push   esi
 1001ce2:	ff 35 3c 02 12 00    	push   DWORD PTR ds:0x12023c
 1001ce8:	68 94 77 00 01       	push   0x1007794
 1001ced:	e8 89 08 00 00       	call   100257b <printk>
 1001cf2:	83 c4 10             	add    esp,0x10
 1001cf5:	bb 00 00 00 00       	mov    ebx,0x0
 1001cfa:	8d 04 33             	lea    eax,[ebx+esi*1]
/home/yogi/src/os/chrisOSKernel/../chrisOS/src/init/utility.c:226 (discriminator 3)
          for (int cnt=0;cnt<10;cnt++)
          {
              printk("\t0x%08X%: 0x%08X\n",esp, debugSavedStack[cnt]);
 1001cfd:	83 ec 04             	sub    esp,0x4
 1001d00:	8b 15 ac 01 12 00    	mov    edx,DWORD PTR ds:0x1201ac
 1001d06:	ff 34 1a             	push   DWORD PTR [edx+ebx*1]
 1001d09:	50                   	push   eax
 1001d0a:	68 ac 77 00 01       	push   0x10077ac
 1001d0f:	e8 67 08 00 00       	call   100257b <printk>
 1001d14:	83 c3 04             	add    ebx,0x4
/home/yogi/src/os/chrisOSKernel/../chrisOS/src/init/utility.c:224 (discriminator 3)
          printk("Bytes at CS:EIP: ");
          for (int cnt=0;cnt<19;cnt++)
              printk("%02X ", lCSIPPtr[cnt]);
          printk("\n");
          printk ("Stack @ 0x%08x:0x%08X:\n",debugSS, esp);
          for (int cnt=0;cnt<10;cnt++)
 1001d17:	83 c4 10             	add    esp,0x10
 1001d1a:	83 fb 28             	cmp    ebx,0x28
 1001d1d:	75 db                	jne    1001cfa <printDebugRegs+0x118>
/home/yogi/src/os/chrisOSKernel/../chrisOS/src/init/utility.c:231
              printk("\t0x%08X%: 0x%08X\n",esp, debugSavedStack[cnt]);
              esp+=4;
          }


}
 1001d1f:	5b                   	pop    ebx
 1001d20:	5e                   	pop    esi
 1001d21:	5f                   	pop    edi
 1001d22:	c3                   	ret    

01001d23 <reboot>:
reboot():
/home/yogi/src/os/chrisOSKernel/../chrisOS/src/init/utility.c:239
/* keyboard interface IO port: data and control
   READ:   status port
   WRITE:  control register */
 
void reboot(bool waitFirst)
{
 1001d23:	83 ec 0c             	sub    esp,0xc
/home/yogi/src/os/chrisOSKernel/../chrisOS/src/init/utility.c:242
    uint8_t temp;
 
    if (waitFirst)
 1001d26:	80 7c 24 10 00       	cmp    BYTE PTR [esp+0x10],0x0
 1001d2b:	74 1d                	je     1001d4a <reboot+0x27>
/home/yogi/src/os/chrisOSKernel/../chrisOS/src/init/utility.c:244
    {
        puts("Rebooting ... ");
 1001d2d:	83 ec 0c             	sub    esp,0xc
 1001d30:	68 da 77 00 01       	push   0x10077da
 1001d35:	e8 ff e6 ff ff       	call   1000439 <puts>
/home/yogi/src/os/chrisOSKernel/../chrisOS/src/init/utility.c:245
        __asm__("sti\n");
 1001d3a:	fb                   	sti    
/home/yogi/src/os/chrisOSKernel/../chrisOS/src/init/utility.c:246
        wait(3000);
 1001d3b:	c7 04 24 b8 0b 00 00 	mov    DWORD PTR [esp],0xbb8
 1001d42:	e8 dd 11 00 00       	call   1002f24 <wait>
 1001d47:	83 c4 10             	add    esp,0x10
/home/yogi/src/os/chrisOSKernel/../chrisOS/src/init/utility.c:248
    }
    __asm__ volatile ("cli"); /* disable all interrupts */
 1001d4a:	fa                   	cli    
inb():
/home/yogi/src/os/chrisOSKernel/include/io.h:39
 1001d4b:	e4 64                	in     al,0x64
 1001d4d:	89 c2                	mov    edx,eax
reboot():
/home/yogi/src/os/chrisOSKernel/../chrisOS/src/init/utility.c:254
 
    /* Clear all keyboard buffers (output and command buffers) */
    do
    {
        temp = inb(KBRD_INTRFC); /* empty user data */
        if (check_flag(temp, KBRD_BIT_KDATA) != 0)
 1001d4f:	a8 01                	test   al,0x1
 1001d51:	74 02                	je     1001d55 <reboot+0x32>
inb():
/home/yogi/src/os/chrisOSKernel/include/io.h:39
 1001d53:	e4 60                	in     al,0x60
reboot():
/home/yogi/src/os/chrisOSKernel/../chrisOS/src/init/utility.c:256
            inb(KBRD_IO); /* empty keyboard data */
    } while (check_flag(temp, KBRD_BIT_UDATA) != 0);
 1001d55:	f6 c2 02             	test   dl,0x2
 1001d58:	75 f1                	jne    1001d4b <reboot+0x28>
outb():
/home/yogi/src/os/chrisOSKernel/include/io.h:23
void IRQ_set_mask(unsigned char IRQline);
void IRQ_clear_mask(unsigned char IRQline);

static __inline void outb(unsigned short __port, unsigned char __val)
{
	__asm__ volatile ("outb %1, %0" : : "a" (__val), "dN" (__port));
 1001d5a:	b8 fe ff ff ff       	mov    eax,0xfffffffe
 1001d5f:	e6 64                	out    0x64,al
reboot():
/home/yogi/src/os/chrisOSKernel/../chrisOS/src/init/utility.c:260 (discriminator 1)
 
    outb(KBRD_INTRFC, KBRD_RESET); /* pulse CPU reset line */
loop:
    __asm__ volatile ("hlt"); /* if that didn't work, halt the CPU */
 1001d61:	f4                   	hlt    
 1001d62:	eb fd                	jmp    1001d61 <reboot+0x3e>

01001d64 <dumpKernelAddresses>:
dumpKernelAddresses():
/home/yogi/src/os/chrisOSKernel/../chrisOS/src/init/utility.c:265
    goto loop; /* if a NMI is received, halt again */
}

void dumpKernelAddresses()
{
 1001d64:	83 ec 18             	sub    esp,0x18
/home/yogi/src/os/chrisOSKernel/../chrisOS/src/init/utility.c:266
printk("Kernel Variable List:\n");
 1001d67:	68 e9 77 00 01       	push   0x10077e9
 1001d6c:	e8 0a 08 00 00       	call   100257b <printk>
/home/yogi/src/os/chrisOSKernel/../chrisOS/src/init/utility.c:267
printk("\tKERNEL_OBJECT_BASE_ADDRESS=0x%08x\n",KERNEL_OBJECT_BASE_ADDRESS);
 1001d71:	83 c4 08             	add    esp,0x8
 1001d74:	68 00 00 15 00       	push   0x150000
 1001d79:	68 ec 81 00 01       	push   0x10081ec
 1001d7e:	e8 f8 07 00 00       	call   100257b <printk>
/home/yogi/src/os/chrisOSKernel/../chrisOS/src/init/utility.c:268
printk("\tE820_TABLE_ADDRESS=0x%08x (0x%08X)\n",E820_TABLE_ADDRESS);
 1001d83:	83 c4 08             	add    esp,0x8
 1001d86:	68 00 00 15 00       	push   0x150000
 1001d8b:	68 10 82 00 01       	push   0x1008210
 1001d90:	e8 e6 07 00 00       	call   100257b <printk>
/home/yogi/src/os/chrisOSKernel/../chrisOS/src/init/utility.c:269
printk("\tMP_CONFIG_TABLE_ADDRESS=0x%08x\n",MP_CONFIG_TABLE_ADDRESS);
 1001d95:	83 c4 08             	add    esp,0x8
 1001d98:	68 b0 04 15 00       	push   0x1504b0
 1001d9d:	68 38 82 00 01       	push   0x1008238
 1001da2:	e8 d4 07 00 00       	call   100257b <printk>
/home/yogi/src/os/chrisOSKernel/../chrisOS/src/init/utility.c:270
printk("\tKEYBOARD_BUFFER_ADDRESS=0x%08x\n",KEYBOARD_BUFFER_ADDRESS);
 1001da7:	83 c4 08             	add    esp,0x8
 1001daa:	68 b0 24 15 00       	push   0x1524b0
 1001daf:	68 5c 82 00 01       	push   0x100825c
 1001db4:	e8 c2 07 00 00       	call   100257b <printk>
/home/yogi/src/os/chrisOSKernel/../chrisOS/src/init/utility.c:271
printk("\tIDT_TABLE_ADDRESS=0x%08x\n",IDT_TABLE_ADDRESS);
 1001db9:	83 c4 08             	add    esp,0x8
 1001dbc:	68 00 30 15 00       	push   0x153000
 1001dc1:	68 00 78 00 01       	push   0x1007800
 1001dc6:	e8 b0 07 00 00       	call   100257b <printk>
/home/yogi/src/os/chrisOSKernel/../chrisOS/src/init/utility.c:272
printk("\tINIT_GDT_TABLE_ADDRESS=0x%08x\n",INIT_GDT_TABLE_ADDRESS);
 1001dcb:	83 c4 08             	add    esp,0x8
 1001dce:	68 00 40 15 00       	push   0x154000
 1001dd3:	68 80 82 00 01       	push   0x1008280
 1001dd8:	e8 9e 07 00 00       	call   100257b <printk>
/home/yogi/src/os/chrisOSKernel/../chrisOS/src/init/utility.c:273
printk("\tTASK_TABLE_ADDRESS=0x%08x\n",TASK_TABLE_ADDRESS);
 1001ddd:	83 c4 08             	add    esp,0x8
 1001de0:	68 00 50 15 00       	push   0x155000
 1001de5:	68 1b 78 00 01       	push   0x100781b
 1001dea:	e8 8c 07 00 00       	call   100257b <printk>
/home/yogi/src/os/chrisOSKernel/../chrisOS/src/init/utility.c:274
printk("\tTSS_TABLE_ADDRESS=0x%08x\n",TSS_TABLE_ADDRESS);
 1001def:	83 c4 08             	add    esp,0x8
 1001df2:	68 00 60 2e 00       	push   0x2e6000
 1001df7:	68 37 78 00 01       	push   0x1007837
 1001dfc:	e8 7a 07 00 00       	call   100257b <printk>
/home/yogi/src/os/chrisOSKernel/../chrisOS/src/init/utility.c:275
printk("\tATA_MBR_ARRAY_ADDRESS=0x%08x\n",ATA_MBR_ARRAY_ADDRESS);
 1001e01:	83 c4 08             	add    esp,0x8
 1001e04:	68 00 60 48 00       	push   0x486000
 1001e09:	68 a0 82 00 01       	push   0x10082a0
 1001e0e:	e8 68 07 00 00       	call   100257b <printk>
/home/yogi/src/os/chrisOSKernel/../chrisOS/src/init/utility.c:276
printk("\tPCI_DEVICE_LIST_ADDRESS=0x%08x\n",PCI_DEVICE_LIST_ADDRESS);
 1001e13:	83 c4 08             	add    esp,0x8
 1001e16:	68 00 70 48 00       	push   0x487000
 1001e1b:	68 c0 82 00 01       	push   0x10082c0
 1001e20:	e8 56 07 00 00       	call   100257b <printk>
/home/yogi/src/os/chrisOSKernel/../chrisOS/src/init/utility.c:277
printk("\tPCI_BRIDGE_LIST_ADDRESS=0x%08x\n",PCI_BRIDGE_LIST_ADDRESS);
 1001e25:	83 c4 08             	add    esp,0x8
 1001e28:	68 00 70 49 00       	push   0x497000
 1001e2d:	68 e4 82 00 01       	push   0x10082e4
 1001e32:	e8 44 07 00 00       	call   100257b <printk>
/home/yogi/src/os/chrisOSKernel/../chrisOS/src/init/utility.c:278
printk("\tPCI_FUNCTION_LIST_ADDRESS=0x%08x\n",PCI_FUNCTION_LIST_ADDRESS);
 1001e37:	83 c4 08             	add    esp,0x8
 1001e3a:	68 00 70 4a 00       	push   0x4a7000
 1001e3f:	68 08 83 00 01       	push   0x1008308
 1001e44:	e8 32 07 00 00       	call   100257b <printk>
/home/yogi/src/os/chrisOSKernel/../chrisOS/src/init/utility.c:279
printk("\tGDT_PMODE_16BIT_TABLE_ADDRESS=0x%08x\n",GDT_PMODE_16BIT_TABLE_ADDRESS);
 1001e49:	83 c4 08             	add    esp,0x8
 1001e4c:	68 00 80 4a 00       	push   0x4a8000
 1001e51:	68 2c 83 00 01       	push   0x100832c
 1001e56:	e8 20 07 00 00       	call   100257b <printk>
/home/yogi/src/os/chrisOSKernel/../chrisOS/src/init/utility.c:280
printk("\tKERNEL_PAGE_DIR_ADDRESS=0x%08x\n",KERNEL_PAGE_DIR_ADDRESS);
 1001e5b:	83 c4 08             	add    esp,0x8
 1001e5e:	68 00 90 4a 00       	push   0x4a9000
 1001e63:	68 54 83 00 01       	push   0x1008354
 1001e68:	e8 0e 07 00 00       	call   100257b <printk>
/home/yogi/src/os/chrisOSKernel/../chrisOS/src/init/utility.c:281
printk("\tKERNEL_PAGE_TABLE_BASE_ADDRESS=0x%08x\n",KERNEL_PAGE_TABLE_BASE_ADDRESS);
 1001e6d:	83 c4 08             	add    esp,0x8
 1001e70:	68 00 b0 4b 00       	push   0x4bb000
 1001e75:	68 78 83 00 01       	push   0x1008378
 1001e7a:	e8 fc 06 00 00       	call   100257b <printk>
/home/yogi/src/os/chrisOSKernel/../chrisOS/src/init/utility.c:282
printk("\tSAVED_STACK_FOR_EXCEPTIONS_ADDRESS=0x%08x\n",SAVED_STACK_FOR_EXCEPTIONS_ADDRESS);
 1001e7f:	83 c4 08             	add    esp,0x8
 1001e82:	68 00 c0 8b 00       	push   0x8bc000
 1001e87:	68 a0 83 00 01       	push   0x10083a0
 1001e8c:	e8 ea 06 00 00       	call   100257b <printk>
/home/yogi/src/os/chrisOSKernel/../chrisOS/src/init/utility.c:283
printk("\tSAVED_STACK_FOR_DEBUGGING_ADDRESS=0x%08x\n",SAVED_STACK_FOR_DEBUGGING_ADDRESS);
 1001e91:	83 c4 08             	add    esp,0x8
 1001e94:	68 00 e0 8b 00       	push   0x8be000
 1001e99:	68 cc 83 00 01       	push   0x10083cc
 1001e9e:	e8 d8 06 00 00       	call   100257b <printk>
/home/yogi/src/os/chrisOSKernel/../chrisOS/src/init/utility.c:284
printk("\tCPU_APIC_REGISTER_REMAP_BASE_ADDRESS=0x%08x\n",CPU_APIC_REGISTER_REMAP_BASE_ADDRESS);
 1001ea3:	83 c4 08             	add    esp,0x8
 1001ea6:	68 00 00 8c 00       	push   0x8c0000
 1001eab:	68 f8 83 00 01       	push   0x10083f8
 1001eb0:	e8 c6 06 00 00       	call   100257b <printk>
/home/yogi/src/os/chrisOSKernel/../chrisOS/src/init/utility.c:285
printk("\tCPU_IOAPIC_REGISTER_REMAP_BASE_ADDRESS=0x%08x\n",CPU_IOAPIC_REGISTER_REMAP_BASE_ADDRESS);
 1001eb5:	83 c4 08             	add    esp,0x8
 1001eb8:	68 00 10 8c 00       	push   0x8c1000
 1001ebd:	68 28 84 00 01       	push   0x1008428
 1001ec2:	e8 b4 06 00 00       	call   100257b <printk>
/home/yogi/src/os/chrisOSKernel/../chrisOS/src/init/utility.c:286
printk("\tKERNEL_TICKS_SINCE_START_VARIABLE_ADDRESS=0x%08x\n",KERNEL_TICKS_SINCE_START_VARIABLE_ADDRESS);
 1001ec7:	83 c4 08             	add    esp,0x8
 1001eca:	68 04 10 8c 00       	push   0x8c1004
 1001ecf:	68 58 84 00 01       	push   0x1008458
 1001ed4:	e8 a2 06 00 00       	call   100257b <printk>
/home/yogi/src/os/chrisOSKernel/../chrisOS/src/init/utility.c:287
printk("\tAHCI_ABAR_REMAPPED_ADDRESS=0x%08x\n",AHCI_ABAR_REMAPPED_ADDRESS);
 1001ed9:	83 c4 08             	add    esp,0x8
 1001edc:	68 00 20 8c 00       	push   0x8c2000
 1001ee1:	68 8c 84 00 01       	push   0x100848c
 1001ee6:	e8 90 06 00 00       	call   100257b <printk>
/home/yogi/src/os/chrisOSKernel/../chrisOS/src/init/utility.c:288
printk("\tAHCI_PORT_BASE_REMAP_ADDRESS=0x%08x\n",AHCI_PORT_BASE_REMAP_ADDRESS);
 1001eeb:	83 c4 08             	add    esp,0x8
 1001eee:	68 00 20 90 00       	push   0x902000
 1001ef3:	68 b0 84 00 01       	push   0x10084b0
 1001ef8:	e8 7e 06 00 00       	call   100257b <printk>
/home/yogi/src/os/chrisOSKernel/../chrisOS/src/init/utility.c:289
printk("\tAHCI_DISK_BUFFER_ADDRESS=0x%08x\n",AHCI_DISK_BUFFER_ADDRESS);
 1001efd:	83 c4 08             	add    esp,0x8
 1001f00:	68 00 20 a4 00       	push   0xa42000
 1001f05:	68 d8 84 00 01       	push   0x10084d8
 1001f0a:	e8 6c 06 00 00       	call   100257b <printk>
/home/yogi/src/os/chrisOSKernel/../chrisOS/src/init/utility.c:290
printk("\tATA_DEVICE_INFO_ADDRESS=0x%08x\n",ATA_DEVICE_INFO_ADDRESS);
 1001f0f:	83 c4 08             	add    esp,0x8
 1001f12:	68 00 20 b8 00       	push   0xb82000
 1001f17:	68 fc 84 00 01       	push   0x10084fc
 1001f1c:	e8 5a 06 00 00       	call   100257b <printk>
/home/yogi/src/os/chrisOSKernel/../chrisOS/src/init/utility.c:291
printk("\tAHCI_CAPS_ADDRESS=0x%08x\n",AHCI_CAPS_ADDRESS);
 1001f21:	83 c4 08             	add    esp,0x8
 1001f24:	68 20 6e b8 00       	push   0xb86e20
 1001f29:	68 52 78 00 01       	push   0x1007852
 1001f2e:	e8 48 06 00 00       	call   100257b <printk>
/home/yogi/src/os/chrisOSKernel/../chrisOS/src/init/utility.c:292
printk("\tTSS_AVAILABLE_ADDRESS=0x%08x\n",TASK_AVAILABLE_ADDRESS);
 1001f33:	83 c4 08             	add    esp,0x8
 1001f36:	68 40 bc b8 00       	push   0xb8bc40
 1001f3b:	68 20 85 00 01       	push   0x1008520
 1001f40:	e8 36 06 00 00       	call   100257b <printk>
/home/yogi/src/os/chrisOSKernel/../chrisOS/src/init/utility.c:293
printk("\tGDT_AVAILABLE_ADDRESS=0x%08x\n",GDT_AVAILABLE_ADDRESS);
 1001f45:	83 c4 08             	add    esp,0x8
 1001f48:	68 40 c4 b8 00       	push   0xb8c440
 1001f4d:	68 40 85 00 01       	push   0x1008540
 1001f52:	e8 24 06 00 00       	call   100257b <printk>
/home/yogi/src/os/chrisOSKernel/../chrisOS/src/init/utility.c:294
printk("\tEXEC_FILE_LOAD_INFO=0x%08x\n",EXEC_FILE_LOAD_INFO);
 1001f57:	83 c4 08             	add    esp,0x8
 1001f5a:	68 40 cc b8 00       	push   0xb8cc40
 1001f5f:	68 6d 78 00 01       	push   0x100786d
 1001f64:	e8 12 06 00 00       	call   100257b <printk>
/home/yogi/src/os/chrisOSKernel/../chrisOS/src/init/utility.c:295
printk("\tAHCI_ABAR_ADDRESS=0x%08x\n",AHCI_ABAR_ADDRESS);
 1001f69:	83 c4 08             	add    esp,0x8
 1001f6c:	68 e0 52 ba 00       	push   0xba52e0
 1001f71:	68 8a 78 00 01       	push   0x100788a
 1001f76:	e8 00 06 00 00       	call   100257b <printk>
/home/yogi/src/os/chrisOSKernel/../chrisOS/src/init/utility.c:296
printk("\tEND_OF_KERNEL_OBJECTS_ADDRESS=0x%08x\n",END_OF_KERNEL_OBJECTS_ADDRESS);
 1001f7b:	83 c4 08             	add    esp,0x8
 1001f7e:	68 e0 52 ca 00       	push   0xca52e0
 1001f83:	68 60 85 00 01       	push   0x1008560
 1001f88:	e8 ee 05 00 00       	call   100257b <printk>
/home/yogi/src/os/chrisOSKernel/../chrisOS/src/init/utility.c:297
}
 1001f8d:	83 c4 1c             	add    esp,0x1c
 1001f90:	c3                   	ret    

01001f91 <pauseDisplay>:
pauseDisplay():
/home/yogi/src/os/chrisOSKernel/../chrisOS/src/init/utility.c:300

bool pauseDisplay(bool offerToQuit)
{
 1001f91:	56                   	push   esi
 1001f92:	53                   	push   ebx
 1001f93:	83 ec 04             	sub    esp,0x4
 1001f96:	8b 5c 24 10          	mov    ebx,DWORD PTR [esp+0x10]
/home/yogi/src/os/chrisOSKernel/../chrisOS/src/init/utility.c:301
    if (offerToQuit)
 1001f9a:	84 db                	test   bl,bl
 1001f9c:	74 12                	je     1001fb0 <pauseDisplay+0x1f>
/home/yogi/src/os/chrisOSKernel/../chrisOS/src/init/utility.c:302
        printk("Press q to quit, any other key to continue ...");
 1001f9e:	83 ec 0c             	sub    esp,0xc
 1001fa1:	68 88 85 00 01       	push   0x1008588
 1001fa6:	e8 d0 05 00 00       	call   100257b <printk>
 1001fab:	83 c4 10             	add    esp,0x10
 1001fae:	eb 10                	jmp    1001fc0 <pauseDisplay+0x2f>
/home/yogi/src/os/chrisOSKernel/../chrisOS/src/init/utility.c:304
    else
        printk("Press a key to continue ... ");
 1001fb0:	83 ec 0c             	sub    esp,0xc
 1001fb3:	68 a5 78 00 01       	push   0x10078a5
 1001fb8:	e8 be 05 00 00       	call   100257b <printk>
 1001fbd:	83 c4 10             	add    esp,0x10
/home/yogi/src/os/chrisOSKernel/../chrisOS/src/init/utility.c:305
    char lPressedKey=waitForKeyboardKey();
 1001fc0:	e8 f3 e4 ff ff       	call   10004b8 <waitForKeyboardKey>
 1001fc5:	89 c6                	mov    esi,eax
/home/yogi/src/os/chrisOSKernel/../chrisOS/src/init/utility.c:306
    cursorMoveToX(0);
 1001fc7:	83 ec 0c             	sub    esp,0xc
 1001fca:	6a 00                	push   0x0
 1001fcc:	e8 b9 e3 ff ff       	call   100038a <cursorMoveToX>
/home/yogi/src/os/chrisOSKernel/../chrisOS/src/init/utility.c:307
    printk("                                           ");
 1001fd1:	c7 04 24 b8 85 00 01 	mov    DWORD PTR [esp],0x10085b8
 1001fd8:	e8 9e 05 00 00       	call   100257b <printk>
/home/yogi/src/os/chrisOSKernel/../chrisOS/src/init/utility.c:308
    cursorMoveToX(0);
 1001fdd:	c7 04 24 00 00 00 00 	mov    DWORD PTR [esp],0x0
 1001fe4:	e8 a1 e3 ff ff       	call   100038a <cursorMoveToX>
 1001fe9:	89 f0                	mov    eax,esi
 1001feb:	3c 71                	cmp    al,0x71
 1001fed:	0f 94 c0             	sete   al
 1001ff0:	21 d8                	and    eax,ebx
/home/yogi/src/os/chrisOSKernel/../chrisOS/src/init/utility.c:312
    if (lPressedKey=='q' && offerToQuit)
        return true;
    return false;
}
 1001ff2:	83 c4 14             	add    esp,0x14
 1001ff5:	5b                   	pop    ebx
 1001ff6:	5e                   	pop    esi
 1001ff7:	c3                   	ret    

01001ff8 <mallocTemp>:
mallocTemp():
/home/yogi/src/os/chrisOSKernel/../chrisOS/src/init/utility.c:317

int memPtr=0xe00000;
uintptr_t* mallocTemp(int size)
{
    uintptr_t lRetVal = memPtr;
 1001ff8:	a1 00 48 00 01       	mov    eax,ds:0x1004800
/home/yogi/src/os/chrisOSKernel/../chrisOS/src/init/utility.c:318
    memPtr+=size;
 1001ffd:	89 c2                	mov    edx,eax
 1001fff:	03 54 24 04          	add    edx,DWORD PTR [esp+0x4]
 1002003:	89 15 00 48 00 01    	mov    DWORD PTR ds:0x1004800,edx
/home/yogi/src/os/chrisOSKernel/../chrisOS/src/init/utility.c:320
    return (uintptr_t*)lRetVal;
 1002009:	c3                   	ret    
 100200a:	66 90                	xchg   ax,ax

0100200c <memcpy>:
memcpy():
/home/yogi/src/os/chrisOSKernel/../chrisOS/src/memcpy.c:12
 */
//clr 05/26/2016: Modified to copy by 4 or 2 bytes if applicable
//This is needed for many memory mapped registers which cannot be
//copied a byte at a time
void * memcpy(void *dest, const void *src, size_t n)
{
 100200c:	57                   	push   edi
 100200d:	56                   	push   esi
 100200e:	53                   	push   ebx
 100200f:	8b 44 24 10          	mov    eax,DWORD PTR [esp+0x10]
 1002013:	8b 5c 24 14          	mov    ebx,DWORD PTR [esp+0x14]
 1002017:	8b 54 24 18          	mov    edx,DWORD PTR [esp+0x18]
/home/yogi/src/os/chrisOSKernel/../chrisOS/src/memcpy.c:17
    bool dw,dd;
    
    dd=n%4==0;
    dw=n%2==0;
    if (dd)
 100201b:	89 d1                	mov    ecx,edx
 100201d:	83 e1 03             	and    ecx,0x3
 1002020:	75 4d                	jne    100206f <memcpy+0x63>
/home/yogi/src/os/chrisOSKernel/../chrisOS/src/memcpy.c:19
    {
        n /=4;
 1002022:	c1 ea 02             	shr    edx,0x2
/home/yogi/src/os/chrisOSKernel/../chrisOS/src/memcpy.c:23
        const uint32_t *f = src;
        uint32_t *t = dest;

        if (f < t) {
 1002025:	39 c3                	cmp    ebx,eax
 1002027:	72 0e                	jb     1002037 <memcpy+0x2b>
/home/yogi/src/os/chrisOSKernel/../chrisOS/src/memcpy.c:29
                f += n;
                t += n;
                while ( (n)-- > 0)
                        *--t = *--f;
        } else
                while ( (n)-- > 0)
 1002029:	b9 00 00 00 00       	mov    ecx,0x0
 100202e:	85 d2                	test   edx,edx
 1002030:	75 2e                	jne    1002060 <memcpy+0x54>
 1002032:	e9 b6 00 00 00       	jmp    10020ed <memcpy+0xe1>
/home/yogi/src/os/chrisOSKernel/../chrisOS/src/memcpy.c:24
        n /=4;
        const uint32_t *f = src;
        uint32_t *t = dest;

        if (f < t) {
                f += n;
 1002037:	8d 3c 95 00 00 00 00 	lea    edi,[edx*4+0x0]
 100203e:	01 fb                	add    ebx,edi
/home/yogi/src/os/chrisOSKernel/../chrisOS/src/memcpy.c:25
                t += n;
 1002040:	01 c7                	add    edi,eax
/home/yogi/src/os/chrisOSKernel/../chrisOS/src/memcpy.c:26
                while ( (n)-- > 0)
 1002042:	85 d2                	test   edx,edx
 1002044:	0f 84 a3 00 00 00    	je     10020ed <memcpy+0xe1>
 100204a:	f7 da                	neg    edx
/home/yogi/src/os/chrisOSKernel/../chrisOS/src/memcpy.c:27
                        *--t = *--f;
 100204c:	8b 74 8b fc          	mov    esi,DWORD PTR [ebx+ecx*4-0x4]
 1002050:	89 74 8f fc          	mov    DWORD PTR [edi+ecx*4-0x4],esi
 1002054:	83 e9 01             	sub    ecx,0x1
/home/yogi/src/os/chrisOSKernel/../chrisOS/src/memcpy.c:26
        uint32_t *t = dest;

        if (f < t) {
                f += n;
                t += n;
                while ( (n)-- > 0)
 1002057:	39 d1                	cmp    ecx,edx
 1002059:	75 f1                	jne    100204c <memcpy+0x40>
 100205b:	e9 8d 00 00 00       	jmp    10020ed <memcpy+0xe1>
/home/yogi/src/os/chrisOSKernel/../chrisOS/src/memcpy.c:30
                        *--t = *--f;
        } else
                while ( (n)-- > 0)
                        *t++ = *f++;
 1002060:	8b 34 8b             	mov    esi,DWORD PTR [ebx+ecx*4]
 1002063:	89 34 88             	mov    DWORD PTR [eax+ecx*4],esi
 1002066:	83 c1 01             	add    ecx,0x1
/home/yogi/src/os/chrisOSKernel/../chrisOS/src/memcpy.c:29
                f += n;
                t += n;
                while ( (n)-- > 0)
                        *--t = *--f;
        } else
                while ( (n)-- > 0)
 1002069:	39 ca                	cmp    edx,ecx
 100206b:	75 f3                	jne    1002060 <memcpy+0x54>
 100206d:	eb 7e                	jmp    10020ed <memcpy+0xe1>
/home/yogi/src/os/chrisOSKernel/../chrisOS/src/memcpy.c:33
                        *t++ = *f++;
        return dest;
    }
    else if (dw)
 100206f:	89 d1                	mov    ecx,edx
 1002071:	83 e1 01             	and    ecx,0x1
 1002074:	75 42                	jne    10020b8 <memcpy+0xac>
/home/yogi/src/os/chrisOSKernel/../chrisOS/src/memcpy.c:35
    {
        n /=2;
 1002076:	d1 ea                	shr    edx,1
/home/yogi/src/os/chrisOSKernel/../chrisOS/src/memcpy.c:39
        const uint32_t *f = src;
        uint32_t *t = dest;

        if (f < t) {
 1002078:	39 c3                	cmp    ebx,eax
 100207a:	72 0b                	jb     1002087 <memcpy+0x7b>
/home/yogi/src/os/chrisOSKernel/../chrisOS/src/memcpy.c:45
                f += n;
                t += n;
                while ( (n)-- > 0)
                        *--t = *--f;
        } else
                while ( (n)-- > 0)
 100207c:	b9 00 00 00 00       	mov    ecx,0x0
 1002081:	85 d2                	test   edx,edx
 1002083:	75 24                	jne    10020a9 <memcpy+0x9d>
 1002085:	eb 66                	jmp    10020ed <memcpy+0xe1>
/home/yogi/src/os/chrisOSKernel/../chrisOS/src/memcpy.c:40
        n /=2;
        const uint32_t *f = src;
        uint32_t *t = dest;

        if (f < t) {
                f += n;
 1002087:	8d 3c 95 00 00 00 00 	lea    edi,[edx*4+0x0]
 100208e:	01 fb                	add    ebx,edi
/home/yogi/src/os/chrisOSKernel/../chrisOS/src/memcpy.c:41
                t += n;
 1002090:	01 c7                	add    edi,eax
/home/yogi/src/os/chrisOSKernel/../chrisOS/src/memcpy.c:42
                while ( (n)-- > 0)
 1002092:	85 d2                	test   edx,edx
 1002094:	74 57                	je     10020ed <memcpy+0xe1>
 1002096:	f7 da                	neg    edx
/home/yogi/src/os/chrisOSKernel/../chrisOS/src/memcpy.c:43
                        *--t = *--f;
 1002098:	8b 74 8b fc          	mov    esi,DWORD PTR [ebx+ecx*4-0x4]
 100209c:	89 74 8f fc          	mov    DWORD PTR [edi+ecx*4-0x4],esi
 10020a0:	83 e9 01             	sub    ecx,0x1
/home/yogi/src/os/chrisOSKernel/../chrisOS/src/memcpy.c:42
        uint32_t *t = dest;

        if (f < t) {
                f += n;
                t += n;
                while ( (n)-- > 0)
 10020a3:	39 ca                	cmp    edx,ecx
 10020a5:	75 f1                	jne    1002098 <memcpy+0x8c>
 10020a7:	eb 44                	jmp    10020ed <memcpy+0xe1>
/home/yogi/src/os/chrisOSKernel/../chrisOS/src/memcpy.c:46
                        *--t = *--f;
        } else
                while ( (n)-- > 0)
                        *t++ = *f++;
 10020a9:	8b 34 8b             	mov    esi,DWORD PTR [ebx+ecx*4]
 10020ac:	89 34 88             	mov    DWORD PTR [eax+ecx*4],esi
 10020af:	83 c1 01             	add    ecx,0x1
/home/yogi/src/os/chrisOSKernel/../chrisOS/src/memcpy.c:45
                f += n;
                t += n;
                while ( (n)-- > 0)
                        *--t = *--f;
        } else
                while ( (n)-- > 0)
 10020b2:	39 ca                	cmp    edx,ecx
 10020b4:	75 f3                	jne    10020a9 <memcpy+0x9d>
 10020b6:	eb 35                	jmp    10020ed <memcpy+0xe1>
/home/yogi/src/os/chrisOSKernel/../chrisOS/src/memcpy.c:54
    else
    {
        const char *f = src;
        char *t = dest;

        if (f < t) {
 10020b8:	39 c3                	cmp    ebx,eax
 10020ba:	72 0b                	jb     10020c7 <memcpy+0xbb>
/home/yogi/src/os/chrisOSKernel/../chrisOS/src/memcpy.c:60
                f += n;
                t += n;
                while (n-- > 0)
                        *--t = *--f;
        } else
                while (n-- > 0)
 10020bc:	be 00 00 00 00       	mov    esi,0x0
 10020c1:	85 d2                	test   edx,edx
 10020c3:	75 1a                	jne    10020df <memcpy+0xd3>
 10020c5:	eb 26                	jmp    10020ed <memcpy+0xe1>
/home/yogi/src/os/chrisOSKernel/../chrisOS/src/memcpy.c:57
        char *t = dest;

        if (f < t) {
                f += n;
                t += n;
                while (n-- > 0)
 10020c7:	8d 4a ff             	lea    ecx,[edx-0x1]
 10020ca:	85 d2                	test   edx,edx
 10020cc:	74 1f                	je     10020ed <memcpy+0xe1>
/home/yogi/src/os/chrisOSKernel/../chrisOS/src/memcpy.c:58
                        *--t = *--f;
 10020ce:	0f b6 14 0b          	movzx  edx,BYTE PTR [ebx+ecx*1]
 10020d2:	88 14 08             	mov    BYTE PTR [eax+ecx*1],dl
/home/yogi/src/os/chrisOSKernel/../chrisOS/src/memcpy.c:57
        char *t = dest;

        if (f < t) {
                f += n;
                t += n;
                while (n-- > 0)
 10020d5:	83 e9 01             	sub    ecx,0x1
 10020d8:	83 f9 ff             	cmp    ecx,0xffffffff
