
Debug/GNU-Linux/time:     file format elf32-i386


Disassembly of section .text:

03200000 <main>:
main():
/home/yogi/src/os/aproj/time/testtime.c:19
#include "libChrisOS.h"

/*
 * 
 */
int main(int argc, char** argv) {
 3200000:	8d 4c 24 04          	lea    ecx,[esp+0x4]
 3200004:	83 e4 f0             	and    esp,0xfffffff0
 3200007:	ff 71 fc             	push   DWORD PTR [ecx-0x4]
 320000a:	55                   	push   ebp
 320000b:	89 e5                	mov    ebp,esp
 320000d:	53                   	push   ebx
 320000e:	51                   	push   ecx
 320000f:	83 ec 30             	sub    esp,0x30
 3200012:	89 cb                	mov    ebx,ecx
/home/yogi/src/os/aproj/time/testtime.c:21

    int pid=0;
 3200014:	c7 45 ec 00 00 00 00 	mov    DWORD PTR [ebp-0x14],0x0
/home/yogi/src/os/aproj/time/testtime.c:26
    struct tm *totalTime;
    time_t startTicks, endTicks, elapsed;
    struct tm *startTime, *endTime;
    char* execpgm;
    int retVal=0;
 320001b:	c7 45 f4 00 00 00 00 	mov    DWORD PTR [ebp-0xc],0x0
/home/yogi/src/os/aproj/time/testtime.c:29
    
#ifdef DEBUG
    startTime = malloc(sizeof(struct tm));
 3200022:	83 ec 0c             	sub    esp,0xc
 3200025:	6a 2c                	push   0x2c
 3200027:	e8 f4 01 00 00       	call   3200220 <main+0x220>
 320002c:	83 c4 10             	add    esp,0x10
 320002f:	89 45 e8             	mov    DWORD PTR [ebp-0x18],eax
/home/yogi/src/os/aproj/time/testtime.c:30
    endTime = malloc(sizeof(struct tm));
 3200032:	83 ec 0c             	sub    esp,0xc
 3200035:	6a 2c                	push   0x2c
 3200037:	e8 e4 01 00 00       	call   3200220 <main+0x220>
 320003c:	83 c4 10             	add    esp,0x10
 320003f:	89 45 e4             	mov    DWORD PTR [ebp-0x1c],eax
/home/yogi/src/os/aproj/time/testtime.c:31
    execpgm = malloc(1024);
 3200042:	83 ec 0c             	sub    esp,0xc
 3200045:	68 00 04 00 00       	push   0x400
 320004a:	e8 d1 01 00 00       	call   3200220 <main+0x220>
 320004f:	83 c4 10             	add    esp,0x10
 3200052:	89 45 e0             	mov    DWORD PTR [ebp-0x20],eax
/home/yogi/src/os/aproj/time/testtime.c:36
//    print("Param count=%u\n",argc);
//    for (int cnt=0;cnt<argc;cnt++)
//        print("Param %u=%s\n",cnt,argv[cnt]);
#endif
    if (argc<2)
 3200055:	83 3b 01             	cmp    DWORD PTR [ebx],0x1
 3200058:	7f 17                	jg     3200071 <main+0x71>
/home/yogi/src/os/aproj/time/testtime.c:38
    {
        print("Error: Not enough parameters supplied, must pass path to program to be run\n");
 320005a:	83 ec 0c             	sub    esp,0xc
 320005d:	68 00 10 20 03       	push   0x3201000
 3200062:	e8 a9 01 00 00       	call   3200210 <main+0x210>
 3200067:	83 c4 10             	add    esp,0x10
/home/yogi/src/os/aproj/time/testtime.c:39
        retVal=-1;
 320006a:	c7 45 f4 ff ff ff ff 	mov    DWORD PTR [ebp-0xc],0xffffffff
/home/yogi/src/os/aproj/time/testtime.c:42
    }

    for (int cnt=2;cnt<argc;cnt++)
 3200071:	c7 45 f0 02 00 00 00 	mov    DWORD PTR [ebp-0x10],0x2
 3200078:	eb 37                	jmp    32000b1 <main+0xb1>
/home/yogi/src/os/aproj/time/testtime.c:44 (discriminator 3)
    {
        strcat(execpgm," ");
 320007a:	83 ec 08             	sub    esp,0x8
 320007d:	68 4c 10 20 03       	push   0x320104c
 3200082:	ff 75 e0             	push   DWORD PTR [ebp-0x20]
 3200085:	e8 b6 01 00 00       	call   3200240 <main+0x240>
 320008a:	83 c4 10             	add    esp,0x10
/home/yogi/src/os/aproj/time/testtime.c:45 (discriminator 3)
        strcat(execpgm,argv[cnt]);
 320008d:	8b 45 f0             	mov    eax,DWORD PTR [ebp-0x10]
 3200090:	8d 14 85 00 00 00 00 	lea    edx,[eax*4+0x0]
 3200097:	8b 43 04             	mov    eax,DWORD PTR [ebx+0x4]
 320009a:	01 d0                	add    eax,edx
 320009c:	8b 00                	mov    eax,DWORD PTR [eax]
 320009e:	83 ec 08             	sub    esp,0x8
 32000a1:	50                   	push   eax
 32000a2:	ff 75 e0             	push   DWORD PTR [ebp-0x20]
 32000a5:	e8 96 01 00 00       	call   3200240 <main+0x240>
 32000aa:	83 c4 10             	add    esp,0x10
/home/yogi/src/os/aproj/time/testtime.c:42 (discriminator 3)
    {
        print("Error: Not enough parameters supplied, must pass path to program to be run\n");
        retVal=-1;
    }

    for (int cnt=2;cnt<argc;cnt++)
 32000ad:	83 45 f0 01          	add    DWORD PTR [ebp-0x10],0x1
/home/yogi/src/os/aproj/time/testtime.c:42 (discriminator 1)
 32000b1:	8b 45 f0             	mov    eax,DWORD PTR [ebp-0x10]
 32000b4:	3b 03                	cmp    eax,DWORD PTR [ebx]
 32000b6:	7c c2                	jl     320007a <main+0x7a>
/home/yogi/src/os/aproj/time/testtime.c:47
    {
        strcat(execpgm," ");
        strcat(execpgm,argv[cnt]);
    }
    if (retVal==0)
 32000b8:	83 7d f4 00          	cmp    DWORD PTR [ebp-0xc],0x0
 32000bc:	75 15                	jne    32000d3 <main+0xd3>
/home/yogi/src/os/aproj/time/testtime.c:52
    {
        int argcl;
        char** argvl;
        
        cmdlineToArgv(execpgm, &argcl, argvl);
 32000be:	83 ec 04             	sub    esp,0x4
 32000c1:	ff 75 dc             	push   DWORD PTR [ebp-0x24]
 32000c4:	8d 45 c8             	lea    eax,[ebp-0x38]
 32000c7:	50                   	push   eax
 32000c8:	ff 75 e0             	push   DWORD PTR [ebp-0x20]
 32000cb:	e8 60 01 00 00       	call   3200230 <main+0x230>
 32000d0:	83 c4 10             	add    esp,0x10
/home/yogi/src/os/aproj/time/testtime.c:54
    }
    if (retVal==0)
 32000d3:	83 7d f4 00          	cmp    DWORD PTR [ebp-0xc],0x0
 32000d7:	0f 85 d3 00 00 00    	jne    32001b0 <main+0x1b0>
/home/yogi/src/os/aproj/time/testtime.c:57
    {
        //print("executing %s with first parameter at 0x%08X (%u parameters)\n", execpgm, argv[1], argc-1);
        startTicks=getticks();
 32000dd:	e8 6e 01 00 00       	call   3200250 <main+0x250>
 32000e2:	89 45 d8             	mov    DWORD PTR [ebp-0x28],eax
/home/yogi/src/os/aproj/time/testtime.c:58
        gettime(startTime,true);
 32000e5:	83 ec 08             	sub    esp,0x8
 32000e8:	6a 01                	push   0x1
 32000ea:	ff 75 e8             	push   DWORD PTR [ebp-0x18]
 32000ed:	e8 8e 01 00 00       	call   3200280 <main+0x280>
 32000f2:	83 c4 10             	add    esp,0x10
/home/yogi/src/os/aproj/time/testtime.c:61
        //pid=execb(execpgm);
        //Execute the program
        pid = fork();
 32000f5:	e8 76 01 00 00       	call   3200270 <main+0x270>
 32000fa:	89 45 ec             	mov    DWORD PTR [ebp-0x14],eax
/home/yogi/src/os/aproj/time/testtime.c:62
        if (pid==0)
 32000fd:	83 7d ec 00          	cmp    DWORD PTR [ebp-0x14],0x0
 3200101:	75 4c                	jne    320014f <main+0x14f>
/home/yogi/src/os/aproj/time/testtime.c:64
        {
            int childPid = exec(execpgm, 0, NULL);
 3200103:	83 ec 04             	sub    esp,0x4
 3200106:	6a 00                	push   0x0
 3200108:	6a 00                	push   0x0
 320010a:	ff 75 e0             	push   DWORD PTR [ebp-0x20]
 320010d:	e8 4e 01 00 00       	call   3200260 <main+0x260>
 3200112:	83 c4 10             	add    esp,0x10
 3200115:	89 45 d4             	mov    DWORD PTR [ebp-0x2c],eax
/home/yogi/src/os/aproj/time/testtime.c:65
            if (childPid <= 0)
 3200118:	83 7d d4 00          	cmp    DWORD PTR [ebp-0x2c],0x0
 320011c:	7f 1d                	jg     320013b <main+0x13b>
/home/yogi/src/os/aproj/time/testtime.c:67
            {
                print("Error exec'ing %s\n",execpgm);
 320011e:	83 ec 08             	sub    esp,0x8
 3200121:	ff 75 e0             	push   DWORD PTR [ebp-0x20]
 3200124:	68 4e 10 20 03       	push   0x320104e
 3200129:	e8 e2 00 00 00       	call   3200210 <main+0x210>
 320012e:	83 c4 10             	add    esp,0x10
/home/yogi/src/os/aproj/time/testtime.c:68
                return -1;
 3200131:	b8 ff ff ff ff       	mov    eax,0xffffffff
 3200136:	e9 a2 00 00 00       	jmp    32001dd <main+0x1dd>
/home/yogi/src/os/aproj/time/testtime.c:72
            }
            else
            {
                return waitpid(childPid);
 320013b:	8b 45 d4             	mov    eax,DWORD PTR [ebp-0x2c]
 320013e:	83 ec 0c             	sub    esp,0xc
 3200141:	50                   	push   eax
 3200142:	e8 b9 00 00 00       	call   3200200 <main+0x200>
 3200147:	83 c4 10             	add    esp,0x10
 320014a:	e9 8e 00 00 00       	jmp    32001dd <main+0x1dd>
/home/yogi/src/os/aproj/time/testtime.c:76
                
            }
        }
        if (pid<0)
 320014f:	83 7d ec 00          	cmp    DWORD PTR [ebp-0x14],0x0
 3200153:	79 1c                	jns    3200171 <main+0x171>
/home/yogi/src/os/aproj/time/testtime.c:78
        {
            print("Error forking: %u\n",pid);
 3200155:	83 ec 08             	sub    esp,0x8
 3200158:	ff 75 ec             	push   DWORD PTR [ebp-0x14]
 320015b:	68 61 10 20 03       	push   0x3201061
 3200160:	e8 ab 00 00 00       	call   3200210 <main+0x210>
 3200165:	83 c4 10             	add    esp,0x10
/home/yogi/src/os/aproj/time/testtime.c:79
            retVal=-3;
 3200168:	c7 45 f4 fd ff ff ff 	mov    DWORD PTR [ebp-0xc],0xfffffffd
 320016f:	eb 3f                	jmp    32001b0 <main+0x1b0>
/home/yogi/src/os/aproj/time/testtime.c:83
        }
        else
        {
            retVal = waitpid(pid);
 3200171:	8b 45 ec             	mov    eax,DWORD PTR [ebp-0x14]
 3200174:	83 ec 0c             	sub    esp,0xc
 3200177:	50                   	push   eax
 3200178:	e8 83 00 00 00       	call   3200200 <main+0x200>
 320017d:	83 c4 10             	add    esp,0x10
 3200180:	89 45 f4             	mov    DWORD PTR [ebp-0xc],eax
/home/yogi/src/os/aproj/time/testtime.c:84
            if (retVal == 0)
 3200183:	83 7d f4 00          	cmp    DWORD PTR [ebp-0xc],0x0
 3200187:	75 27                	jne    32001b0 <main+0x1b0>
/home/yogi/src/os/aproj/time/testtime.c:86
            {
                endTicks=getticks();
 3200189:	e8 c2 00 00 00       	call   3200250 <main+0x250>
 320018e:	89 45 d0             	mov    DWORD PTR [ebp-0x30],eax
/home/yogi/src/os/aproj/time/testtime.c:87
                gettime(endTime,true);
 3200191:	83 ec 08             	sub    esp,0x8
 3200194:	6a 01                	push   0x1
 3200196:	ff 75 e4             	push   DWORD PTR [ebp-0x1c]
 3200199:	e8 e2 00 00 00       	call   3200280 <main+0x280>
 320019e:	83 c4 10             	add    esp,0x10
/home/yogi/src/os/aproj/time/testtime.c:88
                elapsed=(endTicks-startTicks);
 32001a1:	8b 45 d0             	mov    eax,DWORD PTR [ebp-0x30]
 32001a4:	2b 45 d8             	sub    eax,DWORD PTR [ebp-0x28]
 32001a7:	89 45 cc             	mov    DWORD PTR [ebp-0x34],eax
/home/yogi/src/os/aproj/time/testtime.c:89
                retVal=elapsed;
 32001aa:	8b 45 cc             	mov    eax,DWORD PTR [ebp-0x34]
 32001ad:	89 45 f4             	mov    DWORD PTR [ebp-0xc],eax
/home/yogi/src/os/aproj/time/testtime.c:102
    */
    //            free(totalTime);
            }
        }
    }
    free(startTime);
 32001b0:	83 ec 0c             	sub    esp,0xc
 32001b3:	ff 75 e8             	push   DWORD PTR [ebp-0x18]
 32001b6:	e8 d5 00 00 00       	call   3200290 <main+0x290>
 32001bb:	83 c4 10             	add    esp,0x10
/home/yogi/src/os/aproj/time/testtime.c:103
    free(endTime);
 32001be:	83 ec 0c             	sub    esp,0xc
 32001c1:	ff 75 e4             	push   DWORD PTR [ebp-0x1c]
 32001c4:	e8 c7 00 00 00       	call   3200290 <main+0x290>
 32001c9:	83 c4 10             	add    esp,0x10
/home/yogi/src/os/aproj/time/testtime.c:104
    free(execpgm);
 32001cc:	83 ec 0c             	sub    esp,0xc
 32001cf:	ff 75 e0             	push   DWORD PTR [ebp-0x20]
 32001d2:	e8 b9 00 00 00       	call   3200290 <main+0x290>
 32001d7:	83 c4 10             	add    esp,0x10
/home/yogi/src/os/aproj/time/testtime.c:105
    return (retVal);
 32001da:	8b 45 f4             	mov    eax,DWORD PTR [ebp-0xc]
/home/yogi/src/os/aproj/time/testtime.c:106
}
 32001dd:	8d 65 f8             	lea    esp,[ebp-0x8]
 32001e0:	59                   	pop    ecx
 32001e1:	5b                   	pop    ebx
 32001e2:	5d                   	pop    ebp
 32001e3:	8d 61 fc             	lea    esp,[ecx-0x4]
 32001e6:	c3                   	ret    

Disassembly of section .plt:

032001f0 <.plt>:
 32001f0:	ff 35 34 03 20 03    	push   DWORD PTR ds:0x3200334
 32001f6:	ff 25 38 03 20 03    	jmp    DWORD PTR ds:0x3200338
 32001fc:	00 00                	add    BYTE PTR [eax],al
 32001fe:	00 00                	add    BYTE PTR [eax],al
 3200200:	ff 25 3c 03 20 03    	jmp    DWORD PTR ds:0x320033c
 3200206:	68 00 00 00 00       	push   0x0
 320020b:	e9 e0 ff ff ff       	jmp    32001f0 <main+0x1f0>
 3200210:	ff 25 40 03 20 03    	jmp    DWORD PTR ds:0x3200340
 3200216:	68 08 00 00 00       	push   0x8
 320021b:	e9 d0 ff ff ff       	jmp    32001f0 <main+0x1f0>
 3200220:	ff 25 44 03 20 03    	jmp    DWORD PTR ds:0x3200344
 3200226:	68 10 00 00 00       	push   0x10
 320022b:	e9 c0 ff ff ff       	jmp    32001f0 <main+0x1f0>
 3200230:	ff 25 48 03 20 03    	jmp    DWORD PTR ds:0x3200348
 3200236:	68 18 00 00 00       	push   0x18
 320023b:	e9 b0 ff ff ff       	jmp    32001f0 <main+0x1f0>
 3200240:	ff 25 4c 03 20 03    	jmp    DWORD PTR ds:0x320034c
 3200246:	68 20 00 00 00       	push   0x20
 320024b:	e9 a0 ff ff ff       	jmp    32001f0 <main+0x1f0>
 3200250:	ff 25 50 03 20 03    	jmp    DWORD PTR ds:0x3200350
 3200256:	68 28 00 00 00       	push   0x28
 320025b:	e9 90 ff ff ff       	jmp    32001f0 <main+0x1f0>
 3200260:	ff 25 54 03 20 03    	jmp    DWORD PTR ds:0x3200354
 3200266:	68 30 00 00 00       	push   0x30
 320026b:	e9 80 ff ff ff       	jmp    32001f0 <main+0x1f0>
 3200270:	ff 25 58 03 20 03    	jmp    DWORD PTR ds:0x3200358
 3200276:	68 38 00 00 00       	push   0x38
 320027b:	e9 70 ff ff ff       	jmp    32001f0 <main+0x1f0>
 3200280:	ff 25 5c 03 20 03    	jmp    DWORD PTR ds:0x320035c
 3200286:	68 40 00 00 00       	push   0x40
 320028b:	e9 60 ff ff ff       	jmp    32001f0 <main+0x1f0>
 3200290:	ff 25 60 03 20 03    	jmp    DWORD PTR ds:0x3200360
 3200296:	68 48 00 00 00       	push   0x48
 320029b:	e9 50 ff ff ff       	jmp    32001f0 <main+0x1f0>
