
Debug/cross-Linux-x86/libfatLib.so:     file format elf32-i386


Disassembly of section .text:

00000000 <fatfs_init>:
fatfs_init():
/home/yogi/NetBeansProjects/fatLib/../chrisOS/src/fat/fat_access.c:44

//-----------------------------------------------------------------------------
// fatfs_init: Load FAT Parameters
//-----------------------------------------------------------------------------
int fatfs_init(struct fatfs *fs)
{
       0:	55                   	push   ebp
       1:	89 e5                	mov    ebp,esp
       3:	53                   	push   ebx
       4:	83 ec 24             	sub    esp,0x24
       7:	e8 ee 6e 00 00       	call   6efa <__x86.get_pc_thunk.bx>
       c:	81 c3 1c af 00 00    	add    ebx,0xaf1c
/home/yogi/NetBeansProjects/fatLib/../chrisOS/src/fat/fat_access.c:52
    uint32 FATSz;
    uint32 root_dir_sectors;
    uint32 total_sectors;
    uint32 data_sectors;
    uint32 count_of_clusters;
    uint8 valid_partition = 0;
      12:	c6 45 ef 00          	mov    BYTE PTR [ebp-0x11],0x0
/home/yogi/NetBeansProjects/fatLib/../chrisOS/src/fat/fat_access.c:54

    fs->currentsector.address = FAT32_INVALID_CLUSTER;
      16:	8b 45 08             	mov    eax,DWORD PTR [ebp+0x8]
      19:	c7 80 44 02 00 00 ff 	mov    DWORD PTR [eax+0x244],0xffffffff
      20:	ff ff ff 
/home/yogi/NetBeansProjects/fatLib/../chrisOS/src/fat/fat_access.c:55
    fs->currentsector.dirty = 0;
      23:	8b 45 08             	mov    eax,DWORD PTR [ebp+0x8]
      26:	c7 80 48 02 00 00 00 	mov    DWORD PTR [eax+0x248],0x0
      2d:	00 00 00 
/home/yogi/NetBeansProjects/fatLib/../chrisOS/src/fat/fat_access.c:57

    fs->next_free_cluster = 0; // Invalid
      30:	8b 45 08             	mov    eax,DWORD PTR [ebp+0x8]
      33:	c7 40 24 00 00 00 00 	mov    DWORD PTR [eax+0x24],0x0
/home/yogi/NetBeansProjects/fatLib/../chrisOS/src/fat/fat_access.c:59

    fatfs_fat_init(fs);
      3a:	83 ec 0c             	sub    esp,0xc
      3d:	ff 75 08             	push   DWORD PTR [ebp+0x8]
      40:	e8 eb 6e 00 00       	call   6f30 <__x86.get_pc_thunk.bx+0x36>
      45:	83 c4 10             	add    esp,0x10
/home/yogi/NetBeansProjects/fatLib/../chrisOS/src/fat/fat_access.c:62

    // Make sure we have a read function (write function is optional)
    if (!fs->disk_io.read_media)
      48:	8b 45 08             	mov    eax,DWORD PTR [ebp+0x8]
      4b:	8b 40 34             	mov    eax,DWORD PTR [eax+0x34]
      4e:	85 c0                	test   eax,eax
      50:	75 0a                	jne    5c <fatfs_init+0x5c>
/home/yogi/NetBeansProjects/fatLib/../chrisOS/src/fat/fat_access.c:63
        return FAT_INIT_MEDIA_ACCESS_ERROR;
      52:	b8 ff ff ff ff       	mov    eax,0xffffffff
      57:	e9 4b 05 00 00       	jmp    5a7 <.L8+0x4a0>
/home/yogi/NetBeansProjects/fatLib/../chrisOS/src/fat/fat_access.c:69

    // MBR: Sector 0 on the disk
    // NOTE: Some removeable media does not have this.

    // Load MBR (LBA 0) into the 512 byte buffer
    if (!fs->disk_io.read_media(0, fs->currentsector.sector, 1))
      5c:	8b 45 08             	mov    eax,DWORD PTR [ebp+0x8]
      5f:	8b 40 34             	mov    eax,DWORD PTR [eax+0x34]
      62:	8b 55 08             	mov    edx,DWORD PTR [ebp+0x8]
      65:	83 c2 44             	add    edx,0x44
      68:	83 ec 04             	sub    esp,0x4
      6b:	6a 01                	push   0x1
      6d:	52                   	push   edx
      6e:	6a 00                	push   0x0
      70:	ff d0                	call   eax
      72:	83 c4 10             	add    esp,0x10
      75:	85 c0                	test   eax,eax
      77:	75 0a                	jne    83 <fatfs_init+0x83>
/home/yogi/NetBeansProjects/fatLib/../chrisOS/src/fat/fat_access.c:70
        return FAT_INIT_MEDIA_ACCESS_ERROR;
      79:	b8 ff ff ff ff       	mov    eax,0xffffffff
      7e:	e9 24 05 00 00       	jmp    5a7 <.L8+0x4a0>
/home/yogi/NetBeansProjects/fatLib/../chrisOS/src/fat/fat_access.c:74

    // Make Sure 0x55 and 0xAA are at end of sector
    // (this should be the case regardless of the MBR or boot sector)
    if (fs->currentsector.sector[SIGNATURE_POSITION] != 0x55 || fs->currentsector.sector[SIGNATURE_POSITION+1] != 0xAA)
      83:	8b 45 08             	mov    eax,DWORD PTR [ebp+0x8]
      86:	0f b6 80 42 02 00 00 	movzx  eax,BYTE PTR [eax+0x242]
      8d:	3c 55                	cmp    al,0x55
      8f:	75 0e                	jne    9f <fatfs_init+0x9f>
/home/yogi/NetBeansProjects/fatLib/../chrisOS/src/fat/fat_access.c:74 (discriminator 1)
      91:	8b 45 08             	mov    eax,DWORD PTR [ebp+0x8]
      94:	0f b6 80 43 02 00 00 	movzx  eax,BYTE PTR [eax+0x243]
      9b:	3c aa                	cmp    al,0xaa
      9d:	74 0a                	je     a9 <fatfs_init+0xa9>
/home/yogi/NetBeansProjects/fatLib/../chrisOS/src/fat/fat_access.c:75
        return FAT_INIT_INVALID_SIGNATURE;
      9f:	b8 fd ff ff ff       	mov    eax,0xfffffffd
      a4:	e9 fe 04 00 00       	jmp    5a7 <.L8+0x4a0>
/home/yogi/NetBeansProjects/fatLib/../chrisOS/src/fat/fat_access.c:78

    // Now check again using the access function to prove endian conversion function
    if (GET_16BIT_WORD(fs->currentsector.sector, SIGNATURE_POSITION) != SIGNATURE_VALUE)
      a9:	8b 45 08             	mov    eax,DWORD PTR [ebp+0x8]
      ac:	0f b6 80 43 02 00 00 	movzx  eax,BYTE PTR [eax+0x243]
      b3:	0f b6 c0             	movzx  eax,al
      b6:	c1 e0 08             	shl    eax,0x8
      b9:	89 c2                	mov    edx,eax
      bb:	8b 45 08             	mov    eax,DWORD PTR [ebp+0x8]
      be:	0f b6 80 42 02 00 00 	movzx  eax,BYTE PTR [eax+0x242]
      c5:	0f b6 c0             	movzx  eax,al
      c8:	01 d0                	add    eax,edx
      ca:	3d 55 aa 00 00       	cmp    eax,0xaa55
      cf:	74 0a                	je     db <fatfs_init+0xdb>
/home/yogi/NetBeansProjects/fatLib/../chrisOS/src/fat/fat_access.c:79
        return FAT_INIT_ENDIAN_ERROR;
      d1:	b8 fc ff ff ff       	mov    eax,0xfffffffc
      d6:	e9 cc 04 00 00       	jmp    5a7 <.L8+0x4a0>
/home/yogi/NetBeansProjects/fatLib/../chrisOS/src/fat/fat_access.c:86
    // Verify packed structures
    if (sizeof(struct fat_dir_entry) != FAT_DIR_ENTRY_SIZE)
        return FAT_INIT_STRUCT_PACKING;

    // Check the partition type code
    switch(fs->currentsector.sector[PARTITION1_TYPECODE_LOCATION])
      db:	8b 45 08             	mov    eax,DWORD PTR [ebp+0x8]
      de:	0f b6 80 06 02 00 00 	movzx  eax,BYTE PTR [eax+0x206]
      e5:	0f b6 c0             	movzx  eax,al
      e8:	83 f8 0f             	cmp    eax,0xf
      eb:	77 1a                	ja     107 <.L8>
      ed:	c1 e0 02             	shl    eax,0x2
      f0:	8b 84 18 78 c4 ff ff 	mov    eax,DWORD PTR [eax+ebx*1-0x3b88]
      f7:	01 d8                	add    eax,ebx
      f9:	ff e0                	jmp    eax

000000fb <.L11>:
/home/yogi/NetBeansProjects/fatLib/../chrisOS/src/fat/fat_access.c:94
        case 0x06:
        case 0x0C:
        case 0x0E:
        case 0x0F:
        case 0x05:
            valid_partition = 1;
      fb:	c6 45 ef 01          	mov    BYTE PTR [ebp-0x11],0x1
/home/yogi/NetBeansProjects/fatLib/../chrisOS/src/fat/fat_access.c:95
        break;
      ff:	eb 19                	jmp    11a <.L8+0x13>

00000101 <.L9>:
/home/yogi/NetBeansProjects/fatLib/../chrisOS/src/fat/fat_access.c:97
        case 0x00:
            valid_partition = 0;
     101:	c6 45 ef 00          	mov    BYTE PTR [ebp-0x11],0x0
/home/yogi/NetBeansProjects/fatLib/../chrisOS/src/fat/fat_access.c:98
            break;
     105:	eb 13                	jmp    11a <.L8+0x13>

00000107 <.L8>:
/home/yogi/NetBeansProjects/fatLib/../chrisOS/src/fat/fat_access.c:100
        default:
            if (fs->currentsector.sector[PARTITION1_TYPECODE_LOCATION] <= 0x06)
     107:	8b 45 08             	mov    eax,DWORD PTR [ebp+0x8]
     10a:	0f b6 80 06 02 00 00 	movzx  eax,BYTE PTR [eax+0x206]
     111:	3c 06                	cmp    al,0x6
     113:	77 04                	ja     119 <.L8+0x12>
/home/yogi/NetBeansProjects/fatLib/../chrisOS/src/fat/fat_access.c:101
                valid_partition = 1;
     115:	c6 45 ef 01          	mov    BYTE PTR [ebp-0x11],0x1
/home/yogi/NetBeansProjects/fatLib/../chrisOS/src/fat/fat_access.c:102
        break;
     119:	90                   	nop
/home/yogi/NetBeansProjects/fatLib/../chrisOS/src/fat/fat_access.c:106
    }

    // Read LBA Begin for the file system
    if (valid_partition)
     11a:	80 7d ef 00          	cmp    BYTE PTR [ebp-0x11],0x0
     11e:	74 4d                	je     16d <.L8+0x66>
/home/yogi/NetBeansProjects/fatLib/../chrisOS/src/fat/fat_access.c:107
        fs->lba_begin = GET_32BIT_WORD(fs->currentsector.sector, PARTITION1_LBA_BEGIN_LOCATION);
     120:	8b 45 08             	mov    eax,DWORD PTR [ebp+0x8]
     123:	0f b6 80 0d 02 00 00 	movzx  eax,BYTE PTR [eax+0x20d]
     12a:	0f b6 c0             	movzx  eax,al
     12d:	c1 e0 18             	shl    eax,0x18
     130:	89 c2                	mov    edx,eax
     132:	8b 45 08             	mov    eax,DWORD PTR [ebp+0x8]
     135:	0f b6 80 0c 02 00 00 	movzx  eax,BYTE PTR [eax+0x20c]
     13c:	0f b6 c0             	movzx  eax,al
     13f:	c1 e0 10             	shl    eax,0x10
     142:	01 c2                	add    edx,eax
     144:	8b 45 08             	mov    eax,DWORD PTR [ebp+0x8]
     147:	0f b6 80 0b 02 00 00 	movzx  eax,BYTE PTR [eax+0x20b]
     14e:	0f b6 c0             	movzx  eax,al
     151:	c1 e0 08             	shl    eax,0x8
     154:	01 c2                	add    edx,eax
     156:	8b 45 08             	mov    eax,DWORD PTR [ebp+0x8]
     159:	0f b6 80 0a 02 00 00 	movzx  eax,BYTE PTR [eax+0x20a]
     160:	0f b6 c0             	movzx  eax,al
     163:	01 c2                	add    edx,eax
     165:	8b 45 08             	mov    eax,DWORD PTR [ebp+0x8]
     168:	89 50 1c             	mov    DWORD PTR [eax+0x1c],edx
     16b:	eb 0a                	jmp    177 <.L8+0x70>
/home/yogi/NetBeansProjects/fatLib/../chrisOS/src/fat/fat_access.c:110
    // Else possibly MBR less disk
    else
        fs->lba_begin = 0;
     16d:	8b 45 08             	mov    eax,DWORD PTR [ebp+0x8]
     170:	c7 40 1c 00 00 00 00 	mov    DWORD PTR [eax+0x1c],0x0
/home/yogi/NetBeansProjects/fatLib/../chrisOS/src/fat/fat_access.c:114

    // Load Volume 1 table into sector buffer
    // (We may already have this in the buffer if MBR less drive!)
    if (!fs->disk_io.read_media(fs->lba_begin, fs->currentsector.sector, 1))
     177:	8b 45 08             	mov    eax,DWORD PTR [ebp+0x8]
     17a:	8b 40 34             	mov    eax,DWORD PTR [eax+0x34]
     17d:	8b 55 08             	mov    edx,DWORD PTR [ebp+0x8]
     180:	8d 4a 44             	lea    ecx,[edx+0x44]
     183:	8b 55 08             	mov    edx,DWORD PTR [ebp+0x8]
     186:	8b 52 1c             	mov    edx,DWORD PTR [edx+0x1c]
     189:	83 ec 04             	sub    esp,0x4
     18c:	6a 01                	push   0x1
     18e:	51                   	push   ecx
     18f:	52                   	push   edx
     190:	ff d0                	call   eax
     192:	83 c4 10             	add    esp,0x10
     195:	85 c0                	test   eax,eax
     197:	75 0a                	jne    1a3 <.L8+0x9c>
/home/yogi/NetBeansProjects/fatLib/../chrisOS/src/fat/fat_access.c:115
        return FAT_INIT_MEDIA_ACCESS_ERROR;
     199:	b8 ff ff ff ff       	mov    eax,0xffffffff
     19e:	e9 04 04 00 00       	jmp    5a7 <.L8+0x4a0>
/home/yogi/NetBeansProjects/fatLib/../chrisOS/src/fat/fat_access.c:118

    // Make sure there are 512 bytes per cluster
    if (GET_16BIT_WORD(fs->currentsector.sector, 0x0B) != FAT_SECTOR_SIZE)
     1a3:	8b 45 08             	mov    eax,DWORD PTR [ebp+0x8]
     1a6:	0f b6 40 50          	movzx  eax,BYTE PTR [eax+0x50]
     1aa:	0f b6 c0             	movzx  eax,al
     1ad:	c1 e0 08             	shl    eax,0x8
     1b0:	89 c2                	mov    edx,eax
     1b2:	8b 45 08             	mov    eax,DWORD PTR [ebp+0x8]
     1b5:	0f b6 40 4f          	movzx  eax,BYTE PTR [eax+0x4f]
     1b9:	0f b6 c0             	movzx  eax,al
     1bc:	01 d0                	add    eax,edx
     1be:	3d 00 02 00 00       	cmp    eax,0x200
     1c3:	74 0a                	je     1cf <.L8+0xc8>
/home/yogi/NetBeansProjects/fatLib/../chrisOS/src/fat/fat_access.c:119
        return FAT_INIT_INVALID_SECTOR_SIZE;
     1c5:	b8 fe ff ff ff       	mov    eax,0xfffffffe
     1ca:	e9 d8 03 00 00       	jmp    5a7 <.L8+0x4a0>
/home/yogi/NetBeansProjects/fatLib/../chrisOS/src/fat/fat_access.c:122

    // Load Parameters of FAT partition
    fs->sectors_per_cluster = fs->currentsector.sector[BPB_SECPERCLUS];
     1cf:	8b 45 08             	mov    eax,DWORD PTR [ebp+0x8]
     1d2:	0f b6 50 51          	movzx  edx,BYTE PTR [eax+0x51]
     1d6:	8b 45 08             	mov    eax,DWORD PTR [ebp+0x8]
     1d9:	88 10                	mov    BYTE PTR [eax],dl
/home/yogi/NetBeansProjects/fatLib/../chrisOS/src/fat/fat_access.c:123
    reserved_sectors = GET_16BIT_WORD(fs->currentsector.sector, BPB_RSVDSECCNT);
     1db:	8b 45 08             	mov    eax,DWORD PTR [ebp+0x8]
     1de:	0f b6 40 53          	movzx  eax,BYTE PTR [eax+0x53]
     1e2:	0f b6 c0             	movzx  eax,al
     1e5:	c1 e0 08             	shl    eax,0x8
     1e8:	89 c2                	mov    edx,eax
     1ea:	8b 45 08             	mov    eax,DWORD PTR [ebp+0x8]
     1ed:	0f b6 40 52          	movzx  eax,BYTE PTR [eax+0x52]
     1f1:	0f b6 c0             	movzx  eax,al
     1f4:	01 d0                	add    eax,edx
     1f6:	66 89 45 ec          	mov    WORD PTR [ebp-0x14],ax
/home/yogi/NetBeansProjects/fatLib/../chrisOS/src/fat/fat_access.c:124
    num_of_fats = fs->currentsector.sector[BPB_NUMFATS];
     1fa:	8b 45 08             	mov    eax,DWORD PTR [ebp+0x8]
     1fd:	0f b6 40 54          	movzx  eax,BYTE PTR [eax+0x54]
     201:	88 45 eb             	mov    BYTE PTR [ebp-0x15],al
/home/yogi/NetBeansProjects/fatLib/../chrisOS/src/fat/fat_access.c:125
    fs->root_entry_count = GET_16BIT_WORD(fs->currentsector.sector, BPB_ROOTENTCNT);
     204:	8b 45 08             	mov    eax,DWORD PTR [ebp+0x8]
     207:	0f b6 40 56          	movzx  eax,BYTE PTR [eax+0x56]
     20b:	0f b6 c0             	movzx  eax,al
     20e:	c1 e0 08             	shl    eax,0x8
     211:	89 c2                	mov    edx,eax
     213:	8b 45 08             	mov    eax,DWORD PTR [ebp+0x8]
     216:	0f b6 40 55          	movzx  eax,BYTE PTR [eax+0x55]
     21a:	0f b6 c0             	movzx  eax,al
     21d:	01 c2                	add    edx,eax
     21f:	8b 45 08             	mov    eax,DWORD PTR [ebp+0x8]
     222:	66 89 50 28          	mov    WORD PTR [eax+0x28],dx
/home/yogi/NetBeansProjects/fatLib/../chrisOS/src/fat/fat_access.c:127

    if(GET_16BIT_WORD(fs->currentsector.sector, BPB_FATSZ16) != 0)
     226:	8b 45 08             	mov    eax,DWORD PTR [ebp+0x8]
     229:	0f b6 40 5b          	movzx  eax,BYTE PTR [eax+0x5b]
     22d:	0f b6 c0             	movzx  eax,al
     230:	c1 e0 08             	shl    eax,0x8
     233:	89 c2                	mov    edx,eax
     235:	8b 45 08             	mov    eax,DWORD PTR [ebp+0x8]
     238:	0f b6 40 5a          	movzx  eax,BYTE PTR [eax+0x5a]
     23c:	0f b6 c0             	movzx  eax,al
     23f:	01 d0                	add    eax,edx
     241:	85 c0                	test   eax,eax
     243:	74 25                	je     26a <.L8+0x163>
/home/yogi/NetBeansProjects/fatLib/../chrisOS/src/fat/fat_access.c:128
        fs->fat_sectors = GET_16BIT_WORD(fs->currentsector.sector, BPB_FATSZ16);
     245:	8b 45 08             	mov    eax,DWORD PTR [ebp+0x8]
     248:	0f b6 40 5b          	movzx  eax,BYTE PTR [eax+0x5b]
     24c:	0f b6 c0             	movzx  eax,al
     24f:	c1 e0 08             	shl    eax,0x8
     252:	89 c2                	mov    edx,eax
     254:	8b 45 08             	mov    eax,DWORD PTR [ebp+0x8]
     257:	0f b6 40 5a          	movzx  eax,BYTE PTR [eax+0x5a]
     25b:	0f b6 c0             	movzx  eax,al
     25e:	01 d0                	add    eax,edx
     260:	89 c2                	mov    edx,eax
     262:	8b 45 08             	mov    eax,DWORD PTR [ebp+0x8]
     265:	89 50 20             	mov    DWORD PTR [eax+0x20],edx
     268:	eb 3f                	jmp    2a9 <.L8+0x1a2>
/home/yogi/NetBeansProjects/fatLib/../chrisOS/src/fat/fat_access.c:130
    else
        fs->fat_sectors = GET_32BIT_WORD(fs->currentsector.sector, BPB_FAT32_FATSZ32);
     26a:	8b 45 08             	mov    eax,DWORD PTR [ebp+0x8]
     26d:	0f b6 40 6b          	movzx  eax,BYTE PTR [eax+0x6b]
     271:	0f b6 c0             	movzx  eax,al
     274:	c1 e0 18             	shl    eax,0x18
     277:	89 c2                	mov    edx,eax
     279:	8b 45 08             	mov    eax,DWORD PTR [ebp+0x8]
     27c:	0f b6 40 6a          	movzx  eax,BYTE PTR [eax+0x6a]
     280:	0f b6 c0             	movzx  eax,al
     283:	c1 e0 10             	shl    eax,0x10
     286:	01 c2                	add    edx,eax
     288:	8b 45 08             	mov    eax,DWORD PTR [ebp+0x8]
     28b:	0f b6 40 69          	movzx  eax,BYTE PTR [eax+0x69]
     28f:	0f b6 c0             	movzx  eax,al
     292:	c1 e0 08             	shl    eax,0x8
     295:	01 c2                	add    edx,eax
     297:	8b 45 08             	mov    eax,DWORD PTR [ebp+0x8]
     29a:	0f b6 40 68          	movzx  eax,BYTE PTR [eax+0x68]
     29e:	0f b6 c0             	movzx  eax,al
     2a1:	01 c2                	add    edx,eax
     2a3:	8b 45 08             	mov    eax,DWORD PTR [ebp+0x8]
     2a6:	89 50 20             	mov    DWORD PTR [eax+0x20],edx
/home/yogi/NetBeansProjects/fatLib/../chrisOS/src/fat/fat_access.c:133

    // For FAT32 (which this may be)
    fs->rootdir_first_cluster = GET_32BIT_WORD(fs->currentsector.sector, BPB_FAT32_ROOTCLUS);
     2a9:	8b 45 08             	mov    eax,DWORD PTR [ebp+0x8]
     2ac:	0f b6 40 73          	movzx  eax,BYTE PTR [eax+0x73]
     2b0:	0f b6 c0             	movzx  eax,al
     2b3:	c1 e0 18             	shl    eax,0x18
     2b6:	89 c2                	mov    edx,eax
     2b8:	8b 45 08             	mov    eax,DWORD PTR [ebp+0x8]
     2bb:	0f b6 40 72          	movzx  eax,BYTE PTR [eax+0x72]
     2bf:	0f b6 c0             	movzx  eax,al
     2c2:	c1 e0 10             	shl    eax,0x10
     2c5:	01 c2                	add    edx,eax
     2c7:	8b 45 08             	mov    eax,DWORD PTR [ebp+0x8]
     2ca:	0f b6 40 71          	movzx  eax,BYTE PTR [eax+0x71]
     2ce:	0f b6 c0             	movzx  eax,al
     2d1:	c1 e0 08             	shl    eax,0x8
     2d4:	01 c2                	add    edx,eax
     2d6:	8b 45 08             	mov    eax,DWORD PTR [ebp+0x8]
     2d9:	0f b6 40 70          	movzx  eax,BYTE PTR [eax+0x70]
     2dd:	0f b6 c0             	movzx  eax,al
     2e0:	01 c2                	add    edx,eax
     2e2:	8b 45 08             	mov    eax,DWORD PTR [ebp+0x8]
     2e5:	89 50 08             	mov    DWORD PTR [eax+0x8],edx
/home/yogi/NetBeansProjects/fatLib/../chrisOS/src/fat/fat_access.c:134
    fs->fs_info_sector = GET_16BIT_WORD(fs->currentsector.sector, BPB_FAT32_FSINFO);
     2e8:	8b 45 08             	mov    eax,DWORD PTR [ebp+0x8]
     2eb:	0f b6 40 75          	movzx  eax,BYTE PTR [eax+0x75]
     2ef:	0f b6 c0             	movzx  eax,al
     2f2:	c1 e0 08             	shl    eax,0x8
     2f5:	89 c2                	mov    edx,eax
     2f7:	8b 45 08             	mov    eax,DWORD PTR [ebp+0x8]
     2fa:	0f b6 40 74          	movzx  eax,BYTE PTR [eax+0x74]
     2fe:	0f b6 c0             	movzx  eax,al
     301:	01 c2                	add    edx,eax
     303:	8b 45 08             	mov    eax,DWORD PTR [ebp+0x8]
     306:	66 89 50 18          	mov    WORD PTR [eax+0x18],dx
/home/yogi/NetBeansProjects/fatLib/../chrisOS/src/fat/fat_access.c:137

    // For FAT16 (which this may be), rootdir_first_cluster is actuall rootdir_first_sector
    fs->rootdir_first_sector = reserved_sectors + (num_of_fats * fs->fat_sectors);
     30a:	0f b7 55 ec          	movzx  edx,WORD PTR [ebp-0x14]
     30e:	0f b6 4d eb          	movzx  ecx,BYTE PTR [ebp-0x15]
     312:	8b 45 08             	mov    eax,DWORD PTR [ebp+0x8]
     315:	8b 40 20             	mov    eax,DWORD PTR [eax+0x20]
     318:	0f af c1             	imul   eax,ecx
     31b:	01 c2                	add    edx,eax
     31d:	8b 45 08             	mov    eax,DWORD PTR [ebp+0x8]
     320:	89 50 0c             	mov    DWORD PTR [eax+0xc],edx
/home/yogi/NetBeansProjects/fatLib/../chrisOS/src/fat/fat_access.c:138
    fs->rootdir_sectors = ((fs->root_entry_count * 32) + (FAT_SECTOR_SIZE - 1)) / FAT_SECTOR_SIZE;
     323:	8b 45 08             	mov    eax,DWORD PTR [ebp+0x8]
     326:	0f b7 40 28          	movzx  eax,WORD PTR [eax+0x28]
     32a:	0f b7 c0             	movzx  eax,ax
     32d:	c1 e0 05             	shl    eax,0x5
     330:	05 ff 01 00 00       	add    eax,0x1ff
     335:	8d 90 ff 01 00 00    	lea    edx,[eax+0x1ff]
     33b:	85 c0                	test   eax,eax
     33d:	0f 48 c2             	cmovs  eax,edx
     340:	c1 f8 09             	sar    eax,0x9
     343:	89 c2                	mov    edx,eax
     345:	8b 45 08             	mov    eax,DWORD PTR [ebp+0x8]
     348:	89 50 10             	mov    DWORD PTR [eax+0x10],edx
/home/yogi/NetBeansProjects/fatLib/../chrisOS/src/fat/fat_access.c:141

    // First FAT LBA address
    fs->fat_begin_lba = fs->lba_begin + reserved_sectors;
     34b:	8b 45 08             	mov    eax,DWORD PTR [ebp+0x8]
     34e:	8b 50 1c             	mov    edx,DWORD PTR [eax+0x1c]
     351:	0f b7 45 ec          	movzx  eax,WORD PTR [ebp-0x14]
     355:	01 c2                	add    edx,eax
     357:	8b 45 08             	mov    eax,DWORD PTR [ebp+0x8]
     35a:	89 50 14             	mov    DWORD PTR [eax+0x14],edx
/home/yogi/NetBeansProjects/fatLib/../chrisOS/src/fat/fat_access.c:144

    // The address of the first data cluster on this volume
    fs->cluster_begin_lba = fs->fat_begin_lba + (num_of_fats * fs->fat_sectors);
     35d:	8b 45 08             	mov    eax,DWORD PTR [ebp+0x8]
     360:	8b 50 14             	mov    edx,DWORD PTR [eax+0x14]
     363:	0f b6 4d eb          	movzx  ecx,BYTE PTR [ebp-0x15]
     367:	8b 45 08             	mov    eax,DWORD PTR [ebp+0x8]
     36a:	8b 40 20             	mov    eax,DWORD PTR [eax+0x20]
     36d:	0f af c1             	imul   eax,ecx
     370:	01 c2                	add    edx,eax
     372:	8b 45 08             	mov    eax,DWORD PTR [ebp+0x8]
     375:	89 50 04             	mov    DWORD PTR [eax+0x4],edx
/home/yogi/NetBeansProjects/fatLib/../chrisOS/src/fat/fat_access.c:146

    if (GET_16BIT_WORD(fs->currentsector.sector, 0x1FE) != 0xAA55) // This signature should be AA55
     378:	8b 45 08             	mov    eax,DWORD PTR [ebp+0x8]
     37b:	0f b6 80 43 02 00 00 	movzx  eax,BYTE PTR [eax+0x243]
     382:	0f b6 c0             	movzx  eax,al
     385:	c1 e0 08             	shl    eax,0x8
     388:	89 c2                	mov    edx,eax
     38a:	8b 45 08             	mov    eax,DWORD PTR [ebp+0x8]
     38d:	0f b6 80 42 02 00 00 	movzx  eax,BYTE PTR [eax+0x242]
     394:	0f b6 c0             	movzx  eax,al
     397:	01 d0                	add    eax,edx
     399:	3d 55 aa 00 00       	cmp    eax,0xaa55
     39e:	74 0a                	je     3aa <.L8+0x2a3>
/home/yogi/NetBeansProjects/fatLib/../chrisOS/src/fat/fat_access.c:147
        return FAT_INIT_INVALID_SIGNATURE;
     3a0:	b8 fd ff ff ff       	mov    eax,0xfffffffd
     3a5:	e9 fd 01 00 00       	jmp    5a7 <.L8+0x4a0>
/home/yogi/NetBeansProjects/fatLib/../chrisOS/src/fat/fat_access.c:150

    // Calculate the root dir sectors
    root_dir_sectors = ((GET_16BIT_WORD(fs->currentsector.sector, BPB_ROOTENTCNT) * 32) + (GET_16BIT_WORD(fs->currentsector.sector, BPB_BYTSPERSEC) - 1)) / GET_16BIT_WORD(fs->currentsector.sector, BPB_BYTSPERSEC);
     3aa:	8b 45 08             	mov    eax,DWORD PTR [ebp+0x8]
     3ad:	0f b6 40 56          	movzx  eax,BYTE PTR [eax+0x56]
     3b1:	0f b6 c0             	movzx  eax,al
     3b4:	c1 e0 08             	shl    eax,0x8
     3b7:	89 c2                	mov    edx,eax
     3b9:	8b 45 08             	mov    eax,DWORD PTR [ebp+0x8]
     3bc:	0f b6 40 55          	movzx  eax,BYTE PTR [eax+0x55]
     3c0:	0f b6 c0             	movzx  eax,al
     3c3:	01 d0                	add    eax,edx
     3c5:	c1 e0 05             	shl    eax,0x5
     3c8:	89 c2                	mov    edx,eax
     3ca:	8b 45 08             	mov    eax,DWORD PTR [ebp+0x8]
     3cd:	0f b6 40 50          	movzx  eax,BYTE PTR [eax+0x50]
     3d1:	0f b6 c0             	movzx  eax,al
     3d4:	c1 e0 08             	shl    eax,0x8
     3d7:	89 c1                	mov    ecx,eax
     3d9:	8b 45 08             	mov    eax,DWORD PTR [ebp+0x8]
     3dc:	0f b6 40 4f          	movzx  eax,BYTE PTR [eax+0x4f]
     3e0:	0f b6 c0             	movzx  eax,al
     3e3:	01 c8                	add    eax,ecx
     3e5:	83 e8 01             	sub    eax,0x1
     3e8:	01 c2                	add    edx,eax
     3ea:	8b 45 08             	mov    eax,DWORD PTR [ebp+0x8]
     3ed:	0f b6 40 50          	movzx  eax,BYTE PTR [eax+0x50]
     3f1:	0f b6 c0             	movzx  eax,al
     3f4:	c1 e0 08             	shl    eax,0x8
     3f7:	89 c1                	mov    ecx,eax
     3f9:	8b 45 08             	mov    eax,DWORD PTR [ebp+0x8]
     3fc:	0f b6 40 4f          	movzx  eax,BYTE PTR [eax+0x4f]
     400:	0f b6 c0             	movzx  eax,al
     403:	01 c1                	add    ecx,eax
     405:	89 d0                	mov    eax,edx
     407:	99                   	cdq    
     408:	f7 f9                	idiv   ecx
     40a:	89 45 e4             	mov    DWORD PTR [ebp-0x1c],eax
/home/yogi/NetBeansProjects/fatLib/../chrisOS/src/fat/fat_access.c:152

    if(GET_16BIT_WORD(fs->currentsector.sector, BPB_FATSZ16) != 0)
     40d:	8b 45 08             	mov    eax,DWORD PTR [ebp+0x8]
     410:	0f b6 40 5b          	movzx  eax,BYTE PTR [eax+0x5b]
     414:	0f b6 c0             	movzx  eax,al
     417:	c1 e0 08             	shl    eax,0x8
     41a:	89 c2                	mov    edx,eax
     41c:	8b 45 08             	mov    eax,DWORD PTR [ebp+0x8]
     41f:	0f b6 40 5a          	movzx  eax,BYTE PTR [eax+0x5a]
     423:	0f b6 c0             	movzx  eax,al
     426:	01 d0                	add    eax,edx
     428:	85 c0                	test   eax,eax
     42a:	74 20                	je     44c <.L8+0x345>
/home/yogi/NetBeansProjects/fatLib/../chrisOS/src/fat/fat_access.c:153
        FATSz = GET_16BIT_WORD(fs->currentsector.sector, BPB_FATSZ16);
     42c:	8b 45 08             	mov    eax,DWORD PTR [ebp+0x8]
     42f:	0f b6 40 5b          	movzx  eax,BYTE PTR [eax+0x5b]
     433:	0f b6 c0             	movzx  eax,al
     436:	c1 e0 08             	shl    eax,0x8
     439:	89 c2                	mov    edx,eax
     43b:	8b 45 08             	mov    eax,DWORD PTR [ebp+0x8]
     43e:	0f b6 40 5a          	movzx  eax,BYTE PTR [eax+0x5a]
     442:	0f b6 c0             	movzx  eax,al
     445:	01 d0                	add    eax,edx
     447:	89 45 f4             	mov    DWORD PTR [ebp-0xc],eax
     44a:	eb 3c                	jmp    488 <.L8+0x381>
/home/yogi/NetBeansProjects/fatLib/../chrisOS/src/fat/fat_access.c:155
    else
        FATSz = GET_32BIT_WORD(fs->currentsector.sector, BPB_FAT32_FATSZ32);
     44c:	8b 45 08             	mov    eax,DWORD PTR [ebp+0x8]
     44f:	0f b6 40 6b          	movzx  eax,BYTE PTR [eax+0x6b]
     453:	0f b6 c0             	movzx  eax,al
     456:	c1 e0 18             	shl    eax,0x18
     459:	89 c2                	mov    edx,eax
     45b:	8b 45 08             	mov    eax,DWORD PTR [ebp+0x8]
     45e:	0f b6 40 6a          	movzx  eax,BYTE PTR [eax+0x6a]
     462:	0f b6 c0             	movzx  eax,al
     465:	c1 e0 10             	shl    eax,0x10
     468:	01 c2                	add    edx,eax
     46a:	8b 45 08             	mov    eax,DWORD PTR [ebp+0x8]
     46d:	0f b6 40 69          	movzx  eax,BYTE PTR [eax+0x69]
     471:	0f b6 c0             	movzx  eax,al
     474:	c1 e0 08             	shl    eax,0x8
     477:	01 c2                	add    edx,eax
     479:	8b 45 08             	mov    eax,DWORD PTR [ebp+0x8]
     47c:	0f b6 40 68          	movzx  eax,BYTE PTR [eax+0x68]
     480:	0f b6 c0             	movzx  eax,al
     483:	01 d0                	add    eax,edx
     485:	89 45 f4             	mov    DWORD PTR [ebp-0xc],eax
/home/yogi/NetBeansProjects/fatLib/../chrisOS/src/fat/fat_access.c:157

    if(GET_16BIT_WORD(fs->currentsector.sector, BPB_TOTSEC16) != 0)
     488:	8b 45 08             	mov    eax,DWORD PTR [ebp+0x8]
     48b:	0f b6 40 58          	movzx  eax,BYTE PTR [eax+0x58]
     48f:	0f b6 c0             	movzx  eax,al
     492:	c1 e0 08             	shl    eax,0x8
     495:	89 c2                	mov    edx,eax
     497:	8b 45 08             	mov    eax,DWORD PTR [ebp+0x8]
     49a:	0f b6 40 57          	movzx  eax,BYTE PTR [eax+0x57]
     49e:	0f b6 c0             	movzx  eax,al
     4a1:	01 d0                	add    eax,edx
     4a3:	85 c0                	test   eax,eax
     4a5:	74 20                	je     4c7 <.L8+0x3c0>
/home/yogi/NetBeansProjects/fatLib/../chrisOS/src/fat/fat_access.c:158
        total_sectors = GET_16BIT_WORD(fs->currentsector.sector, BPB_TOTSEC16);
     4a7:	8b 45 08             	mov    eax,DWORD PTR [ebp+0x8]
     4aa:	0f b6 40 58          	movzx  eax,BYTE PTR [eax+0x58]
     4ae:	0f b6 c0             	movzx  eax,al
     4b1:	c1 e0 08             	shl    eax,0x8
     4b4:	89 c2                	mov    edx,eax
     4b6:	8b 45 08             	mov    eax,DWORD PTR [ebp+0x8]
     4b9:	0f b6 40 57          	movzx  eax,BYTE PTR [eax+0x57]
     4bd:	0f b6 c0             	movzx  eax,al
     4c0:	01 d0                	add    eax,edx
     4c2:	89 45 f0             	mov    DWORD PTR [ebp-0x10],eax
     4c5:	eb 3c                	jmp    503 <.L8+0x3fc>
/home/yogi/NetBeansProjects/fatLib/../chrisOS/src/fat/fat_access.c:160
    else
        total_sectors = GET_32BIT_WORD(fs->currentsector.sector, BPB_TOTSEC32);
     4c7:	8b 45 08             	mov    eax,DWORD PTR [ebp+0x8]
     4ca:	0f b6 40 67          	movzx  eax,BYTE PTR [eax+0x67]
     4ce:	0f b6 c0             	movzx  eax,al
     4d1:	c1 e0 18             	shl    eax,0x18
     4d4:	89 c2                	mov    edx,eax
     4d6:	8b 45 08             	mov    eax,DWORD PTR [ebp+0x8]
     4d9:	0f b6 40 66          	movzx  eax,BYTE PTR [eax+0x66]
     4dd:	0f b6 c0             	movzx  eax,al
     4e0:	c1 e0 10             	shl    eax,0x10
     4e3:	01 c2                	add    edx,eax
     4e5:	8b 45 08             	mov    eax,DWORD PTR [ebp+0x8]
     4e8:	0f b6 40 65          	movzx  eax,BYTE PTR [eax+0x65]
     4ec:	0f b6 c0             	movzx  eax,al
     4ef:	c1 e0 08             	shl    eax,0x8
     4f2:	01 c2                	add    edx,eax
     4f4:	8b 45 08             	mov    eax,DWORD PTR [ebp+0x8]
     4f7:	0f b6 40 64          	movzx  eax,BYTE PTR [eax+0x64]
     4fb:	0f b6 c0             	movzx  eax,al
     4fe:	01 d0                	add    eax,edx
     500:	89 45 f0             	mov    DWORD PTR [ebp-0x10],eax
/home/yogi/NetBeansProjects/fatLib/../chrisOS/src/fat/fat_access.c:162

    data_sectors = total_sectors - (GET_16BIT_WORD(fs->currentsector.sector, BPB_RSVDSECCNT) + (fs->currentsector.sector[BPB_NUMFATS] * FATSz) + root_dir_sectors);
     503:	8b 45 08             	mov    eax,DWORD PTR [ebp+0x8]
     506:	0f b6 40 53          	movzx  eax,BYTE PTR [eax+0x53]
     50a:	0f b6 c0             	movzx  eax,al
     50d:	c1 e0 08             	shl    eax,0x8
     510:	89 c2                	mov    edx,eax
     512:	8b 45 08             	mov    eax,DWORD PTR [ebp+0x8]
     515:	0f b6 40 52          	movzx  eax,BYTE PTR [eax+0x52]
     519:	0f b6 c0             	movzx  eax,al
     51c:	01 d0                	add    eax,edx
     51e:	89 c2                	mov    edx,eax
     520:	8b 45 08             	mov    eax,DWORD PTR [ebp+0x8]
     523:	0f b6 40 54          	movzx  eax,BYTE PTR [eax+0x54]
     527:	0f b6 c0             	movzx  eax,al
     52a:	0f af 45 f4          	imul   eax,DWORD PTR [ebp-0xc]
     52e:	01 c2                	add    edx,eax
     530:	8b 45 e4             	mov    eax,DWORD PTR [ebp-0x1c]
     533:	01 c2                	add    edx,eax
     535:	8b 45 f0             	mov    eax,DWORD PTR [ebp-0x10]
     538:	29 d0                	sub    eax,edx
     53a:	89 45 e0             	mov    DWORD PTR [ebp-0x20],eax
/home/yogi/NetBeansProjects/fatLib/../chrisOS/src/fat/fat_access.c:165

    // Find out which version of FAT this is...
    if (fs->sectors_per_cluster != 0)
     53d:	8b 45 08             	mov    eax,DWORD PTR [ebp+0x8]
     540:	0f b6 00             	movzx  eax,BYTE PTR [eax]
     543:	84 c0                	test   al,al
     545:	74 5b                	je     5a2 <.L8+0x49b>
/home/yogi/NetBeansProjects/fatLib/../chrisOS/src/fat/fat_access.c:167
    {
        count_of_clusters = data_sectors / fs->sectors_per_cluster;
     547:	8b 45 08             	mov    eax,DWORD PTR [ebp+0x8]
     54a:	0f b6 00             	movzx  eax,BYTE PTR [eax]
     54d:	0f b6 d8             	movzx  ebx,al
     550:	8b 45 e0             	mov    eax,DWORD PTR [ebp-0x20]
     553:	ba 00 00 00 00       	mov    edx,0x0
     558:	f7 f3                	div    ebx
     55a:	89 45 dc             	mov    DWORD PTR [ebp-0x24],eax
/home/yogi/NetBeansProjects/fatLib/../chrisOS/src/fat/fat_access.c:169

        if(count_of_clusters < 4085)
     55d:	81 7d dc f4 0f 00 00 	cmp    DWORD PTR [ebp-0x24],0xff4
     564:	77 07                	ja     56d <.L8+0x466>
/home/yogi/NetBeansProjects/fatLib/../chrisOS/src/fat/fat_access.c:171
            // Volume is FAT12
            return FAT_INIT_WRONG_FILESYS_TYPE;
     566:	b8 fb ff ff ff       	mov    eax,0xfffffffb
     56b:	eb 3a                	jmp    5a7 <.L8+0x4a0>
/home/yogi/NetBeansProjects/fatLib/../chrisOS/src/fat/fat_access.c:172
        else if(count_of_clusters < 65525)
     56d:	81 7d dc f4 ff 00 00 	cmp    DWORD PTR [ebp-0x24],0xfff4
     574:	77 1b                	ja     591 <.L8+0x48a>
/home/yogi/NetBeansProjects/fatLib/../chrisOS/src/fat/fat_access.c:175
        {
            // Clear this FAT32 specific param
            fs->rootdir_first_cluster = 0;
     576:	8b 45 08             	mov    eax,DWORD PTR [ebp+0x8]
     579:	c7 40 08 00 00 00 00 	mov    DWORD PTR [eax+0x8],0x0
/home/yogi/NetBeansProjects/fatLib/../chrisOS/src/fat/fat_access.c:178

            // Volume is FAT16
            fs->fat_type = FAT_TYPE_16;
     580:	8b 45 08             	mov    eax,DWORD PTR [ebp+0x8]
     583:	c7 40 30 00 00 00 00 	mov    DWORD PTR [eax+0x30],0x0
/home/yogi/NetBeansProjects/fatLib/../chrisOS/src/fat/fat_access.c:179
            return FAT_INIT_OK;
     58a:	b8 00 00 00 00       	mov    eax,0x0
     58f:	eb 16                	jmp    5a7 <.L8+0x4a0>
/home/yogi/NetBeansProjects/fatLib/../chrisOS/src/fat/fat_access.c:184
        }
        else
        {
            // Volume is FAT32
            fs->fat_type = FAT_TYPE_32;
     591:	8b 45 08             	mov    eax,DWORD PTR [ebp+0x8]
     594:	c7 40 30 01 00 00 00 	mov    DWORD PTR [eax+0x30],0x1
/home/yogi/NetBeansProjects/fatLib/../chrisOS/src/fat/fat_access.c:185
            return FAT_INIT_OK;
     59b:	b8 00 00 00 00       	mov    eax,0x0
     5a0:	eb 05                	jmp    5a7 <.L8+0x4a0>
/home/yogi/NetBeansProjects/fatLib/../chrisOS/src/fat/fat_access.c:189
        }
    }
    else
        return FAT_INIT_WRONG_FILESYS_TYPE;
     5a2:	b8 fb ff ff ff       	mov    eax,0xfffffffb
/home/yogi/NetBeansProjects/fatLib/../chrisOS/src/fat/fat_access.c:190
}
     5a7:	8b 5d fc             	mov    ebx,DWORD PTR [ebp-0x4]
     5aa:	c9                   	leave  
     5ab:	c3                   	ret    

000005ac <fatfs_lba_of_cluster>:
fatfs_lba_of_cluster():
/home/yogi/NetBeansProjects/fatLib/../chrisOS/src/fat/fat_access.c:196
//-----------------------------------------------------------------------------
// fatfs_lba_of_cluster: This function converts a cluster number into a sector /
// LBA number.
//-----------------------------------------------------------------------------
uint32 fatfs_lba_of_cluster(struct fatfs *fs, uint32 Cluster_Number)
{
     5ac:	55                   	push   ebp
     5ad:	89 e5                	mov    ebp,esp
     5af:	e8 42 69 00 00       	call   6ef6 <__x86.get_pc_thunk.ax>
     5b4:	05 74 a9 00 00       	add    eax,0xa974
/home/yogi/NetBeansProjects/fatLib/../chrisOS/src/fat/fat_access.c:197
    if (fs->fat_type == FAT_TYPE_16)
     5b9:	8b 45 08             	mov    eax,DWORD PTR [ebp+0x8]
     5bc:	8b 40 30             	mov    eax,DWORD PTR [eax+0x30]
     5bf:	85 c0                	test   eax,eax
     5c1:	75 39                	jne    5fc <fatfs_lba_of_cluster+0x50>
/home/yogi/NetBeansProjects/fatLib/../chrisOS/src/fat/fat_access.c:198
        return (fs->cluster_begin_lba + (fs->root_entry_count * 32 / FAT_SECTOR_SIZE) + ((Cluster_Number-2) * fs->sectors_per_cluster));
     5c3:	8b 45 08             	mov    eax,DWORD PTR [ebp+0x8]
     5c6:	8b 50 04             	mov    edx,DWORD PTR [eax+0x4]
     5c9:	8b 45 08             	mov    eax,DWORD PTR [ebp+0x8]
     5cc:	0f b7 40 28          	movzx  eax,WORD PTR [eax+0x28]
     5d0:	0f b7 c0             	movzx  eax,ax
     5d3:	c1 e0 05             	shl    eax,0x5
     5d6:	8d 88 ff 01 00 00    	lea    ecx,[eax+0x1ff]
     5dc:	85 c0                	test   eax,eax
     5de:	0f 48 c1             	cmovs  eax,ecx
     5e1:	c1 f8 09             	sar    eax,0x9
     5e4:	01 c2                	add    edx,eax
     5e6:	8b 45 0c             	mov    eax,DWORD PTR [ebp+0xc]
     5e9:	8d 48 fe             	lea    ecx,[eax-0x2]
     5ec:	8b 45 08             	mov    eax,DWORD PTR [ebp+0x8]
     5ef:	0f b6 00             	movzx  eax,BYTE PTR [eax]
     5f2:	0f b6 c0             	movzx  eax,al
     5f5:	0f af c1             	imul   eax,ecx
     5f8:	01 d0                	add    eax,edx
     5fa:	eb 1a                	jmp    616 <fatfs_lba_of_cluster+0x6a>
/home/yogi/NetBeansProjects/fatLib/../chrisOS/src/fat/fat_access.c:200
    else
        return ((fs->cluster_begin_lba + ((Cluster_Number-2)*fs->sectors_per_cluster)));
     5fc:	8b 45 08             	mov    eax,DWORD PTR [ebp+0x8]
     5ff:	8b 50 04             	mov    edx,DWORD PTR [eax+0x4]
     602:	8b 45 0c             	mov    eax,DWORD PTR [ebp+0xc]
     605:	8d 48 fe             	lea    ecx,[eax-0x2]
     608:	8b 45 08             	mov    eax,DWORD PTR [ebp+0x8]
     60b:	0f b6 00             	movzx  eax,BYTE PTR [eax]
     60e:	0f b6 c0             	movzx  eax,al
     611:	0f af c1             	imul   eax,ecx
     614:	01 d0                	add    eax,edx
/home/yogi/NetBeansProjects/fatLib/../chrisOS/src/fat/fat_access.c:201
}
     616:	5d                   	pop    ebp
     617:	c3                   	ret    

00000618 <fatfs_sector_read>:
fatfs_sector_read():
/home/yogi/NetBeansProjects/fatLib/../chrisOS/src/fat/fat_access.c:206
//-----------------------------------------------------------------------------
// fatfs_sector_read:
//-----------------------------------------------------------------------------
int fatfs_sector_read(struct fatfs *fs, uint32 lba, uint8 *target, uint32 count)
{
     618:	55                   	push   ebp
     619:	89 e5                	mov    ebp,esp
     61b:	83 ec 08             	sub    esp,0x8
     61e:	e8 d3 68 00 00       	call   6ef6 <__x86.get_pc_thunk.ax>
     623:	05 05 a9 00 00       	add    eax,0xa905
/home/yogi/NetBeansProjects/fatLib/../chrisOS/src/fat/fat_access.c:207
    return fs->disk_io.read_media(lba, target, count);
     628:	8b 45 08             	mov    eax,DWORD PTR [ebp+0x8]
     62b:	8b 40 34             	mov    eax,DWORD PTR [eax+0x34]
     62e:	83 ec 04             	sub    esp,0x4
     631:	ff 75 14             	push   DWORD PTR [ebp+0x14]
     634:	ff 75 10             	push   DWORD PTR [ebp+0x10]
     637:	ff 75 0c             	push   DWORD PTR [ebp+0xc]
     63a:	ff d0                	call   eax
     63c:	83 c4 10             	add    esp,0x10
/home/yogi/NetBeansProjects/fatLib/../chrisOS/src/fat/fat_access.c:208
}
     63f:	c9                   	leave  
     640:	c3                   	ret    

00000641 <fatfs_sector_write>:
fatfs_sector_write():
/home/yogi/NetBeansProjects/fatLib/../chrisOS/src/fat/fat_access.c:213
//-----------------------------------------------------------------------------
// fatfs_sector_write:
//-----------------------------------------------------------------------------
int fatfs_sector_write(struct fatfs *fs, uint32 lba, uint8 *target, uint32 count)
{
     641:	55                   	push   ebp
     642:	89 e5                	mov    ebp,esp
     644:	83 ec 08             	sub    esp,0x8
     647:	e8 aa 68 00 00       	call   6ef6 <__x86.get_pc_thunk.ax>
     64c:	05 dc a8 00 00       	add    eax,0xa8dc
/home/yogi/NetBeansProjects/fatLib/../chrisOS/src/fat/fat_access.c:214
    return fs->disk_io.write_media(lba, target, count);
     651:	8b 45 08             	mov    eax,DWORD PTR [ebp+0x8]
     654:	8b 40 38             	mov    eax,DWORD PTR [eax+0x38]
     657:	83 ec 04             	sub    esp,0x4
     65a:	ff 75 14             	push   DWORD PTR [ebp+0x14]
     65d:	ff 75 10             	push   DWORD PTR [ebp+0x10]
     660:	ff 75 0c             	push   DWORD PTR [ebp+0xc]
     663:	ff d0                	call   eax
     665:	83 c4 10             	add    esp,0x10
/home/yogi/NetBeansProjects/fatLib/../chrisOS/src/fat/fat_access.c:215
}
     668:	c9                   	leave  
     669:	c3                   	ret    

0000066a <fatfs_sector_reader>:
fatfs_sector_reader():
/home/yogi/NetBeansProjects/fatLib/../chrisOS/src/fat/fat_access.c:221
//-----------------------------------------------------------------------------
// fatfs_sector_reader: From the provided startcluster and sector offset
// Returns True if success, returns False if not (including if read out of range)
//-----------------------------------------------------------------------------
int fatfs_sector_reader(struct fatfs *fs, uint32 start_cluster, uint32 offset, uint8 *target)
{
     66a:	55                   	push   ebp
     66b:	89 e5                	mov    ebp,esp
     66d:	53                   	push   ebx
     66e:	83 ec 24             	sub    esp,0x24
     671:	e8 84 68 00 00       	call   6efa <__x86.get_pc_thunk.bx>
     676:	81 c3 b2 a8 00 00    	add    ebx,0xa8b2
/home/yogi/NetBeansProjects/fatLib/../chrisOS/src/fat/fat_access.c:222
    uint32 sector_to_read = 0;
     67c:	c7 45 e8 00 00 00 00 	mov    DWORD PTR [ebp-0x18],0x0
/home/yogi/NetBeansProjects/fatLib/../chrisOS/src/fat/fat_access.c:223
    uint32 cluster_to_read = 0;
     683:	c7 45 e4 00 00 00 00 	mov    DWORD PTR [ebp-0x1c],0x0
/home/yogi/NetBeansProjects/fatLib/../chrisOS/src/fat/fat_access.c:224
    uint32 cluster_chain = 0;
     68a:	c7 45 f4 00 00 00 00 	mov    DWORD PTR [ebp-0xc],0x0
/home/yogi/NetBeansProjects/fatLib/../chrisOS/src/fat/fat_access.c:229
    uint32 i;
    uint32 lba;

    // FAT16 Root directory
    if (fs->fat_type == FAT_TYPE_16 && start_cluster == 0)
     691:	8b 45 08             	mov    eax,DWORD PTR [ebp+0x8]
     694:	8b 40 30             	mov    eax,DWORD PTR [eax+0x30]
     697:	85 c0                	test   eax,eax
     699:	75 36                	jne    6d1 <fatfs_sector_reader+0x67>
/home/yogi/NetBeansProjects/fatLib/../chrisOS/src/fat/fat_access.c:229 (discriminator 1)
     69b:	83 7d 0c 00          	cmp    DWORD PTR [ebp+0xc],0x0
     69f:	75 30                	jne    6d1 <fatfs_sector_reader+0x67>
/home/yogi/NetBeansProjects/fatLib/../chrisOS/src/fat/fat_access.c:231
    {
        if (offset < fs->rootdir_sectors)
     6a1:	8b 45 08             	mov    eax,DWORD PTR [ebp+0x8]
     6a4:	8b 40 10             	mov    eax,DWORD PTR [eax+0x10]
     6a7:	3b 45 10             	cmp    eax,DWORD PTR [ebp+0x10]
     6aa:	76 1b                	jbe    6c7 <fatfs_sector_reader+0x5d>
/home/yogi/NetBeansProjects/fatLib/../chrisOS/src/fat/fat_access.c:232
            lba = fs->lba_begin + fs->rootdir_first_sector + offset;
     6ac:	8b 45 08             	mov    eax,DWORD PTR [ebp+0x8]
     6af:	8b 50 1c             	mov    edx,DWORD PTR [eax+0x1c]
     6b2:	8b 45 08             	mov    eax,DWORD PTR [ebp+0x8]
     6b5:	8b 40 0c             	mov    eax,DWORD PTR [eax+0xc]
     6b8:	01 c2                	add    edx,eax
     6ba:	8b 45 10             	mov    eax,DWORD PTR [ebp+0x10]
     6bd:	01 d0                	add    eax,edx
     6bf:	89 45 ec             	mov    DWORD PTR [ebp-0x14],eax
/home/yogi/NetBeansProjects/fatLib/../chrisOS/src/fat/fat_access.c:231
    uint32 lba;

    // FAT16 Root directory
    if (fs->fat_type == FAT_TYPE_16 && start_cluster == 0)
    {
        if (offset < fs->rootdir_sectors)
     6c2:	e9 8e 00 00 00       	jmp    755 <fatfs_sector_reader+0xeb>
/home/yogi/NetBeansProjects/fatLib/../chrisOS/src/fat/fat_access.c:234
            lba = fs->lba_begin + fs->rootdir_first_sector + offset;
        else
            return 0;
     6c7:	b8 00 00 00 00       	mov    eax,0x0
     6cc:	e9 e4 00 00 00       	jmp    7b5 <fatfs_sector_reader+0x14b>
/home/yogi/NetBeansProjects/fatLib/../chrisOS/src/fat/fat_access.c:240
    }
    // FAT16/32 Other
    else
    {
        // Set start of cluster chain to initial value
        cluster_chain = start_cluster;
     6d1:	8b 45 0c             	mov    eax,DWORD PTR [ebp+0xc]
     6d4:	89 45 f4             	mov    DWORD PTR [ebp-0xc],eax
/home/yogi/NetBeansProjects/fatLib/../chrisOS/src/fat/fat_access.c:243

        // Find parameters
        cluster_to_read = offset / fs->sectors_per_cluster;
     6d7:	8b 45 08             	mov    eax,DWORD PTR [ebp+0x8]
     6da:	0f b6 00             	movzx  eax,BYTE PTR [eax]
     6dd:	0f b6 c8             	movzx  ecx,al
     6e0:	8b 45 10             	mov    eax,DWORD PTR [ebp+0x10]
     6e3:	ba 00 00 00 00       	mov    edx,0x0
     6e8:	f7 f1                	div    ecx
     6ea:	89 45 e4             	mov    DWORD PTR [ebp-0x1c],eax
/home/yogi/NetBeansProjects/fatLib/../chrisOS/src/fat/fat_access.c:244
        sector_to_read = offset - (cluster_to_read*fs->sectors_per_cluster);
     6ed:	8b 45 08             	mov    eax,DWORD PTR [ebp+0x8]
     6f0:	0f b6 00             	movzx  eax,BYTE PTR [eax]
     6f3:	0f b6 c0             	movzx  eax,al
     6f6:	0f af 45 e4          	imul   eax,DWORD PTR [ebp-0x1c]
     6fa:	8b 55 10             	mov    edx,DWORD PTR [ebp+0x10]
     6fd:	29 c2                	sub    edx,eax
     6ff:	89 d0                	mov    eax,edx
     701:	89 45 e8             	mov    DWORD PTR [ebp-0x18],eax
/home/yogi/NetBeansProjects/fatLib/../chrisOS/src/fat/fat_access.c:247

        // Follow chain to find cluster to read
        for (i=0; i<cluster_to_read; i++)
     704:	c7 45 f0 00 00 00 00 	mov    DWORD PTR [ebp-0x10],0x0
     70b:	eb 18                	jmp    725 <fatfs_sector_reader+0xbb>
/home/yogi/NetBeansProjects/fatLib/../chrisOS/src/fat/fat_access.c:248 (discriminator 3)
            cluster_chain = fatfs_find_next_cluster(fs, cluster_chain);
     70d:	83 ec 08             	sub    esp,0x8
     710:	ff 75 f4             	push   DWORD PTR [ebp-0xc]
     713:	ff 75 08             	push   DWORD PTR [ebp+0x8]
     716:	e8 a5 6b 00 00       	call   72c0 <__x86.get_pc_thunk.bx+0x3c6>
     71b:	83 c4 10             	add    esp,0x10
     71e:	89 45 f4             	mov    DWORD PTR [ebp-0xc],eax
/home/yogi/NetBeansProjects/fatLib/../chrisOS/src/fat/fat_access.c:247 (discriminator 3)
        // Find parameters
        cluster_to_read = offset / fs->sectors_per_cluster;
        sector_to_read = offset - (cluster_to_read*fs->sectors_per_cluster);

        // Follow chain to find cluster to read
        for (i=0; i<cluster_to_read; i++)
     721:	83 45 f0 01          	add    DWORD PTR [ebp-0x10],0x1
/home/yogi/NetBeansProjects/fatLib/../chrisOS/src/fat/fat_access.c:247 (discriminator 1)
     725:	8b 45 f0             	mov    eax,DWORD PTR [ebp-0x10]
     728:	3b 45 e4             	cmp    eax,DWORD PTR [ebp-0x1c]
     72b:	72 e0                	jb     70d <fatfs_sector_reader+0xa3>
/home/yogi/NetBeansProjects/fatLib/../chrisOS/src/fat/fat_access.c:251
            cluster_chain = fatfs_find_next_cluster(fs, cluster_chain);

        // If end of cluster chain then return false
        if (cluster_chain == FAT32_LAST_CLUSTER)
     72d:	83 7d f4 ff          	cmp    DWORD PTR [ebp-0xc],0xffffffff
     731:	75 07                	jne    73a <fatfs_sector_reader+0xd0>
/home/yogi/NetBeansProjects/fatLib/../chrisOS/src/fat/fat_access.c:252
            return 0;
     733:	b8 00 00 00 00       	mov    eax,0x0
     738:	eb 7b                	jmp    7b5 <fatfs_sector_reader+0x14b>
/home/yogi/NetBeansProjects/fatLib/../chrisOS/src/fat/fat_access.c:255

        // Calculate sector address
        lba = fatfs_lba_of_cluster(fs, cluster_chain)+sector_to_read;
     73a:	83 ec 08             	sub    esp,0x8
     73d:	ff 75 f4             	push   DWORD PTR [ebp-0xc]
     740:	ff 75 08             	push   DWORD PTR [ebp+0x8]
     743:	e8 e8 6b 00 00       	call   7330 <__x86.get_pc_thunk.bx+0x436>
     748:	83 c4 10             	add    esp,0x10
     74b:	89 c2                	mov    edx,eax
     74d:	8b 45 e8             	mov    eax,DWORD PTR [ebp-0x18]
     750:	01 d0                	add    eax,edx
     752:	89 45 ec             	mov    DWORD PTR [ebp-0x14],eax
/home/yogi/NetBeansProjects/fatLib/../chrisOS/src/fat/fat_access.c:259
    }

    // User provided target array
    if (target)
     755:	83 7d 14 00          	cmp    DWORD PTR [ebp+0x14],0x0
     759:	74 18                	je     773 <fatfs_sector_reader+0x109>
/home/yogi/NetBeansProjects/fatLib/../chrisOS/src/fat/fat_access.c:260
        return fs->disk_io.read_media(lba, target, 1);
     75b:	8b 45 08             	mov    eax,DWORD PTR [ebp+0x8]
     75e:	8b 40 34             	mov    eax,DWORD PTR [eax+0x34]
     761:	83 ec 04             	sub    esp,0x4
     764:	6a 01                	push   0x1
     766:	ff 75 14             	push   DWORD PTR [ebp+0x14]
     769:	ff 75 ec             	push   DWORD PTR [ebp-0x14]
     76c:	ff d0                	call   eax
     76e:	83 c4 10             	add    esp,0x10
     771:	eb 42                	jmp    7b5 <fatfs_sector_reader+0x14b>
/home/yogi/NetBeansProjects/fatLib/../chrisOS/src/fat/fat_access.c:262
    // Else read sector if not already loaded
    else if (lba != fs->currentsector.address)
     773:	8b 45 08             	mov    eax,DWORD PTR [ebp+0x8]
     776:	8b 80 44 02 00 00    	mov    eax,DWORD PTR [eax+0x244]
     77c:	3b 45 ec             	cmp    eax,DWORD PTR [ebp-0x14]
     77f:	74 2f                	je     7b0 <fatfs_sector_reader+0x146>
/home/yogi/NetBeansProjects/fatLib/../chrisOS/src/fat/fat_access.c:264
    {
        fs->currentsector.address = lba;
     781:	8b 45 08             	mov    eax,DWORD PTR [ebp+0x8]
     784:	8b 55 ec             	mov    edx,DWORD PTR [ebp-0x14]
     787:	89 90 44 02 00 00    	mov    DWORD PTR [eax+0x244],edx
/home/yogi/NetBeansProjects/fatLib/../chrisOS/src/fat/fat_access.c:265
        return fs->disk_io.read_media(fs->currentsector.address, fs->currentsector.sector, 1);
     78d:	8b 45 08             	mov    eax,DWORD PTR [ebp+0x8]
     790:	8b 40 34             	mov    eax,DWORD PTR [eax+0x34]
     793:	8b 55 08             	mov    edx,DWORD PTR [ebp+0x8]
     796:	8d 4a 44             	lea    ecx,[edx+0x44]
     799:	8b 55 08             	mov    edx,DWORD PTR [ebp+0x8]
     79c:	8b 92 44 02 00 00    	mov    edx,DWORD PTR [edx+0x244]
     7a2:	83 ec 04             	sub    esp,0x4
     7a5:	6a 01                	push   0x1
     7a7:	51                   	push   ecx
     7a8:	52                   	push   edx
     7a9:	ff d0                	call   eax
     7ab:	83 c4 10             	add    esp,0x10
     7ae:	eb 05                	jmp    7b5 <fatfs_sector_reader+0x14b>
/home/yogi/NetBeansProjects/fatLib/../chrisOS/src/fat/fat_access.c:268
    }
    else
        return 1;
     7b0:	b8 01 00 00 00       	mov    eax,0x1
/home/yogi/NetBeansProjects/fatLib/../chrisOS/src/fat/fat_access.c:269
}
     7b5:	8b 5d fc             	mov    ebx,DWORD PTR [ebp-0x4]
     7b8:	c9                   	leave  
     7b9:	c3                   	ret    

000007ba <fatfs_read_sector>:
fatfs_read_sector():
/home/yogi/NetBeansProjects/fatLib/../chrisOS/src/fat/fat_access.c:275
//-----------------------------------------------------------------------------
// fatfs_read_sector: Read from the provided cluster and sector offset
// Returns True if success, returns False if not
//-----------------------------------------------------------------------------
int fatfs_read_sector(struct fatfs *fs, uint32 cluster, uint32 sector, uint8 *target)
{
     7ba:	55                   	push   ebp
     7bb:	89 e5                	mov    ebp,esp
     7bd:	53                   	push   ebx
     7be:	83 ec 14             	sub    esp,0x14
     7c1:	e8 30 67 00 00       	call   6ef6 <__x86.get_pc_thunk.ax>
     7c6:	05 62 a7 00 00       	add    eax,0xa762
/home/yogi/NetBeansProjects/fatLib/../chrisOS/src/fat/fat_access.c:277
    // FAT16 Root directory
    if (fs->fat_type == FAT_TYPE_16 && cluster == 0)
     7cb:	8b 55 08             	mov    edx,DWORD PTR [ebp+0x8]
     7ce:	8b 52 30             	mov    edx,DWORD PTR [edx+0x30]
     7d1:	85 d2                	test   edx,edx
     7d3:	0f 85 83 00 00 00    	jne    85c <fatfs_read_sector+0xa2>
/home/yogi/NetBeansProjects/fatLib/../chrisOS/src/fat/fat_access.c:277 (discriminator 1)
     7d9:	83 7d 0c 00          	cmp    DWORD PTR [ebp+0xc],0x0
     7dd:	75 7d                	jne    85c <fatfs_read_sector+0xa2>
/home/yogi/NetBeansProjects/fatLib/../chrisOS/src/fat/fat_access.c:282
    {
        uint32 lba;

        // In FAT16, there are a limited amount of sectors in root dir!
        if (sector < fs->rootdir_sectors)
     7df:	8b 45 08             	mov    eax,DWORD PTR [ebp+0x8]
     7e2:	8b 40 10             	mov    eax,DWORD PTR [eax+0x10]
     7e5:	3b 45 10             	cmp    eax,DWORD PTR [ebp+0x10]
     7e8:	76 1e                	jbe    808 <fatfs_read_sector+0x4e>
/home/yogi/NetBeansProjects/fatLib/../chrisOS/src/fat/fat_access.c:283
            lba = fs->lba_begin + fs->rootdir_first_sector + sector;
     7ea:	8b 45 08             	mov    eax,DWORD PTR [ebp+0x8]
     7ed:	8b 50 1c             	mov    edx,DWORD PTR [eax+0x1c]
     7f0:	8b 45 08             	mov    eax,DWORD PTR [ebp+0x8]
     7f3:	8b 40 0c             	mov    eax,DWORD PTR [eax+0xc]
     7f6:	01 c2                	add    edx,eax
     7f8:	8b 45 10             	mov    eax,DWORD PTR [ebp+0x10]
     7fb:	01 d0                	add    eax,edx
     7fd:	89 45 f4             	mov    DWORD PTR [ebp-0xc],eax
/home/yogi/NetBeansProjects/fatLib/../chrisOS/src/fat/fat_access.c:288
        else
            return 0;

        // User target buffer passed in
        if (target)
     800:	83 7d 14 00          	cmp    DWORD PTR [ebp+0x14],0x0
     804:	74 27                	je     82d <fatfs_read_sector+0x73>
     806:	eb 0a                	jmp    812 <fatfs_read_sector+0x58>
/home/yogi/NetBeansProjects/fatLib/../chrisOS/src/fat/fat_access.c:285

        // In FAT16, there are a limited amount of sectors in root dir!
        if (sector < fs->rootdir_sectors)
            lba = fs->lba_begin + fs->rootdir_first_sector + sector;
        else
            return 0;
     808:	b8 00 00 00 00       	mov    eax,0x0
     80d:	e9 c9 00 00 00       	jmp    8db <fatfs_read_sector+0x121>
/home/yogi/NetBeansProjects/fatLib/../chrisOS/src/fat/fat_access.c:291

        // User target buffer passed in
        if (target)
        {
            // Read from disk
            return fs->disk_io.read_media(lba, target, 1);
     812:	8b 45 08             	mov    eax,DWORD PTR [ebp+0x8]
     815:	8b 40 34             	mov    eax,DWORD PTR [eax+0x34]
     818:	83 ec 04             	sub    esp,0x4
     81b:	6a 01                	push   0x1
     81d:	ff 75 14             	push   DWORD PTR [ebp+0x14]
     820:	ff 75 f4             	push   DWORD PTR [ebp-0xc]
     823:	ff d0                	call   eax
     825:	83 c4 10             	add    esp,0x10
     828:	e9 ae 00 00 00       	jmp    8db <fatfs_read_sector+0x121>
/home/yogi/NetBeansProjects/fatLib/../chrisOS/src/fat/fat_access.c:296
        }
        else
        {
            // Calculate read address
            fs->currentsector.address = lba;
     82d:	8b 45 08             	mov    eax,DWORD PTR [ebp+0x8]
     830:	8b 55 f4             	mov    edx,DWORD PTR [ebp-0xc]
     833:	89 90 44 02 00 00    	mov    DWORD PTR [eax+0x244],edx
/home/yogi/NetBeansProjects/fatLib/../chrisOS/src/fat/fat_access.c:299

            // Read from disk
            return fs->disk_io.read_media(fs->currentsector.address, fs->currentsector.sector, 1);
     839:	8b 45 08             	mov    eax,DWORD PTR [ebp+0x8]
     83c:	8b 40 34             	mov    eax,DWORD PTR [eax+0x34]
     83f:	8b 55 08             	mov    edx,DWORD PTR [ebp+0x8]
     842:	8d 4a 44             	lea    ecx,[edx+0x44]
     845:	8b 55 08             	mov    edx,DWORD PTR [ebp+0x8]
     848:	8b 92 44 02 00 00    	mov    edx,DWORD PTR [edx+0x244]
     84e:	83 ec 04             	sub    esp,0x4
     851:	6a 01                	push   0x1
     853:	51                   	push   ecx
     854:	52                   	push   edx
     855:	ff d0                	call   eax
     857:	83 c4 10             	add    esp,0x10
     85a:	eb 7f                	jmp    8db <fatfs_read_sector+0x121>
/home/yogi/NetBeansProjects/fatLib/../chrisOS/src/fat/fat_access.c:306
    }
    // FAT16/32 Other
    else
    {
        // User target buffer passed in
        if (target)
     85c:	83 7d 14 00          	cmp    DWORD PTR [ebp+0x14],0x0
     860:	74 35                	je     897 <fatfs_read_sector+0xdd>
/home/yogi/NetBeansProjects/fatLib/../chrisOS/src/fat/fat_access.c:309
        {
            // Calculate read address
            uint32 lba = fatfs_lba_of_cluster(fs, cluster) + sector;
     862:	83 ec 08             	sub    esp,0x8
     865:	ff 75 0c             	push   DWORD PTR [ebp+0xc]
     868:	ff 75 08             	push   DWORD PTR [ebp+0x8]
     86b:	89 c3                	mov    ebx,eax
     86d:	e8 be 6a 00 00       	call   7330 <__x86.get_pc_thunk.bx+0x436>
     872:	83 c4 10             	add    esp,0x10
     875:	89 c2                	mov    edx,eax
     877:	8b 45 10             	mov    eax,DWORD PTR [ebp+0x10]
     87a:	01 d0                	add    eax,edx
     87c:	89 45 f0             	mov    DWORD PTR [ebp-0x10],eax
/home/yogi/NetBeansProjects/fatLib/../chrisOS/src/fat/fat_access.c:312

            // Read from disk
            return fs->disk_io.read_media(lba, target, 1);
     87f:	8b 45 08             	mov    eax,DWORD PTR [ebp+0x8]
     882:	8b 40 34             	mov    eax,DWORD PTR [eax+0x34]
     885:	83 ec 04             	sub    esp,0x4
     888:	6a 01                	push   0x1
     88a:	ff 75 14             	push   DWORD PTR [ebp+0x14]
     88d:	ff 75 f0             	push   DWORD PTR [ebp-0x10]
     890:	ff d0                	call   eax
     892:	83 c4 10             	add    esp,0x10
     895:	eb 44                	jmp    8db <fatfs_read_sector+0x121>
/home/yogi/NetBeansProjects/fatLib/../chrisOS/src/fat/fat_access.c:317
        }
        else
        {
            // Calculate write address
            fs->currentsector.address = fatfs_lba_of_cluster(fs, cluster)+sector;
     897:	83 ec 08             	sub    esp,0x8
     89a:	ff 75 0c             	push   DWORD PTR [ebp+0xc]
     89d:	ff 75 08             	push   DWORD PTR [ebp+0x8]
     8a0:	89 c3                	mov    ebx,eax
     8a2:	e8 89 6a 00 00       	call   7330 <__x86.get_pc_thunk.bx+0x436>
     8a7:	83 c4 10             	add    esp,0x10
     8aa:	89 c2                	mov    edx,eax
     8ac:	8b 45 10             	mov    eax,DWORD PTR [ebp+0x10]
     8af:	01 c2                	add    edx,eax
     8b1:	8b 45 08             	mov    eax,DWORD PTR [ebp+0x8]
     8b4:	89 90 44 02 00 00    	mov    DWORD PTR [eax+0x244],edx
/home/yogi/NetBeansProjects/fatLib/../chrisOS/src/fat/fat_access.c:320

            // Read from disk
            return fs->disk_io.read_media(fs->currentsector.address, fs->currentsector.sector, 1);
     8ba:	8b 45 08             	mov    eax,DWORD PTR [ebp+0x8]
     8bd:	8b 40 34             	mov    eax,DWORD PTR [eax+0x34]
     8c0:	8b 55 08             	mov    edx,DWORD PTR [ebp+0x8]
     8c3:	8d 4a 44             	lea    ecx,[edx+0x44]
     8c6:	8b 55 08             	mov    edx,DWORD PTR [ebp+0x8]
     8c9:	8b 92 44 02 00 00    	mov    edx,DWORD PTR [edx+0x244]
     8cf:	83 ec 04             	sub    esp,0x4
     8d2:	6a 01                	push   0x1
     8d4:	51                   	push   ecx
     8d5:	52                   	push   edx
     8d6:	ff d0                	call   eax
     8d8:	83 c4 10             	add    esp,0x10
/home/yogi/NetBeansProjects/fatLib/../chrisOS/src/fat/fat_access.c:323
        }
    }
}
     8db:	8b 5d fc             	mov    ebx,DWORD PTR [ebp-0x4]
     8de:	c9                   	leave  
     8df:	c3                   	ret    

000008e0 <fatfs_write_sector>:
fatfs_write_sector():
/home/yogi/NetBeansProjects/fatLib/../chrisOS/src/fat/fat_access.c:330
// fatfs_write_sector: Write to the provided cluster and sector offset
// Returns True if success, returns False if not
//-----------------------------------------------------------------------------
#if FATFS_INC_WRITE_SUPPORT
int fatfs_write_sector(struct fatfs *fs, uint32 cluster, uint32 sector, uint8 *target)
{
     8e0:	55                   	push   ebp
     8e1:	89 e5                	mov    ebp,esp
     8e3:	53                   	push   ebx
     8e4:	83 ec 14             	sub    esp,0x14
     8e7:	e8 0a 66 00 00       	call   6ef6 <__x86.get_pc_thunk.ax>
     8ec:	05 3c a6 00 00       	add    eax,0xa63c
/home/yogi/NetBeansProjects/fatLib/../chrisOS/src/fat/fat_access.c:332
    // No write access?
    if (!fs->disk_io.write_media)
     8f1:	8b 55 08             	mov    edx,DWORD PTR [ebp+0x8]
     8f4:	8b 52 38             	mov    edx,DWORD PTR [edx+0x38]
     8f7:	85 d2                	test   edx,edx
     8f9:	75 0a                	jne    905 <fatfs_write_sector+0x25>
/home/yogi/NetBeansProjects/fatLib/../chrisOS/src/fat/fat_access.c:333
        return 0;
     8fb:	b8 00 00 00 00       	mov    eax,0x0
     900:	e9 10 01 00 00       	jmp    a15 <fatfs_write_sector+0x135>
/home/yogi/NetBeansProjects/fatLib/../chrisOS/src/fat/fat_access.c:336

    // FAT16 Root directory
    if (fs->fat_type == FAT_TYPE_16 && cluster == 0)
     905:	8b 55 08             	mov    edx,DWORD PTR [ebp+0x8]
     908:	8b 52 30             	mov    edx,DWORD PTR [edx+0x30]
     90b:	85 d2                	test   edx,edx
     90d:	0f 85 83 00 00 00    	jne    996 <fatfs_write_sector+0xb6>
/home/yogi/NetBeansProjects/fatLib/../chrisOS/src/fat/fat_access.c:336 (discriminator 1)
     913:	83 7d 0c 00          	cmp    DWORD PTR [ebp+0xc],0x0
     917:	75 7d                	jne    996 <fatfs_write_sector+0xb6>
/home/yogi/NetBeansProjects/fatLib/../chrisOS/src/fat/fat_access.c:341
    {
        uint32 lba;

        // In FAT16 we cannot extend the root dir!
        if (sector < fs->rootdir_sectors)
     919:	8b 45 08             	mov    eax,DWORD PTR [ebp+0x8]
     91c:	8b 40 10             	mov    eax,DWORD PTR [eax+0x10]
     91f:	3b 45 10             	cmp    eax,DWORD PTR [ebp+0x10]
     922:	76 1e                	jbe    942 <fatfs_write_sector+0x62>
/home/yogi/NetBeansProjects/fatLib/../chrisOS/src/fat/fat_access.c:342
            lba = fs->lba_begin + fs->rootdir_first_sector + sector;
     924:	8b 45 08             	mov    eax,DWORD PTR [ebp+0x8]
     927:	8b 50 1c             	mov    edx,DWORD PTR [eax+0x1c]
     92a:	8b 45 08             	mov    eax,DWORD PTR [ebp+0x8]
     92d:	8b 40 0c             	mov    eax,DWORD PTR [eax+0xc]
     930:	01 c2                	add    edx,eax
     932:	8b 45 10             	mov    eax,DWORD PTR [ebp+0x10]
     935:	01 d0                	add    eax,edx
     937:	89 45 f4             	mov    DWORD PTR [ebp-0xc],eax
/home/yogi/NetBeansProjects/fatLib/../chrisOS/src/fat/fat_access.c:347
        else
            return 0;

        // User target buffer passed in
        if (target)
     93a:	83 7d 14 00          	cmp    DWORD PTR [ebp+0x14],0x0
     93e:	74 27                	je     967 <fatfs_write_sector+0x87>
     940:	eb 0a                	jmp    94c <fatfs_write_sector+0x6c>
/home/yogi/NetBeansProjects/fatLib/../chrisOS/src/fat/fat_access.c:344

        // In FAT16 we cannot extend the root dir!
        if (sector < fs->rootdir_sectors)
            lba = fs->lba_begin + fs->rootdir_first_sector + sector;
        else
            return 0;
     942:	b8 00 00 00 00       	mov    eax,0x0
     947:	e9 c9 00 00 00       	jmp    a15 <fatfs_write_sector+0x135>
/home/yogi/NetBeansProjects/fatLib/../chrisOS/src/fat/fat_access.c:350

        // User target buffer passed in
        if (target)
        {
            // Write to disk
            return fs->disk_io.write_media(lba, target, 1);
     94c:	8b 45 08             	mov    eax,DWORD PTR [ebp+0x8]
     94f:	8b 40 38             	mov    eax,DWORD PTR [eax+0x38]
     952:	83 ec 04             	sub    esp,0x4
     955:	6a 01                	push   0x1
     957:	ff 75 14             	push   DWORD PTR [ebp+0x14]
     95a:	ff 75 f4             	push   DWORD PTR [ebp-0xc]
     95d:	ff d0                	call   eax
     95f:	83 c4 10             	add    esp,0x10
     962:	e9 ae 00 00 00       	jmp    a15 <fatfs_write_sector+0x135>
/home/yogi/NetBeansProjects/fatLib/../chrisOS/src/fat/fat_access.c:355
        }
        else
        {
            // Calculate write address
            fs->currentsector.address = lba;
     967:	8b 45 08             	mov    eax,DWORD PTR [ebp+0x8]
     96a:	8b 55 f4             	mov    edx,DWORD PTR [ebp-0xc]
     96d:	89 90 44 02 00 00    	mov    DWORD PTR [eax+0x244],edx
/home/yogi/NetBeansProjects/fatLib/../chrisOS/src/fat/fat_access.c:358

            // Write to disk
            return fs->disk_io.write_media(fs->currentsector.address, fs->currentsector.sector, 1);
     973:	8b 45 08             	mov    eax,DWORD PTR [ebp+0x8]
     976:	8b 40 38             	mov    eax,DWORD PTR [eax+0x38]
     979:	8b 55 08             	mov    edx,DWORD PTR [ebp+0x8]
     97c:	8d 4a 44             	lea    ecx,[edx+0x44]
     97f:	8b 55 08             	mov    edx,DWORD PTR [ebp+0x8]
     982:	8b 92 44 02 00 00    	mov    edx,DWORD PTR [edx+0x244]
     988:	83 ec 04             	sub    esp,0x4
     98b:	6a 01                	push   0x1
     98d:	51                   	push   ecx
     98e:	52                   	push   edx
     98f:	ff d0                	call   eax
     991:	83 c4 10             	add    esp,0x10
     994:	eb 7f                	jmp    a15 <fatfs_write_sector+0x135>
/home/yogi/NetBeansProjects/fatLib/../chrisOS/src/fat/fat_access.c:365
    }
    // FAT16/32 Other
    else
    {
        // User target buffer passed in
        if (target)
     996:	83 7d 14 00          	cmp    DWORD PTR [ebp+0x14],0x0
     99a:	74 35                	je     9d1 <fatfs_write_sector+0xf1>
/home/yogi/NetBeansProjects/fatLib/../chrisOS/src/fat/fat_access.c:368
        {
            // Calculate write address
            uint32 lba = fatfs_lba_of_cluster(fs, cluster) + sector;
     99c:	83 ec 08             	sub    esp,0x8
     99f:	ff 75 0c             	push   DWORD PTR [ebp+0xc]
     9a2:	ff 75 08             	push   DWORD PTR [ebp+0x8]
     9a5:	89 c3                	mov    ebx,eax
     9a7:	e8 84 69 00 00       	call   7330 <__x86.get_pc_thunk.bx+0x436>
     9ac:	83 c4 10             	add    esp,0x10
     9af:	89 c2                	mov    edx,eax
     9b1:	8b 45 10             	mov    eax,DWORD PTR [ebp+0x10]
     9b4:	01 d0                	add    eax,edx
     9b6:	89 45 f0             	mov    DWORD PTR [ebp-0x10],eax
/home/yogi/NetBeansProjects/fatLib/../chrisOS/src/fat/fat_access.c:371

            // Write to disk
            return fs->disk_io.write_media(lba, target, 1);
     9b9:	8b 45 08             	mov    eax,DWORD PTR [ebp+0x8]
     9bc:	8b 40 38             	mov    eax,DWORD PTR [eax+0x38]
     9bf:	83 ec 04             	sub    esp,0x4
     9c2:	6a 01                	push   0x1
     9c4:	ff 75 14             	push   DWORD PTR [ebp+0x14]
     9c7:	ff 75 f0             	push   DWORD PTR [ebp-0x10]
     9ca:	ff d0                	call   eax
     9cc:	83 c4 10             	add    esp,0x10
     9cf:	eb 44                	jmp    a15 <fatfs_write_sector+0x135>
/home/yogi/NetBeansProjects/fatLib/../chrisOS/src/fat/fat_access.c:376
        }
        else
        {
            // Calculate write address
            fs->currentsector.address = fatfs_lba_of_cluster(fs, cluster)+sector;
     9d1:	83 ec 08             	sub    esp,0x8
     9d4:	ff 75 0c             	push   DWORD PTR [ebp+0xc]
     9d7:	ff 75 08             	push   DWORD PTR [ebp+0x8]
     9da:	89 c3                	mov    ebx,eax
     9dc:	e8 4f 69 00 00       	call   7330 <__x86.get_pc_thunk.bx+0x436>
     9e1:	83 c4 10             	add    esp,0x10
     9e4:	89 c2                	mov    edx,eax
     9e6:	8b 45 10             	mov    eax,DWORD PTR [ebp+0x10]
     9e9:	01 c2                	add    edx,eax
     9eb:	8b 45 08             	mov    eax,DWORD PTR [ebp+0x8]
     9ee:	89 90 44 02 00 00    	mov    DWORD PTR [eax+0x244],edx
/home/yogi/NetBeansProjects/fatLib/../chrisOS/src/fat/fat_access.c:379

            // Write to disk
            return fs->disk_io.write_media(fs->currentsector.address, fs->currentsector.sector, 1);
     9f4:	8b 45 08             	mov    eax,DWORD PTR [ebp+0x8]
     9f7:	8b 40 38             	mov    eax,DWORD PTR [eax+0x38]
     9fa:	8b 55 08             	mov    edx,DWORD PTR [ebp+0x8]
     9fd:	8d 4a 44             	lea    ecx,[edx+0x44]
     a00:	8b 55 08             	mov    edx,DWORD PTR [ebp+0x8]
     a03:	8b 92 44 02 00 00    	mov    edx,DWORD PTR [edx+0x244]
     a09:	83 ec 04             	sub    esp,0x4
     a0c:	6a 01                	push   0x1
     a0e:	51                   	push   ecx
     a0f:	52                   	push   edx
     a10:	ff d0                	call   eax
     a12:	83 c4 10             	add    esp,0x10
/home/yogi/NetBeansProjects/fatLib/../chrisOS/src/fat/fat_access.c:382
        }
    }
}
     a15:	8b 5d fc             	mov    ebx,DWORD PTR [ebp-0x4]
     a18:	c9                   	leave  
     a19:	c3                   	ret    

00000a1a <fatfs_show_details>:
fatfs_show_details():
/home/yogi/NetBeansProjects/fatLib/../chrisOS/src/fat/fat_access.c:388
#endif
//-----------------------------------------------------------------------------
// fatfs_show_details: Show the details about the filesystem
//-----------------------------------------------------------------------------
void fatfs_show_details(struct fatfs *fs)
{
     a1a:	55                   	push   ebp
     a1b:	89 e5                	mov    ebp,esp
     a1d:	53                   	push   ebx
     a1e:	83 ec 04             	sub    esp,0x4
     a21:	e8 d4 64 00 00       	call   6efa <__x86.get_pc_thunk.bx>
     a26:	81 c3 02 a5 00 00    	add    ebx,0xa502
/home/yogi/NetBeansProjects/fatLib/../chrisOS/src/fat/fat_access.c:389
    FAT_PRINTF(("FAT details:\r\n"));
     a2c:	83 ec 0c             	sub    esp,0xc
     a2f:	8d 83 b8 c4 ff ff    	lea    eax,[ebx-0x3b48]
     a35:	50                   	push   eax
     a36:	e8 95 67 00 00       	call   71d0 <__x86.get_pc_thunk.bx+0x2d6>
     a3b:	83 c4 10             	add    esp,0x10
/home/yogi/NetBeansProjects/fatLib/../chrisOS/src/fat/fat_access.c:390
    FAT_PRINTF((" Type =%s", (fs->fat_type == FAT_TYPE_32) ? "FAT32": "FAT16"));
     a3e:	8b 45 08             	mov    eax,DWORD PTR [ebp+0x8]
     a41:	8b 40 30             	mov    eax,DWORD PTR [eax+0x30]
     a44:	83 f8 01             	cmp    eax,0x1
     a47:	75 08                	jne    a51 <fatfs_show_details+0x37>
/home/yogi/NetBeansProjects/fatLib/../chrisOS/src/fat/fat_access.c:390 (discriminator 1)
     a49:	8d 83 c7 c4 ff ff    	lea    eax,[ebx-0x3b39]
     a4f:	eb 06                	jmp    a57 <fatfs_show_details+0x3d>
/home/yogi/NetBeansProjects/fatLib/../chrisOS/src/fat/fat_access.c:390 (discriminator 2)
     a51:	8d 83 cd c4 ff ff    	lea    eax,[ebx-0x3b33]
/home/yogi/NetBeansProjects/fatLib/../chrisOS/src/fat/fat_access.c:390 (discriminator 4)
     a57:	83 ec 08             	sub    esp,0x8
     a5a:	50                   	push   eax
     a5b:	8d 83 d3 c4 ff ff    	lea    eax,[ebx-0x3b2d]
     a61:	50                   	push   eax
     a62:	e8 69 67 00 00       	call   71d0 <__x86.get_pc_thunk.bx+0x2d6>
     a67:	83 c4 10             	add    esp,0x10
/home/yogi/NetBeansProjects/fatLib/../chrisOS/src/fat/fat_access.c:391 (discriminator 4)
    FAT_PRINTF((" Root Dir First Cluster = %x\r\n", fs->rootdir_first_cluster));
     a6a:	8b 45 08             	mov    eax,DWORD PTR [ebp+0x8]
     a6d:	8b 40 08             	mov    eax,DWORD PTR [eax+0x8]
     a70:	83 ec 08             	sub    esp,0x8
     a73:	50                   	push   eax
     a74:	8d 83 e0 c4 ff ff    	lea    eax,[ebx-0x3b20]
     a7a:	50                   	push   eax
     a7b:	e8 50 67 00 00       	call   71d0 <__x86.get_pc_thunk.bx+0x2d6>
     a80:	83 c4 10             	add    esp,0x10
/home/yogi/NetBeansProjects/fatLib/../chrisOS/src/fat/fat_access.c:392 (discriminator 4)
    FAT_PRINTF((" FAT Begin LBA = 0x%x\r\n",fs->fat_begin_lba));
     a83:	8b 45 08             	mov    eax,DWORD PTR [ebp+0x8]
     a86:	8b 40 14             	mov    eax,DWORD PTR [eax+0x14]
     a89:	83 ec 08             	sub    esp,0x8
     a8c:	50                   	push   eax
     a8d:	8d 83 ff c4 ff ff    	lea    eax,[ebx-0x3b01]
     a93:	50                   	push   eax
     a94:	e8 37 67 00 00       	call   71d0 <__x86.get_pc_thunk.bx+0x2d6>
     a99:	83 c4 10             	add    esp,0x10
/home/yogi/NetBeansProjects/fatLib/../chrisOS/src/fat/fat_access.c:393 (discriminator 4)
    FAT_PRINTF((" Cluster Begin LBA = 0x%x\r\n",fs->cluster_begin_lba));
     a9c:	8b 45 08             	mov    eax,DWORD PTR [ebp+0x8]
     a9f:	8b 40 04             	mov    eax,DWORD PTR [eax+0x4]
     aa2:	83 ec 08             	sub    esp,0x8
     aa5:	50                   	push   eax
     aa6:	8d 83 17 c5 ff ff    	lea    eax,[ebx-0x3ae9]
     aac:	50                   	push   eax
     aad:	e8 1e 67 00 00       	call   71d0 <__x86.get_pc_thunk.bx+0x2d6>
     ab2:	83 c4 10             	add    esp,0x10
/home/yogi/NetBeansProjects/fatLib/../chrisOS/src/fat/fat_access.c:394 (discriminator 4)
    FAT_PRINTF((" Sectors Per Cluster = %d\r\n", fs->sectors_per_cluster));
     ab5:	8b 45 08             	mov    eax,DWORD PTR [ebp+0x8]
     ab8:	0f b6 00             	movzx  eax,BYTE PTR [eax]
     abb:	0f b6 c0             	movzx  eax,al
     abe:	83 ec 08             	sub    esp,0x8
     ac1:	50                   	push   eax
     ac2:	8d 83 33 c5 ff ff    	lea    eax,[ebx-0x3acd]
     ac8:	50                   	push   eax
     ac9:	e8 02 67 00 00       	call   71d0 <__x86.get_pc_thunk.bx+0x2d6>
     ace:	83 c4 10             	add    esp,0x10
/home/yogi/NetBeansProjects/fatLib/../chrisOS/src/fat/fat_access.c:395 (discriminator 4)
}
     ad1:	90                   	nop
     ad2:	8b 5d fc             	mov    ebx,DWORD PTR [ebp-0x4]
     ad5:	c9                   	leave  
     ad6:	c3                   	ret    

00000ad7 <fatfs_get_root_cluster>:
fatfs_get_root_cluster():
/home/yogi/NetBeansProjects/fatLib/../chrisOS/src/fat/fat_access.c:400
//-----------------------------------------------------------------------------
// fatfs_get_root_cluster: Get the root dir cluster
//-----------------------------------------------------------------------------
uint32 fatfs_get_root_cluster(struct fatfs *fs)
{
     ad7:	55                   	push   ebp
     ad8:	89 e5                	mov    ebp,esp
     ada:	e8 17 64 00 00       	call   6ef6 <__x86.get_pc_thunk.ax>
     adf:	05 49 a4 00 00       	add    eax,0xa449
/home/yogi/NetBeansProjects/fatLib/../chrisOS/src/fat/fat_access.c:402
    // NOTE: On FAT16 this will be 0 which has a special meaning...
    return fs->rootdir_first_cluster;
     ae4:	8b 45 08             	mov    eax,DWORD PTR [ebp+0x8]
     ae7:	8b 40 08             	mov    eax,DWORD PTR [eax+0x8]
/home/yogi/NetBeansProjects/fatLib/../chrisOS/src/fat/fat_access.c:403
}
     aea:	5d                   	pop    ebp
     aeb:	c3                   	ret    

00000aec <fatfs_get_file_entry>:
fatfs_get_file_entry():
/home/yogi/NetBeansProjects/fatLib/../chrisOS/src/fat/fat_access.c:408
//-------------------------------------------------------------
// fatfs_get_file_entry: Find the file entry for a filename
//-------------------------------------------------------------
uint32 fatfs_get_file_entry(struct fatfs *fs, uint32 Cluster, char *name_to_find, struct fat_dir_entry *sfEntry)
{
     aec:	55                   	push   ebp
     aed:	89 e5                	mov    ebp,esp
     aef:	53                   	push   ebx
     af0:	81 ec 34 01 00 00    	sub    esp,0x134
     af6:	e8 ff 63 00 00       	call   6efa <__x86.get_pc_thunk.bx>
     afb:	81 c3 2d a4 00 00    	add    ebx,0xa42d
/home/yogi/NetBeansProjects/fatLib/../chrisOS/src/fat/fat_access.c:409
    uint8 item=0;
     b01:	c6 45 f7 00          	mov    BYTE PTR [ebp-0x9],0x0
/home/yogi/NetBeansProjects/fatLib/../chrisOS/src/fat/fat_access.c:410
    uint16 recordoffset = 0;
     b05:	66 c7 45 ea 00 00    	mov    WORD PTR [ebp-0x16],0x0
/home/yogi/NetBeansProjects/fatLib/../chrisOS/src/fat/fat_access.c:411
    uint8 i=0;
     b0b:	c6 45 f6 00          	mov    BYTE PTR [ebp-0xa],0x0
/home/yogi/NetBeansProjects/fatLib/../chrisOS/src/fat/fat_access.c:412
    int x=0;
     b0f:	c7 45 f0 00 00 00 00 	mov    DWORD PTR [ebp-0x10],0x0
/home/yogi/NetBeansProjects/fatLib/../chrisOS/src/fat/fat_access.c:413
    char *long_filename = NULL;
     b16:	c7 45 e4 00 00 00 00 	mov    DWORD PTR [ebp-0x1c],0x0
/home/yogi/NetBeansProjects/fatLib/../chrisOS/src/fat/fat_access.c:416
    char short_filename[13];
    struct lfn_cache lfn;
    int dotRequired = 0;
     b1d:	c7 45 ec 00 00 00 00 	mov    DWORD PTR [ebp-0x14],0x0
/home/yogi/NetBeansProjects/fatLib/../chrisOS/src/fat/fat_access.c:419
    struct fat_dir_entry *directoryEntry;

    fatfs_lfn_cache_init(&lfn, 1);
     b24:	83 ec 08             	sub    esp,0x8
     b27:	6a 01                	push   0x1
     b29:	8d 85 cd fe ff ff    	lea    eax,[ebp-0x133]
     b2f:	50                   	push   eax
     b30:	e8 ab 67 00 00       	call   72e0 <__x86.get_pc_thunk.bx+0x3e6>
     b35:	83 c4 10             	add    esp,0x10
/home/yogi/NetBeansProjects/fatLib/../chrisOS/src/fat/fat_access.c:425

    // Main cluster following loop
    while (1)
    {
        // Read sector
        if (fatfs_sector_reader(fs, Cluster, x++, 0)) // If sector read was successfull
     b38:	8b 45 f0             	mov    eax,DWORD PTR [ebp-0x10]
     b3b:	8d 50 01             	lea    edx,[eax+0x1]
     b3e:	89 55 f0             	mov    DWORD PTR [ebp-0x10],edx
     b41:	6a 00                	push   0x0
     b43:	50                   	push   eax
     b44:	ff 75 0c             	push   DWORD PTR [ebp+0xc]
     b47:	ff 75 08             	push   DWORD PTR [ebp+0x8]
     b4a:	e8 41 67 00 00       	call   7290 <__x86.get_pc_thunk.bx+0x396>
     b4f:	83 c4 10             	add    esp,0x10
     b52:	85 c0                	test   eax,eax
     b54:	0f 84 13 02 00 00    	je     d6d <fatfs_get_file_entry+0x281>
/home/yogi/NetBeansProjects/fatLib/../chrisOS/src/fat/fat_access.c:428
        {
            // Analyse Sector
            for (item = 0; item < FAT_DIR_ENTRIES_PER_SECTOR; item++)
     b5a:	c6 45 f7 00          	mov    BYTE PTR [ebp-0x9],0x0
     b5e:	e9 fb 01 00 00       	jmp    d5e <fatfs_get_file_entry+0x272>
/home/yogi/NetBeansProjects/fatLib/../chrisOS/src/fat/fat_access.c:431
            {
                // Create the multiplier for sector access
                recordoffset = FAT_DIR_ENTRY_SIZE * item;
     b63:	0f b6 45 f7          	movzx  eax,BYTE PTR [ebp-0x9]
     b67:	c1 e0 05             	shl    eax,0x5
     b6a:	66 89 45 ea          	mov    WORD PTR [ebp-0x16],ax
/home/yogi/NetBeansProjects/fatLib/../chrisOS/src/fat/fat_access.c:434

                // Overlay directory entry over buffer
                directoryEntry = (struct fat_dir_entry*)(fs->currentsector.sector+recordoffset);
     b6e:	8b 45 08             	mov    eax,DWORD PTR [ebp+0x8]
     b71:	8d 50 44             	lea    edx,[eax+0x44]
     b74:	0f b7 45 ea          	movzx  eax,WORD PTR [ebp-0x16]
     b78:	01 d0                	add    eax,edx
     b7a:	89 45 e0             	mov    DWORD PTR [ebp-0x20],eax
/home/yogi/NetBeansProjects/fatLib/../chrisOS/src/fat/fat_access.c:438

#if FATFS_INC_LFN_SUPPORT
                // Long File Name Text Found
                if (fatfs_entry_lfn_text(directoryEntry) )
     b7d:	83 ec 0c             	sub    esp,0xc
     b80:	ff 75 e0             	push   DWORD PTR [ebp-0x20]
     b83:	e8 28 67 00 00       	call   72b0 <__x86.get_pc_thunk.bx+0x3b6>
     b88:	83 c4 10             	add    esp,0x10
     b8b:	85 c0                	test   eax,eax
     b8d:	74 24                	je     bb3 <fatfs_get_file_entry+0xc7>
/home/yogi/NetBeansProjects/fatLib/../chrisOS/src/fat/fat_access.c:439
                    fatfs_lfn_cache_entry(&lfn, fs->currentsector.sector+recordoffset);
     b8f:	8b 45 08             	mov    eax,DWORD PTR [ebp+0x8]
     b92:	8d 50 44             	lea    edx,[eax+0x44]
     b95:	0f b7 45 ea          	movzx  eax,WORD PTR [ebp-0x16]
     b99:	01 d0                	add    eax,edx
     b9b:	83 ec 08             	sub    esp,0x8
     b9e:	50                   	push   eax
     b9f:	8d 85 cd fe ff ff    	lea    eax,[ebp-0x133]
     ba5:	50                   	push   eax
     ba6:	e8 25 65 00 00       	call   70d0 <__x86.get_pc_thunk.bx+0x1d6>
     bab:	83 c4 10             	add    esp,0x10
     bae:	e9 a1 01 00 00       	jmp    d54 <fatfs_get_file_entry+0x268>
/home/yogi/NetBeansProjects/fatLib/../chrisOS/src/fat/fat_access.c:442

                // If Invalid record found delete any long file name information collated
                else if (fatfs_entry_lfn_invalid(directoryEntry) )
     bb3:	83 ec 0c             	sub    esp,0xc
     bb6:	ff 75 e0             	push   DWORD PTR [ebp-0x20]
     bb9:	e8 02 66 00 00       	call   71c0 <__x86.get_pc_thunk.bx+0x2c6>
     bbe:	83 c4 10             	add    esp,0x10
     bc1:	85 c0                	test   eax,eax
     bc3:	74 19                	je     bde <fatfs_get_file_entry+0xf2>
/home/yogi/NetBeansProjects/fatLib/../chrisOS/src/fat/fat_access.c:443
                    fatfs_lfn_cache_init(&lfn, 0);
     bc5:	83 ec 08             	sub    esp,0x8
     bc8:	6a 00                	push   0x0
     bca:	8d 85 cd fe ff ff    	lea    eax,[ebp-0x133]
     bd0:	50                   	push   eax
     bd1:	e8 0a 67 00 00       	call   72e0 <__x86.get_pc_thunk.bx+0x3e6>
     bd6:	83 c4 10             	add    esp,0x10
     bd9:	e9 76 01 00 00       	jmp    d54 <fatfs_get_file_entry+0x268>
/home/yogi/NetBeansProjects/fatLib/../chrisOS/src/fat/fat_access.c:446

                // Normal SFN Entry and Long text exists
                else if (fatfs_entry_lfn_exists(&lfn, directoryEntry) )
     bde:	83 ec 08             	sub    esp,0x8
     be1:	ff 75 e0             	push   DWORD PTR [ebp-0x20]
     be4:	8d 85 cd fe ff ff    	lea    eax,[ebp-0x133]
     bea:	50                   	push   eax
     beb:	e8 30 66 00 00       	call   7220 <__x86.get_pc_thunk.bx+0x326>
     bf0:	83 c4 10             	add    esp,0x10
     bf3:	85 c0                	test   eax,eax
     bf5:	74 60                	je     c57 <fatfs_get_file_entry+0x16b>
/home/yogi/NetBeansProjects/fatLib/../chrisOS/src/fat/fat_access.c:448
                {
                    long_filename = fatfs_lfn_cache_get(&lfn);
     bf7:	83 ec 0c             	sub    esp,0xc
     bfa:	8d 85 cd fe ff ff    	lea    eax,[ebp-0x133]
     c00:	50                   	push   eax
     c01:	e8 7a 65 00 00       	call   7180 <__x86.get_pc_thunk.bx+0x286>
     c06:	83 c4 10             	add    esp,0x10
     c09:	89 45 e4             	mov    DWORD PTR [ebp-0x1c],eax
/home/yogi/NetBeansProjects/fatLib/../chrisOS/src/fat/fat_access.c:451

                    // Compare names to see if they match
                    if (fatfs_compare_names(long_filename, name_to_find))
     c0c:	83 ec 08             	sub    esp,0x8
     c0f:	ff 75 10             	push   DWORD PTR [ebp+0x10]
     c12:	ff 75 e4             	push   DWORD PTR [ebp-0x1c]
     c15:	e8 e6 63 00 00       	call   7000 <__x86.get_pc_thunk.bx+0x106>
     c1a:	83 c4 10             	add    esp,0x10
     c1d:	85 c0                	test   eax,eax
     c1f:	74 1d                	je     c3e <fatfs_get_file_entry+0x152>
/home/yogi/NetBeansProjects/fatLib/../chrisOS/src/fat/fat_access.c:453
                    {
                        memcpy(sfEntry,directoryEntry,sizeof(struct fat_dir_entry));
     c21:	83 ec 04             	sub    esp,0x4
     c24:	6a 20                	push   0x20
     c26:	ff 75 e0             	push   DWORD PTR [ebp-0x20]
     c29:	ff 75 14             	push   DWORD PTR [ebp+0x14]
     c2c:	e8 8f 63 00 00       	call   6fc0 <__x86.get_pc_thunk.bx+0xc6>
     c31:	83 c4 10             	add    esp,0x10
/home/yogi/NetBeansProjects/fatLib/../chrisOS/src/fat/fat_access.c:454
                        return 1;
     c34:	b8 01 00 00 00       	mov    eax,0x1
     c39:	e9 35 01 00 00       	jmp    d73 <fatfs_get_file_entry+0x287>
/home/yogi/NetBeansProjects/fatLib/../chrisOS/src/fat/fat_access.c:457
                    }

                    fatfs_lfn_cache_init(&lfn, 0);
     c3e:	83 ec 08             	sub    esp,0x8
     c41:	6a 00                	push   0x0
     c43:	8d 85 cd fe ff ff    	lea    eax,[ebp-0x133]
     c49:	50                   	push   eax
     c4a:	e8 91 66 00 00       	call   72e0 <__x86.get_pc_thunk.bx+0x3e6>
     c4f:	83 c4 10             	add    esp,0x10
     c52:	e9 fd 00 00 00       	jmp    d54 <fatfs_get_file_entry+0x268>
/home/yogi/NetBeansProjects/fatLib/../chrisOS/src/fat/fat_access.c:462
                }
                else
#endif
                // Normal Entry, only 8.3 Text
                if (fatfs_entry_sfn_only(directoryEntry) )
     c57:	83 ec 0c             	sub    esp,0xc
     c5a:	ff 75 e0             	push   DWORD PTR [ebp-0x20]
     c5d:	e8 de 66 00 00       	call   7340 <__x86.get_pc_thunk.bx+0x446>
     c62:	83 c4 10             	add    esp,0x10
     c65:	85 c0                	test   eax,eax
     c67:	0f 84 e7 00 00 00    	je     d54 <fatfs_get_file_entry+0x268>
/home/yogi/NetBeansProjects/fatLib/../chrisOS/src/fat/fat_access.c:464
                {
                    memset(short_filename, 0, sizeof(short_filename));
     c6d:	83 ec 04             	sub    esp,0x4
     c70:	6a 0d                	push   0xd
     c72:	6a 00                	push   0x0
     c74:	8d 45 d3             	lea    eax,[ebp-0x2d]
     c77:	50                   	push   eax
     c78:	e8 c3 65 00 00       	call   7240 <__x86.get_pc_thunk.bx+0x346>
     c7d:	83 c4 10             	add    esp,0x10
/home/yogi/NetBeansProjects/fatLib/../chrisOS/src/fat/fat_access.c:467

                    // Copy name to string
                    for (i=0; i<8; i++)
     c80:	c6 45 f6 00          	mov    BYTE PTR [ebp-0xa],0x0
     c84:	eb 1d                	jmp    ca3 <fatfs_get_file_entry+0x1b7>
/home/yogi/NetBeansProjects/fatLib/../chrisOS/src/fat/fat_access.c:468 (discriminator 3)
                        short_filename[i] = directoryEntry->Name[i];
     c86:	0f b6 45 f6          	movzx  eax,BYTE PTR [ebp-0xa]
     c8a:	0f b6 55 f6          	movzx  edx,BYTE PTR [ebp-0xa]
     c8e:	8b 4d e0             	mov    ecx,DWORD PTR [ebp-0x20]
     c91:	0f b6 14 11          	movzx  edx,BYTE PTR [ecx+edx*1]
     c95:	88 54 05 d3          	mov    BYTE PTR [ebp+eax*1-0x2d],dl
/home/yogi/NetBeansProjects/fatLib/../chrisOS/src/fat/fat_access.c:467 (discriminator 3)
                if (fatfs_entry_sfn_only(directoryEntry) )
                {
                    memset(short_filename, 0, sizeof(short_filename));

                    // Copy name to string
                    for (i=0; i<8; i++)
     c99:	0f b6 45 f6          	movzx  eax,BYTE PTR [ebp-0xa]
     c9d:	83 c0 01             	add    eax,0x1
     ca0:	88 45 f6             	mov    BYTE PTR [ebp-0xa],al
/home/yogi/NetBeansProjects/fatLib/../chrisOS/src/fat/fat_access.c:467 (discriminator 1)
     ca3:	80 7d f6 07          	cmp    BYTE PTR [ebp-0xa],0x7
     ca7:	76 dd                	jbe    c86 <fatfs_get_file_entry+0x19a>
/home/yogi/NetBeansProjects/fatLib/../chrisOS/src/fat/fat_access.c:471
                        short_filename[i] = directoryEntry->Name[i];

                    // Extension
                    dotRequired = 0;
     ca9:	c7 45 ec 00 00 00 00 	mov    DWORD PTR [ebp-0x14],0x0
/home/yogi/NetBeansProjects/fatLib/../chrisOS/src/fat/fat_access.c:472
                    for (i=8; i<11; i++)
     cb0:	c6 45 f6 08          	mov    BYTE PTR [ebp-0xa],0x8
     cb4:	eb 36                	jmp    cec <fatfs_get_file_entry+0x200>
/home/yogi/NetBeansProjects/fatLib/../chrisOS/src/fat/fat_access.c:474
                    {
                        short_filename[i+1] = directoryEntry->Name[i];
     cb6:	0f b6 45 f6          	movzx  eax,BYTE PTR [ebp-0xa]
     cba:	8d 48 01             	lea    ecx,[eax+0x1]
     cbd:	0f b6 45 f6          	movzx  eax,BYTE PTR [ebp-0xa]
     cc1:	8b 55 e0             	mov    edx,DWORD PTR [ebp-0x20]
     cc4:	0f b6 04 02          	movzx  eax,BYTE PTR [edx+eax*1]
     cc8:	88 44 0d d3          	mov    BYTE PTR [ebp+ecx*1-0x2d],al
/home/yogi/NetBeansProjects/fatLib/../chrisOS/src/fat/fat_access.c:475
                        if (directoryEntry->Name[i] != ' ')
     ccc:	0f b6 45 f6          	movzx  eax,BYTE PTR [ebp-0xa]
     cd0:	8b 55 e0             	mov    edx,DWORD PTR [ebp-0x20]
     cd3:	0f b6 04 02          	movzx  eax,BYTE PTR [edx+eax*1]
     cd7:	3c 20                	cmp    al,0x20
     cd9:	74 07                	je     ce2 <fatfs_get_file_entry+0x1f6>
/home/yogi/NetBeansProjects/fatLib/../chrisOS/src/fat/fat_access.c:476
                            dotRequired = 1;
     cdb:	c7 45 ec 01 00 00 00 	mov    DWORD PTR [ebp-0x14],0x1
/home/yogi/NetBeansProjects/fatLib/../chrisOS/src/fat/fat_access.c:472 (discriminator 2)
                    for (i=0; i<8; i++)
                        short_filename[i] = directoryEntry->Name[i];

                    // Extension
                    dotRequired = 0;
                    for (i=8; i<11; i++)
     ce2:	0f b6 45 f6          	movzx  eax,BYTE PTR [ebp-0xa]
     ce6:	83 c0 01             	add    eax,0x1
     ce9:	88 45 f6             	mov    BYTE PTR [ebp-0xa],al
/home/yogi/NetBeansProjects/fatLib/../chrisOS/src/fat/fat_access.c:472 (discriminator 1)
     cec:	80 7d f6 0a          	cmp    BYTE PTR [ebp-0xa],0xa
     cf0:	76 c4                	jbe    cb6 <fatfs_get_file_entry+0x1ca>
/home/yogi/NetBeansProjects/fatLib/../chrisOS/src/fat/fat_access.c:480
                        if (directoryEntry->Name[i] != ' ')
                            dotRequired = 1;
                    }

                    // Dot only required if extension present
                    if (dotRequired)
     cf2:	83 7d ec 00          	cmp    DWORD PTR [ebp-0x14],0x0
     cf6:	74 14                	je     d0c <fatfs_get_file_entry+0x220>
/home/yogi/NetBeansProjects/fatLib/../chrisOS/src/fat/fat_access.c:483
                    {
                        // If not . or .. entry
                        if (short_filename[0]!='.')
     cf8:	0f b6 45 d3          	movzx  eax,BYTE PTR [ebp-0x2d]
     cfc:	3c 2e                	cmp    al,0x2e
     cfe:	74 06                	je     d06 <fatfs_get_file_entry+0x21a>
/home/yogi/NetBeansProjects/fatLib/../chrisOS/src/fat/fat_access.c:484
                            short_filename[8] = '.';
     d00:	c6 45 db 2e          	mov    BYTE PTR [ebp-0x25],0x2e
     d04:	eb 0a                	jmp    d10 <fatfs_get_file_entry+0x224>
/home/yogi/NetBeansProjects/fatLib/../chrisOS/src/fat/fat_access.c:486
                        else
                            short_filename[8] = ' ';
     d06:	c6 45 db 20          	mov    BYTE PTR [ebp-0x25],0x20
     d0a:	eb 04                	jmp    d10 <fatfs_get_file_entry+0x224>
/home/yogi/NetBeansProjects/fatLib/../chrisOS/src/fat/fat_access.c:489
                    }
                    else
                        short_filename[8] = ' ';
     d0c:	c6 45 db 20          	mov    BYTE PTR [ebp-0x25],0x20
/home/yogi/NetBeansProjects/fatLib/../chrisOS/src/fat/fat_access.c:492

                    // Compare names to see if they match
                    if (fatfs_compare_names(short_filename, name_to_find))
     d10:	83 ec 08             	sub    esp,0x8
     d13:	ff 75 10             	push   DWORD PTR [ebp+0x10]
     d16:	8d 45 d3             	lea    eax,[ebp-0x2d]
     d19:	50                   	push   eax
     d1a:	e8 e1 62 00 00       	call   7000 <__x86.get_pc_thunk.bx+0x106>
     d1f:	83 c4 10             	add    esp,0x10
     d22:	85 c0                	test   eax,eax
     d24:	74 1a                	je     d40 <fatfs_get_file_entry+0x254>
/home/yogi/NetBeansProjects/fatLib/../chrisOS/src/fat/fat_access.c:494
                    {
                        memcpy(sfEntry,directoryEntry,sizeof(struct fat_dir_entry));
     d26:	83 ec 04             	sub    esp,0x4
     d29:	6a 20                	push   0x20
     d2b:	ff 75 e0             	push   DWORD PTR [ebp-0x20]
     d2e:	ff 75 14             	push   DWORD PTR [ebp+0x14]
     d31:	e8 8a 62 00 00       	call   6fc0 <__x86.get_pc_thunk.bx+0xc6>
     d36:	83 c4 10             	add    esp,0x10
/home/yogi/NetBeansProjects/fatLib/../chrisOS/src/fat/fat_access.c:495
                        return 1;
     d39:	b8 01 00 00 00       	mov    eax,0x1
     d3e:	eb 33                	jmp    d73 <fatfs_get_file_entry+0x287>
/home/yogi/NetBeansProjects/fatLib/../chrisOS/src/fat/fat_access.c:498
                    }

                    fatfs_lfn_cache_init(&lfn, 0);
     d40:	83 ec 08             	sub    esp,0x8
     d43:	6a 00                	push   0x0
     d45:	8d 85 cd fe ff ff    	lea    eax,[ebp-0x133]
     d4b:	50                   	push   eax
     d4c:	e8 8f 65 00 00       	call   72e0 <__x86.get_pc_thunk.bx+0x3e6>
     d51:	83 c4 10             	add    esp,0x10
/home/yogi/NetBeansProjects/fatLib/../chrisOS/src/fat/fat_access.c:428 (discriminator 2)
    {
        // Read sector
        if (fatfs_sector_reader(fs, Cluster, x++, 0)) // If sector read was successfull
        {
            // Analyse Sector
            for (item = 0; item < FAT_DIR_ENTRIES_PER_SECTOR; item++)
     d54:	0f b6 45 f7          	movzx  eax,BYTE PTR [ebp-0x9]
     d58:	83 c0 01             	add    eax,0x1
     d5b:	88 45 f7             	mov    BYTE PTR [ebp-0x9],al
/home/yogi/NetBeansProjects/fatLib/../chrisOS/src/fat/fat_access.c:428 (discriminator 1)
     d5e:	80 7d f7 0f          	cmp    BYTE PTR [ebp-0x9],0xf
     d62:	0f 86 fb fd ff ff    	jbe    b63 <fatfs_get_file_entry+0x77>
/home/yogi/NetBeansProjects/fatLib/../chrisOS/src/fat/fat_access.c:504 (discriminator 1)
                }
            } // End of if
        }
        else
            break;
    } // End of while loop
     d68:	e9 cb fd ff ff       	jmp    b38 <fatfs_get_file_entry+0x4c>
/home/yogi/NetBeansProjects/fatLib/../chrisOS/src/fat/fat_access.c:503
                    fatfs_lfn_cache_init(&lfn, 0);
                }
            } // End of if
        }
        else
            break;
     d6d:	90                   	nop
/home/yogi/NetBeansProjects/fatLib/../chrisOS/src/fat/fat_access.c:506
    } // End of while loop

    return 0;
     d6e:	b8 00 00 00 00       	mov    eax,0x0
/home/yogi/NetBeansProjects/fatLib/../chrisOS/src/fat/fat_access.c:507 (discriminator 2)
}
     d73:	8b 5d fc             	mov    ebx,DWORD PTR [ebp-0x4]
     d76:	c9                   	leave  
     d77:	c3                   	ret    

00000d78 <fatfs_sfn_exists>:
fatfs_sfn_exists():
/home/yogi/NetBeansProjects/fatLib/../chrisOS/src/fat/fat_access.c:514
// fatfs_sfn_exists: Check if a short filename exists.
// NOTE: shortname is XXXXXXXXYYY not XXXXXXXX.YYY
//-------------------------------------------------------------
#if FATFS_INC_WRITE_SUPPORT
int fatfs_sfn_exists(struct fatfs *fs, uint32 Cluster, char *shortname)
{
     d78:	55                   	push   ebp
     d79:	89 e5                	mov    ebp,esp
     d7b:	53                   	push   ebx
     d7c:	83 ec 14             	sub    esp,0x14
     d7f:	e8 76 61 00 00       	call   6efa <__x86.get_pc_thunk.bx>
     d84:	81 c3 a4 a1 00 00    	add    ebx,0xa1a4
/home/yogi/NetBeansProjects/fatLib/../chrisOS/src/fat/fat_access.c:515
    uint8 item=0;
     d8a:	c6 45 f7 00          	mov    BYTE PTR [ebp-0x9],0x0
/home/yogi/NetBeansProjects/fatLib/../chrisOS/src/fat/fat_access.c:516
    uint16 recordoffset = 0;
     d8e:	66 c7 45 ee 00 00    	mov    WORD PTR [ebp-0x12],0x0
/home/yogi/NetBeansProjects/fatLib/../chrisOS/src/fat/fat_access.c:517
    int x=0;
     d94:	c7 45 f0 00 00 00 00 	mov    DWORD PTR [ebp-0x10],0x0
/home/yogi/NetBeansProjects/fatLib/../chrisOS/src/fat/fat_access.c:524

    // Main cluster following loop
    while (1)
    {
        // Read sector
        if (fatfs_sector_reader(fs, Cluster, x++, 0)) // If sector read was successfull
     d9b:	8b 45 f0             	mov    eax,DWORD PTR [ebp-0x10]
     d9e:	8d 50 01             	lea    edx,[eax+0x1]
     da1:	89 55 f0             	mov    DWORD PTR [ebp-0x10],edx
     da4:	6a 00                	push   0x0
     da6:	50                   	push   eax
     da7:	ff 75 0c             	push   DWORD PTR [ebp+0xc]
     daa:	ff 75 08             	push   DWORD PTR [ebp+0x8]
     dad:	e8 de 64 00 00       	call   7290 <__x86.get_pc_thunk.bx+0x396>
     db2:	83 c4 10             	add    esp,0x10
     db5:	85 c0                	test   eax,eax
     db7:	0f 84 8a 00 00 00    	je     e47 <fatfs_sfn_exists+0xcf>
/home/yogi/NetBeansProjects/fatLib/../chrisOS/src/fat/fat_access.c:527
        {
            // Analyse Sector
            for (item = 0; item < FAT_DIR_ENTRIES_PER_SECTOR; item++)
     dbd:	c6 45 f7 00          	mov    BYTE PTR [ebp-0x9],0x0
     dc1:	eb 79                	jmp    e3c <fatfs_sfn_exists+0xc4>
/home/yogi/NetBeansProjects/fatLib/../chrisOS/src/fat/fat_access.c:530
            {
                // Create the multiplier for sector access
                recordoffset = FAT_DIR_ENTRY_SIZE * item;
     dc3:	0f b6 45 f7          	movzx  eax,BYTE PTR [ebp-0x9]
     dc7:	c1 e0 05             	shl    eax,0x5
     dca:	66 89 45 ee          	mov    WORD PTR [ebp-0x12],ax
/home/yogi/NetBeansProjects/fatLib/../chrisOS/src/fat/fat_access.c:533

                // Overlay directory entry over buffer
                directoryEntry = (struct fat_dir_entry*)(fs->currentsector.sector+recordoffset);
     dce:	8b 45 08             	mov    eax,DWORD PTR [ebp+0x8]
     dd1:	8d 50 44             	lea    edx,[eax+0x44]
     dd4:	0f b7 45 ee          	movzx  eax,WORD PTR [ebp-0x12]
     dd8:	01 d0                	add    eax,edx
     dda:	89 45 e8             	mov    DWORD PTR [ebp-0x18],eax
/home/yogi/NetBeansProjects/fatLib/../chrisOS/src/fat/fat_access.c:537

#if FATFS_INC_LFN_SUPPORT
                // Long File Name Text Found
                if (fatfs_entry_lfn_text(directoryEntry) )
     ddd:	83 ec 0c             	sub    esp,0xc
     de0:	ff 75 e8             	push   DWORD PTR [ebp-0x18]
     de3:	e8 c8 64 00 00       	call   72b0 <__x86.get_pc_thunk.bx+0x3b6>
     de8:	83 c4 10             	add    esp,0x10
     deb:	85 c0                	test   eax,eax
     ded:	75 43                	jne    e32 <fatfs_sfn_exists+0xba>
/home/yogi/NetBeansProjects/fatLib/../chrisOS/src/fat/fat_access.c:541
                    ;

                // If Invalid record found delete any long file name information collated
                else if (fatfs_entry_lfn_invalid(directoryEntry) )
     def:	83 ec 0c             	sub    esp,0xc
     df2:	ff 75 e8             	push   DWORD PTR [ebp-0x18]
     df5:	e8 c6 63 00 00       	call   71c0 <__x86.get_pc_thunk.bx+0x2c6>
     dfa:	83 c4 10             	add    esp,0x10
     dfd:	85 c0                	test   eax,eax
     dff:	75 31                	jne    e32 <fatfs_sfn_exists+0xba>
/home/yogi/NetBeansProjects/fatLib/../chrisOS/src/fat/fat_access.c:546
                    ;
                else
#endif
                // Normal Entry, only 8.3 Text
                if (fatfs_entry_sfn_only(directoryEntry) )
     e01:	83 ec 0c             	sub    esp,0xc
     e04:	ff 75 e8             	push   DWORD PTR [ebp-0x18]
     e07:	e8 34 65 00 00       	call   7340 <__x86.get_pc_thunk.bx+0x446>
     e0c:	83 c4 10             	add    esp,0x10
     e0f:	85 c0                	test   eax,eax
     e11:	74 1f                	je     e32 <fatfs_sfn_exists+0xba>
/home/yogi/NetBeansProjects/fatLib/../chrisOS/src/fat/fat_access.c:548
                {
                    if (strncmp((const char*)directoryEntry->Name, shortname, 11)==0)
     e13:	8b 45 e8             	mov    eax,DWORD PTR [ebp-0x18]
     e16:	83 ec 04             	sub    esp,0x4
     e19:	6a 0b                	push   0xb
     e1b:	ff 75 10             	push   DWORD PTR [ebp+0x10]
     e1e:	50                   	push   eax
     e1f:	e8 3c 63 00 00       	call   7160 <__x86.get_pc_thunk.bx+0x266>
     e24:	83 c4 10             	add    esp,0x10
     e27:	85 c0                	test   eax,eax
     e29:	75 07                	jne    e32 <fatfs_sfn_exists+0xba>
/home/yogi/NetBeansProjects/fatLib/../chrisOS/src/fat/fat_access.c:549
                        return 1;
     e2b:	b8 01 00 00 00       	mov    eax,0x1
     e30:	eb 1b                	jmp    e4d <fatfs_sfn_exists+0xd5>
/home/yogi/NetBeansProjects/fatLib/../chrisOS/src/fat/fat_access.c:527 (discriminator 2)
    {
        // Read sector
        if (fatfs_sector_reader(fs, Cluster, x++, 0)) // If sector read was successfull
        {
            // Analyse Sector
            for (item = 0; item < FAT_DIR_ENTRIES_PER_SECTOR; item++)
     e32:	0f b6 45 f7          	movzx  eax,BYTE PTR [ebp-0x9]
     e36:	83 c0 01             	add    eax,0x1
     e39:	88 45 f7             	mov    BYTE PTR [ebp-0x9],al
/home/yogi/NetBeansProjects/fatLib/../chrisOS/src/fat/fat_access.c:527 (discriminator 1)
     e3c:	80 7d f7 0f          	cmp    BYTE PTR [ebp-0x9],0xf
     e40:	76 81                	jbe    dc3 <fatfs_sfn_exists+0x4b>
/home/yogi/NetBeansProjects/fatLib/../chrisOS/src/fat/fat_access.c:555 (discriminator 1)
                }
            } // End of if
        }
        else
            break;
    } // End of while loop
     e42:	e9 54 ff ff ff       	jmp    d9b <fatfs_sfn_exists+0x23>
/home/yogi/NetBeansProjects/fatLib/../chrisOS/src/fat/fat_access.c:554
                        return 1;
                }
            } // End of if
        }
        else
            break;
     e47:	90                   	nop
/home/yogi/NetBeansProjects/fatLib/../chrisOS/src/fat/fat_access.c:557
    } // End of while loop

    return 0;
     e48:	b8 00 00 00 00       	mov    eax,0x0
/home/yogi/NetBeansProjects/fatLib/../chrisOS/src/fat/fat_access.c:558
}
     e4d:	8b 5d fc             	mov    ebx,DWORD PTR [ebp-0x4]
     e50:	c9                   	leave  
     e51:	c3                   	ret    

00000e52 <fatfs_update_timestamps>:
fatfs_update_timestamps():
/home/yogi/NetBeansProjects/fatLib/../chrisOS/src/fat/fat_access.c:565
//-------------------------------------------------------------
// fatfs_update_timestamps: Update date/time details
//-------------------------------------------------------------
#if FATFS_INC_TIME_DATE_SUPPORT
int fatfs_update_timestamps(struct fat_dir_entry *directoryEntry, int create, int modify, int access)
{
     e52:	55                   	push   ebp
     e53:	89 e5                	mov    ebp,esp
     e55:	53                   	push   ebx
     e56:	83 ec 14             	sub    esp,0x14
     e59:	e8 9c 60 00 00       	call   6efa <__x86.get_pc_thunk.bx>
     e5e:	81 c3 ca a0 00 00    	add    ebx,0xa0ca
/home/yogi/NetBeansProjects/fatLib/../chrisOS/src/fat/fat_access.c:572
    struct tm * time_info;
    uint16 fat_time;
    uint16 fat_date;

    // Get system time
    time(&time_now);
     e64:	83 ec 0c             	sub    esp,0xc
     e67:	8d 45 ec             	lea    eax,[ebp-0x14]
     e6a:	50                   	push   eax
     e6b:	e8 e0 63 00 00       	call   7250 <__x86.get_pc_thunk.bx+0x356>
     e70:	83 c4 10             	add    esp,0x10
/home/yogi/NetBeansProjects/fatLib/../chrisOS/src/fat/fat_access.c:575

    // Convert to local time
    time_info = localtime(&time_now);
     e73:	83 ec 0c             	sub    esp,0xc
     e76:	8d 45 ec             	lea    eax,[ebp-0x14]
     e79:	50                   	push   eax
     e7a:	e8 b1 63 00 00       	call   7230 <__x86.get_pc_thunk.bx+0x336>
     e7f:	83 c4 10             	add    esp,0x10
     e82:	89 45 f4             	mov    DWORD PTR [ebp-0xc],eax
/home/yogi/NetBeansProjects/fatLib/../chrisOS/src/fat/fat_access.c:578

    // Convert time to FAT format
    fat_time = fatfs_convert_to_fat_time(time_info->tm_hour, time_info->tm_min, time_info->tm_sec);
     e85:	8b 45 f4             	mov    eax,DWORD PTR [ebp-0xc]
     e88:	8b 08                	mov    ecx,DWORD PTR [eax]
     e8a:	8b 45 f4             	mov    eax,DWORD PTR [ebp-0xc]
     e8d:	8b 50 04             	mov    edx,DWORD PTR [eax+0x4]
     e90:	8b 45 f4             	mov    eax,DWORD PTR [ebp-0xc]
     e93:	8b 40 08             	mov    eax,DWORD PTR [eax+0x8]
     e96:	83 ec 04             	sub    esp,0x4
     e99:	51                   	push   ecx
     e9a:	52                   	push   edx
     e9b:	50                   	push   eax
     e9c:	e8 3f 61 00 00       	call   6fe0 <__x86.get_pc_thunk.bx+0xe6>
     ea1:	83 c4 10             	add    esp,0x10
     ea4:	66 89 45 f2          	mov    WORD PTR [ebp-0xe],ax
/home/yogi/NetBeansProjects/fatLib/../chrisOS/src/fat/fat_access.c:581

    // Convert date to FAT format
    fat_date = fatfs_convert_to_fat_date(time_info->tm_mday, time_info->tm_mon + 1, time_info->tm_year + 1900);
     ea8:	8b 45 f4             	mov    eax,DWORD PTR [ebp-0xc]
     eab:	8b 40 14             	mov    eax,DWORD PTR [eax+0x14]
     eae:	8d 88 6c 07 00 00    	lea    ecx,[eax+0x76c]
     eb4:	8b 45 f4             	mov    eax,DWORD PTR [ebp-0xc]
     eb7:	8b 40 10             	mov    eax,DWORD PTR [eax+0x10]
     eba:	8d 50 01             	lea    edx,[eax+0x1]
     ebd:	8b 45 f4             	mov    eax,DWORD PTR [ebp-0xc]
     ec0:	8b 40 0c             	mov    eax,DWORD PTR [eax+0xc]
     ec3:	83 ec 04             	sub    esp,0x4
     ec6:	51                   	push   ecx
     ec7:	52                   	push   edx
     ec8:	50                   	push   eax
     ec9:	e8 72 60 00 00       	call   6f40 <__x86.get_pc_thunk.bx+0x46>
     ece:	83 c4 10             	add    esp,0x10
     ed1:	66 89 45 f0          	mov    WORD PTR [ebp-0x10],ax
/home/yogi/NetBeansProjects/fatLib/../chrisOS/src/fat/fat_access.c:584

    // Update requested fields
    if (create)
     ed5:	83 7d 0c 00          	cmp    DWORD PTR [ebp+0xc],0x0
     ed9:	74 38                	je     f13 <fatfs_update_timestamps+0xc1>
/home/yogi/NetBeansProjects/fatLib/../chrisOS/src/fat/fat_access.c:586
    {
        directoryEntry->CrtTime[1] = fat_time >> 8;
     edb:	0f b7 45 f2          	movzx  eax,WORD PTR [ebp-0xe]
     edf:	66 c1 e8 08          	shr    ax,0x8
     ee3:	89 c2                	mov    edx,eax
     ee5:	8b 45 08             	mov    eax,DWORD PTR [ebp+0x8]
     ee8:	88 50 0f             	mov    BYTE PTR [eax+0xf],dl
/home/yogi/NetBeansProjects/fatLib/../chrisOS/src/fat/fat_access.c:587
        directoryEntry->CrtTime[0] = fat_time >> 0;
     eeb:	0f b7 45 f2          	movzx  eax,WORD PTR [ebp-0xe]
     eef:	89 c2                	mov    edx,eax
     ef1:	8b 45 08             	mov    eax,DWORD PTR [ebp+0x8]
     ef4:	88 50 0e             	mov    BYTE PTR [eax+0xe],dl
/home/yogi/NetBeansProjects/fatLib/../chrisOS/src/fat/fat_access.c:588
        directoryEntry->CrtDate[1] = fat_date >> 8;
     ef7:	0f b7 45 f0          	movzx  eax,WORD PTR [ebp-0x10]
     efb:	66 c1 e8 08          	shr    ax,0x8
     eff:	89 c2                	mov    edx,eax
     f01:	8b 45 08             	mov    eax,DWORD PTR [ebp+0x8]
     f04:	88 50 11             	mov    BYTE PTR [eax+0x11],dl
/home/yogi/NetBeansProjects/fatLib/../chrisOS/src/fat/fat_access.c:589
        directoryEntry->CrtDate[0] = fat_date >> 0;
     f07:	0f b7 45 f0          	movzx  eax,WORD PTR [ebp-0x10]
     f0b:	89 c2                	mov    edx,eax
     f0d:	8b 45 08             	mov    eax,DWORD PTR [ebp+0x8]
     f10:	88 50 10             	mov    BYTE PTR [eax+0x10],dl
/home/yogi/NetBeansProjects/fatLib/../chrisOS/src/fat/fat_access.c:592
    }

    if (modify)
     f13:	83 7d 10 00          	cmp    DWORD PTR [ebp+0x10],0x0
     f17:	74 38                	je     f51 <fatfs_update_timestamps+0xff>
/home/yogi/NetBeansProjects/fatLib/../chrisOS/src/fat/fat_access.c:594
    {
        directoryEntry->WrtTime[1] = fat_time >> 8;
     f19:	0f b7 45 f2          	movzx  eax,WORD PTR [ebp-0xe]
     f1d:	66 c1 e8 08          	shr    ax,0x8
     f21:	89 c2                	mov    edx,eax
     f23:	8b 45 08             	mov    eax,DWORD PTR [ebp+0x8]
     f26:	88 50 17             	mov    BYTE PTR [eax+0x17],dl
/home/yogi/NetBeansProjects/fatLib/../chrisOS/src/fat/fat_access.c:595
        directoryEntry->WrtTime[0] = fat_time >> 0;
     f29:	0f b7 45 f2          	movzx  eax,WORD PTR [ebp-0xe]
     f2d:	89 c2                	mov    edx,eax
     f2f:	8b 45 08             	mov    eax,DWORD PTR [ebp+0x8]
     f32:	88 50 16             	mov    BYTE PTR [eax+0x16],dl
/home/yogi/NetBeansProjects/fatLib/../chrisOS/src/fat/fat_access.c:596
        directoryEntry->WrtDate[1] = fat_date >> 8;
     f35:	0f b7 45 f0          	movzx  eax,WORD PTR [ebp-0x10]
     f39:	66 c1 e8 08          	shr    ax,0x8
     f3d:	89 c2                	mov    edx,eax
     f3f:	8b 45 08             	mov    eax,DWORD PTR [ebp+0x8]
     f42:	88 50 19             	mov    BYTE PTR [eax+0x19],dl
/home/yogi/NetBeansProjects/fatLib/../chrisOS/src/fat/fat_access.c:597
        directoryEntry->WrtDate[0] = fat_date >> 0;
     f45:	0f b7 45 f0          	movzx  eax,WORD PTR [ebp-0x10]
     f49:	89 c2                	mov    edx,eax
     f4b:	8b 45 08             	mov    eax,DWORD PTR [ebp+0x8]
     f4e:	88 50 18             	mov    BYTE PTR [eax+0x18],dl
/home/yogi/NetBeansProjects/fatLib/../chrisOS/src/fat/fat_access.c:600
    }

    if (access)
     f51:	83 7d 14 00          	cmp    DWORD PTR [ebp+0x14],0x0
     f55:	74 38                	je     f8f <fatfs_update_timestamps+0x13d>
/home/yogi/NetBeansProjects/fatLib/../chrisOS/src/fat/fat_access.c:602
    {
        directoryEntry->LstAccDate[1] = fat_time >> 8;
     f57:	0f b7 45 f2          	movzx  eax,WORD PTR [ebp-0xe]
     f5b:	66 c1 e8 08          	shr    ax,0x8
     f5f:	89 c2                	mov    edx,eax
     f61:	8b 45 08             	mov    eax,DWORD PTR [ebp+0x8]
     f64:	88 50 13             	mov    BYTE PTR [eax+0x13],dl
/home/yogi/NetBeansProjects/fatLib/../chrisOS/src/fat/fat_access.c:603
        directoryEntry->LstAccDate[0] = fat_time >> 0;
     f67:	0f b7 45 f2          	movzx  eax,WORD PTR [ebp-0xe]
     f6b:	89 c2                	mov    edx,eax
     f6d:	8b 45 08             	mov    eax,DWORD PTR [ebp+0x8]
     f70:	88 50 12             	mov    BYTE PTR [eax+0x12],dl
/home/yogi/NetBeansProjects/fatLib/../chrisOS/src/fat/fat_access.c:604
        directoryEntry->LstAccDate[1] = fat_date >> 8;
     f73:	0f b7 45 f0          	movzx  eax,WORD PTR [ebp-0x10]
     f77:	66 c1 e8 08          	shr    ax,0x8
     f7b:	89 c2                	mov    edx,eax
     f7d:	8b 45 08             	mov    eax,DWORD PTR [ebp+0x8]
     f80:	88 50 13             	mov    BYTE PTR [eax+0x13],dl
/home/yogi/NetBeansProjects/fatLib/../chrisOS/src/fat/fat_access.c:605
        directoryEntry->LstAccDate[0] = fat_date >> 0;
     f83:	0f b7 45 f0          	movzx  eax,WORD PTR [ebp-0x10]
     f87:	89 c2                	mov    edx,eax
     f89:	8b 45 08             	mov    eax,DWORD PTR [ebp+0x8]
     f8c:	88 50 12             	mov    BYTE PTR [eax+0x12],dl
/home/yogi/NetBeansProjects/fatLib/../chrisOS/src/fat/fat_access.c:608
    }

    return 1;
     f8f:	b8 01 00 00 00       	mov    eax,0x1
/home/yogi/NetBeansProjects/fatLib/../chrisOS/src/fat/fat_access.c:609
}
     f94:	8b 5d fc             	mov    ebx,DWORD PTR [ebp-0x4]
     f97:	c9                   	leave  
     f98:	c3                   	ret    

00000f99 <fatfs_update_file_length>:
fatfs_update_file_length():
/home/yogi/NetBeansProjects/fatLib/../chrisOS/src/fat/fat_access.c:617
// fatfs_update_file_length: Find a SFN entry and update it
// NOTE: shortname is XXXXXXXXYYY not XXXXXXXX.YYY
//-------------------------------------------------------------
#if FATFS_INC_WRITE_SUPPORT
int fatfs_update_file_length(struct fatfs *fs, uint32 Cluster, char *shortname, uint32 fileLength)
{
     f99:	55                   	push   ebp
     f9a:	89 e5                	mov    ebp,esp
     f9c:	53                   	push   ebx
     f9d:	83 ec 14             	sub    esp,0x14
     fa0:	e8 55 5f 00 00       	call   6efa <__x86.get_pc_thunk.bx>
     fa5:	81 c3 83 9f 00 00    	add    ebx,0x9f83
/home/yogi/NetBeansProjects/fatLib/../chrisOS/src/fat/fat_access.c:618
    uint8 item=0;
     fab:	c6 45 f7 00          	mov    BYTE PTR [ebp-0x9],0x0
/home/yogi/NetBeansProjects/fatLib/../chrisOS/src/fat/fat_access.c:619
    uint16 recordoffset = 0;
     faf:	66 c7 45 ee 00 00    	mov    WORD PTR [ebp-0x12],0x0
/home/yogi/NetBeansProjects/fatLib/../chrisOS/src/fat/fat_access.c:620
    int x=0;
     fb5:	c7 45 f0 00 00 00 00 	mov    DWORD PTR [ebp-0x10],0x0
/home/yogi/NetBeansProjects/fatLib/../chrisOS/src/fat/fat_access.c:624
    struct fat_dir_entry *directoryEntry;

    // No write access?
    if (!fs->disk_io.write_media)
     fbc:	8b 45 08             	mov    eax,DWORD PTR [ebp+0x8]
     fbf:	8b 40 38             	mov    eax,DWORD PTR [eax+0x38]
     fc2:	85 c0                	test   eax,eax
     fc4:	75 0a                	jne    fd0 <fatfs_update_file_length+0x37>
/home/yogi/NetBeansProjects/fatLib/../chrisOS/src/fat/fat_access.c:625
        return 0;
     fc6:	b8 00 00 00 00       	mov    eax,0x0
     fcb:	e9 14 01 00 00       	jmp    10e4 <fatfs_update_file_length+0x14b>
/home/yogi/NetBeansProjects/fatLib/../chrisOS/src/fat/fat_access.c:631

    // Main cluster following loop
    while (1)
    {
        // Read sector
        if (fatfs_sector_reader(fs, Cluster, x++, 0)) // If sector read was successfull
     fd0:	8b 45 f0             	mov    eax,DWORD PTR [ebp-0x10]
     fd3:	8d 50 01             	lea    edx,[eax+0x1]
     fd6:	89 55 f0             	mov    DWORD PTR [ebp-0x10],edx
     fd9:	6a 00                	push   0x0
     fdb:	50                   	push   eax
     fdc:	ff 75 0c             	push   DWORD PTR [ebp+0xc]
     fdf:	ff 75 08             	push   DWORD PTR [ebp+0x8]
     fe2:	e8 a9 62 00 00       	call   7290 <__x86.get_pc_thunk.bx+0x396>
     fe7:	83 c4 10             	add    esp,0x10
     fea:	85 c0                	test   eax,eax
     fec:	0f 84 ec 00 00 00    	je     10de <fatfs_update_file_length+0x145>
/home/yogi/NetBeansProjects/fatLib/../chrisOS/src/fat/fat_access.c:634
        {
            // Analyse Sector
            for (item = 0; item < FAT_DIR_ENTRIES_PER_SECTOR; item++)
     ff2:	c6 45 f7 00          	mov    BYTE PTR [ebp-0x9],0x0
     ff6:	e9 d4 00 00 00       	jmp    10cf <fatfs_update_file_length+0x136>
/home/yogi/NetBeansProjects/fatLib/../chrisOS/src/fat/fat_access.c:637
            {
                // Create the multiplier for sector access
                recordoffset = FAT_DIR_ENTRY_SIZE * item;
     ffb:	0f b6 45 f7          	movzx  eax,BYTE PTR [ebp-0x9]
     fff:	c1 e0 05             	shl    eax,0x5
    1002:	66 89 45 ee          	mov    WORD PTR [ebp-0x12],ax
/home/yogi/NetBeansProjects/fatLib/../chrisOS/src/fat/fat_access.c:640

                // Overlay directory entry over buffer
                directoryEntry = (struct fat_dir_entry*)(fs->currentsector.sector+recordoffset);
    1006:	8b 45 08             	mov    eax,DWORD PTR [ebp+0x8]
    1009:	8d 50 44             	lea    edx,[eax+0x44]
    100c:	0f b7 45 ee          	movzx  eax,WORD PTR [ebp-0x12]
    1010:	01 d0                	add    eax,edx
    1012:	89 45 e8             	mov    DWORD PTR [ebp-0x18],eax
/home/yogi/NetBeansProjects/fatLib/../chrisOS/src/fat/fat_access.c:644

#if FATFS_INC_LFN_SUPPORT
                // Long File Name Text Found
                if (fatfs_entry_lfn_text(directoryEntry) )
    1015:	83 ec 0c             	sub    esp,0xc
    1018:	ff 75 e8             	push   DWORD PTR [ebp-0x18]
    101b:	e8 90 62 00 00       	call   72b0 <__x86.get_pc_thunk.bx+0x3b6>
    1020:	83 c4 10             	add    esp,0x10
    1023:	85 c0                	test   eax,eax
    1025:	0f 85 9a 00 00 00    	jne    10c5 <fatfs_update_file_length+0x12c>
/home/yogi/NetBeansProjects/fatLib/../chrisOS/src/fat/fat_access.c:648
                    ;

                // If Invalid record found delete any long file name information collated
                else if (fatfs_entry_lfn_invalid(directoryEntry) )
    102b:	83 ec 0c             	sub    esp,0xc
    102e:	ff 75 e8             	push   DWORD PTR [ebp-0x18]
    1031:	e8 8a 61 00 00       	call   71c0 <__x86.get_pc_thunk.bx+0x2c6>
    1036:	83 c4 10             	add    esp,0x10
    1039:	85 c0                	test   eax,eax
    103b:	0f 85 84 00 00 00    	jne    10c5 <fatfs_update_file_length+0x12c>
/home/yogi/NetBeansProjects/fatLib/../chrisOS/src/fat/fat_access.c:654
                    ;

                // Normal Entry, only 8.3 Text
                else
#endif
                if (fatfs_entry_sfn_only(directoryEntry) )
    1041:	83 ec 0c             	sub    esp,0xc
    1044:	ff 75 e8             	push   DWORD PTR [ebp-0x18]
    1047:	e8 f4 62 00 00       	call   7340 <__x86.get_pc_thunk.bx+0x446>
    104c:	83 c4 10             	add    esp,0x10
    104f:	85 c0                	test   eax,eax
    1051:	74 72                	je     10c5 <fatfs_update_file_length+0x12c>
/home/yogi/NetBeansProjects/fatLib/../chrisOS/src/fat/fat_access.c:656
                {
                    if (strncmp((const char*)directoryEntry->Name, shortname, 11)==0)
    1053:	8b 45 e8             	mov    eax,DWORD PTR [ebp-0x18]
    1056:	83 ec 04             	sub    esp,0x4
    1059:	6a 0b                	push   0xb
    105b:	ff 75 10             	push   DWORD PTR [ebp+0x10]
    105e:	50                   	push   eax
    105f:	e8 fc 60 00 00       	call   7160 <__x86.get_pc_thunk.bx+0x266>
    1064:	83 c4 10             	add    esp,0x10
    1067:	85 c0                	test   eax,eax
    1069:	75 5a                	jne    10c5 <fatfs_update_file_length+0x12c>
/home/yogi/NetBeansProjects/fatLib/../chrisOS/src/fat/fat_access.c:658
                    {
                        directoryEntry->FileSize = FAT_HTONL(fileLength);
    106b:	8b 45 e8             	mov    eax,DWORD PTR [ebp-0x18]
    106e:	8b 55 14             	mov    edx,DWORD PTR [ebp+0x14]
    1071:	89 50 1c             	mov    DWORD PTR [eax+0x1c],edx
/home/yogi/NetBeansProjects/fatLib/../chrisOS/src/fat/fat_access.c:662

#if FATFS_INC_TIME_DATE_SUPPORT
                        // Update access / modify time & date
                        fatfs_update_timestamps(directoryEntry, 0, 1, 1);
    1074:	6a 01                	push   0x1
    1076:	6a 01                	push   0x1
    1078:	6a 00                	push   0x0
    107a:	ff 75 e8             	push   DWORD PTR [ebp-0x18]
    107d:	e8 be 5f 00 00       	call   7040 <__x86.get_pc_thunk.bx+0x146>
    1082:	83 c4 10             	add    esp,0x10
/home/yogi/NetBeansProjects/fatLib/../chrisOS/src/fat/fat_access.c:666
#endif

                        // Update sfn entry
                        memcpy((uint8*)(fs->currentsector.sector+recordoffset), (uint8*)directoryEntry, sizeof(struct fat_dir_entry));
    1085:	8b 45 08             	mov    eax,DWORD PTR [ebp+0x8]
    1088:	8d 50 44             	lea    edx,[eax+0x44]
    108b:	0f b7 45 ee          	movzx  eax,WORD PTR [ebp-0x12]
    108f:	01 d0                	add    eax,edx
    1091:	83 ec 04             	sub    esp,0x4
    1094:	6a 20                	push   0x20
    1096:	ff 75 e8             	push   DWORD PTR [ebp-0x18]
    1099:	50                   	push   eax
    109a:	e8 21 5f 00 00       	call   6fc0 <__x86.get_pc_thunk.bx+0xc6>
    109f:	83 c4 10             	add    esp,0x10
/home/yogi/NetBeansProjects/fatLib/../chrisOS/src/fat/fat_access.c:669

                        // Write sector back
                        return fs->disk_io.write_media(fs->currentsector.address, fs->currentsector.sector, 1);
    10a2:	8b 45 08             	mov    eax,DWORD PTR [ebp+0x8]
    10a5:	8b 40 38             	mov    eax,DWORD PTR [eax+0x38]
    10a8:	8b 55 08             	mov    edx,DWORD PTR [ebp+0x8]
    10ab:	8d 4a 44             	lea    ecx,[edx+0x44]
    10ae:	8b 55 08             	mov    edx,DWORD PTR [ebp+0x8]
    10b1:	8b 92 44 02 00 00    	mov    edx,DWORD PTR [edx+0x244]
    10b7:	83 ec 04             	sub    esp,0x4
    10ba:	6a 01                	push   0x1
    10bc:	51                   	push   ecx
    10bd:	52                   	push   edx
    10be:	ff d0                	call   eax
    10c0:	83 c4 10             	add    esp,0x10
    10c3:	eb 1f                	jmp    10e4 <fatfs_update_file_length+0x14b>
/home/yogi/NetBeansProjects/fatLib/../chrisOS/src/fat/fat_access.c:634 (discriminator 2)
    {
        // Read sector
        if (fatfs_sector_reader(fs, Cluster, x++, 0)) // If sector read was successfull
        {
            // Analyse Sector
            for (item = 0; item < FAT_DIR_ENTRIES_PER_SECTOR; item++)
    10c5:	0f b6 45 f7          	movzx  eax,BYTE PTR [ebp-0x9]
    10c9:	83 c0 01             	add    eax,0x1
    10cc:	88 45 f7             	mov    BYTE PTR [ebp-0x9],al
/home/yogi/NetBeansProjects/fatLib/../chrisOS/src/fat/fat_access.c:634 (discriminator 1)
    10cf:	80 7d f7 0f          	cmp    BYTE PTR [ebp-0x9],0xf
    10d3:	0f 86 22 ff ff ff    	jbe    ffb <fatfs_update_file_length+0x62>
/home/yogi/NetBeansProjects/fatLib/../chrisOS/src/fat/fat_access.c:676 (discriminator 1)
                }
            } // End of if
        }
        else
            break;
    } // End of while loop
    10d9:	e9 f2 fe ff ff       	jmp    fd0 <fatfs_update_file_length+0x37>
/home/yogi/NetBeansProjects/fatLib/../chrisOS/src/fat/fat_access.c:675
                    }
                }
            } // End of if
        }
        else
            break;
    10de:	90                   	nop
/home/yogi/NetBeansProjects/fatLib/../chrisOS/src/fat/fat_access.c:678
    } // End of while loop

    return 0;
    10df:	b8 00 00 00 00       	mov    eax,0x0
/home/yogi/NetBeansProjects/fatLib/../chrisOS/src/fat/fat_access.c:679
}
    10e4:	8b 5d fc             	mov    ebx,DWORD PTR [ebp-0x4]
    10e7:	c9                   	leave  
    10e8:	c3                   	ret    

000010e9 <fatfs_mark_file_deleted>:
fatfs_mark_file_deleted():
/home/yogi/NetBeansProjects/fatLib/../chrisOS/src/fat/fat_access.c:687
// fatfs_mark_file_deleted: Find a SFN entry and mark if as deleted
// NOTE: shortname is XXXXXXXXYYY not XXXXXXXX.YYY
//-------------------------------------------------------------
#if FATFS_INC_WRITE_SUPPORT
int fatfs_mark_file_deleted(struct fatfs *fs, uint32 Cluster, char *shortname)
{
    10e9:	55                   	push   ebp
    10ea:	89 e5                	mov    ebp,esp
    10ec:	53                   	push   ebx
    10ed:	83 ec 14             	sub    esp,0x14
    10f0:	e8 05 5e 00 00       	call   6efa <__x86.get_pc_thunk.bx>
    10f5:	81 c3 33 9e 00 00    	add    ebx,0x9e33
/home/yogi/NetBeansProjects/fatLib/../chrisOS/src/fat/fat_access.c:688
    uint8 item=0;
    10fb:	c6 45 f7 00          	mov    BYTE PTR [ebp-0x9],0x0
/home/yogi/NetBeansProjects/fatLib/../chrisOS/src/fat/fat_access.c:689
    uint16 recordoffset = 0;
    10ff:	66 c7 45 ee 00 00    	mov    WORD PTR [ebp-0x12],0x0
/home/yogi/NetBeansProjects/fatLib/../chrisOS/src/fat/fat_access.c:690
    int x=0;
    1105:	c7 45 f0 00 00 00 00 	mov    DWORD PTR [ebp-0x10],0x0
/home/yogi/NetBeansProjects/fatLib/../chrisOS/src/fat/fat_access.c:694
    struct fat_dir_entry *directoryEntry;

    // No write access?
    if (!fs->disk_io.write_media)
    110c:	8b 45 08             	mov    eax,DWORD PTR [ebp+0x8]
    110f:	8b 40 38             	mov    eax,DWORD PTR [eax+0x38]
    1112:	85 c0                	test   eax,eax
    1114:	75 0a                	jne    1120 <fatfs_mark_file_deleted+0x37>
/home/yogi/NetBeansProjects/fatLib/../chrisOS/src/fat/fat_access.c:695
        return 0;
    1116:	b8 00 00 00 00       	mov    eax,0x0
    111b:	e9 11 01 00 00       	jmp    1231 <fatfs_mark_file_deleted+0x148>
/home/yogi/NetBeansProjects/fatLib/../chrisOS/src/fat/fat_access.c:701

    // Main cluster following loop
    while (1)
    {
        // Read sector
        if (fatfs_sector_reader(fs, Cluster, x++, 0)) // If sector read was successfull
    1120:	8b 45 f0             	mov    eax,DWORD PTR [ebp-0x10]
    1123:	8d 50 01             	lea    edx,[eax+0x1]
    1126:	89 55 f0             	mov    DWORD PTR [ebp-0x10],edx
    1129:	6a 00                	push   0x0
    112b:	50                   	push   eax
    112c:	ff 75 0c             	push   DWORD PTR [ebp+0xc]
    112f:	ff 75 08             	push   DWORD PTR [ebp+0x8]
    1132:	e8 59 61 00 00       	call   7290 <__x86.get_pc_thunk.bx+0x396>
    1137:	83 c4 10             	add    esp,0x10
    113a:	85 c0                	test   eax,eax
    113c:	0f 84 e9 00 00 00    	je     122b <fatfs_mark_file_deleted+0x142>
/home/yogi/NetBeansProjects/fatLib/../chrisOS/src/fat/fat_access.c:704
        {
            // Analyse Sector
            for (item = 0; item < FAT_DIR_ENTRIES_PER_SECTOR; item++)
    1142:	c6 45 f7 00          	mov    BYTE PTR [ebp-0x9],0x0
    1146:	e9 d1 00 00 00       	jmp    121c <fatfs_mark_file_deleted+0x133>
/home/yogi/NetBeansProjects/fatLib/../chrisOS/src/fat/fat_access.c:707
            {
                // Create the multiplier for sector access
                recordoffset = FAT_DIR_ENTRY_SIZE * item;
    114b:	0f b6 45 f7          	movzx  eax,BYTE PTR [ebp-0x9]
    114f:	c1 e0 05             	shl    eax,0x5
    1152:	66 89 45 ee          	mov    WORD PTR [ebp-0x12],ax
/home/yogi/NetBeansProjects/fatLib/../chrisOS/src/fat/fat_access.c:710

                // Overlay directory entry over buffer
                directoryEntry = (struct fat_dir_entry*)(fs->currentsector.sector+recordoffset);
    1156:	8b 45 08             	mov    eax,DWORD PTR [ebp+0x8]
    1159:	8d 50 44             	lea    edx,[eax+0x44]
    115c:	0f b7 45 ee          	movzx  eax,WORD PTR [ebp-0x12]
    1160:	01 d0                	add    eax,edx
    1162:	89 45 e8             	mov    DWORD PTR [ebp-0x18],eax
/home/yogi/NetBeansProjects/fatLib/../chrisOS/src/fat/fat_access.c:714

#if FATFS_INC_LFN_SUPPORT
                // Long File Name Text Found
                if (fatfs_entry_lfn_text(directoryEntry) )
    1165:	83 ec 0c             	sub    esp,0xc
    1168:	ff 75 e8             	push   DWORD PTR [ebp-0x18]
    116b:	e8 40 61 00 00       	call   72b0 <__x86.get_pc_thunk.bx+0x3b6>
    1170:	83 c4 10             	add    esp,0x10
    1173:	85 c0                	test   eax,eax
    1175:	0f 85 97 00 00 00    	jne    1212 <fatfs_mark_file_deleted+0x129>
/home/yogi/NetBeansProjects/fatLib/../chrisOS/src/fat/fat_access.c:718
                    ;

                // If Invalid record found delete any long file name information collated
                else if (fatfs_entry_lfn_invalid(directoryEntry) )
    117b:	83 ec 0c             	sub    esp,0xc
    117e:	ff 75 e8             	push   DWORD PTR [ebp-0x18]
    1181:	e8 3a 60 00 00       	call   71c0 <__x86.get_pc_thunk.bx+0x2c6>
    1186:	83 c4 10             	add    esp,0x10
    1189:	85 c0                	test   eax,eax
    118b:	0f 85 81 00 00 00    	jne    1212 <fatfs_mark_file_deleted+0x129>
/home/yogi/NetBeansProjects/fatLib/../chrisOS/src/fat/fat_access.c:724
                    ;

                // Normal Entry, only 8.3 Text
                else
#endif
                if (fatfs_entry_sfn_only(directoryEntry) )
    1191:	83 ec 0c             	sub    esp,0xc
    1194:	ff 75 e8             	push   DWORD PTR [ebp-0x18]
    1197:	e8 a4 61 00 00       	call   7340 <__x86.get_pc_thunk.bx+0x446>
    119c:	83 c4 10             	add    esp,0x10
    119f:	85 c0                	test   eax,eax
    11a1:	74 6f                	je     1212 <fatfs_mark_file_deleted+0x129>
/home/yogi/NetBeansProjects/fatLib/../chrisOS/src/fat/fat_access.c:726
                {
                    if (strncmp((const char *)directoryEntry->Name, shortname, 11)==0)
    11a3:	8b 45 e8             	mov    eax,DWORD PTR [ebp-0x18]
    11a6:	83 ec 04             	sub    esp,0x4
    11a9:	6a 0b                	push   0xb
    11ab:	ff 75 10             	push   DWORD PTR [ebp+0x10]
    11ae:	50                   	push   eax
    11af:	e8 ac 5f 00 00       	call   7160 <__x86.get_pc_thunk.bx+0x266>
    11b4:	83 c4 10             	add    esp,0x10
    11b7:	85 c0                	test   eax,eax
    11b9:	75 57                	jne    1212 <fatfs_mark_file_deleted+0x129>
/home/yogi/NetBeansProjects/fatLib/../chrisOS/src/fat/fat_access.c:729
                    {
                        // Mark as deleted
                        directoryEntry->Name[0] = FILE_HEADER_DELETED;
    11bb:	8b 45 e8             	mov    eax,DWORD PTR [ebp-0x18]
    11be:	c6 00 e5             	mov    BYTE PTR [eax],0xe5
/home/yogi/NetBeansProjects/fatLib/../chrisOS/src/fat/fat_access.c:733

#if FATFS_INC_TIME_DATE_SUPPORT
                        // Update access / modify time & date
                        fatfs_update_timestamps(directoryEntry, 0, 1, 1);
    11c1:	6a 01                	push   0x1
    11c3:	6a 01                	push   0x1
    11c5:	6a 00                	push   0x0
    11c7:	ff 75 e8             	push   DWORD PTR [ebp-0x18]
    11ca:	e8 71 5e 00 00       	call   7040 <__x86.get_pc_thunk.bx+0x146>
    11cf:	83 c4 10             	add    esp,0x10
/home/yogi/NetBeansProjects/fatLib/../chrisOS/src/fat/fat_access.c:737
#endif

                        // Update sfn entry
                        memcpy((uint8*)(fs->currentsector.sector+recordoffset), (uint8*)directoryEntry, sizeof(struct fat_dir_entry));
    11d2:	8b 45 08             	mov    eax,DWORD PTR [ebp+0x8]
    11d5:	8d 50 44             	lea    edx,[eax+0x44]
    11d8:	0f b7 45 ee          	movzx  eax,WORD PTR [ebp-0x12]
    11dc:	01 d0                	add    eax,edx
    11de:	83 ec 04             	sub    esp,0x4
    11e1:	6a 20                	push   0x20
    11e3:	ff 75 e8             	push   DWORD PTR [ebp-0x18]
    11e6:	50                   	push   eax
    11e7:	e8 d4 5d 00 00       	call   6fc0 <__x86.get_pc_thunk.bx+0xc6>
    11ec:	83 c4 10             	add    esp,0x10
/home/yogi/NetBeansProjects/fatLib/../chrisOS/src/fat/fat_access.c:740

                        // Write sector back
                        return fs->disk_io.write_media(fs->currentsector.address, fs->currentsector.sector, 1);
    11ef:	8b 45 08             	mov    eax,DWORD PTR [ebp+0x8]
    11f2:	8b 40 38             	mov    eax,DWORD PTR [eax+0x38]
    11f5:	8b 55 08             	mov    edx,DWORD PTR [ebp+0x8]
    11f8:	8d 4a 44             	lea    ecx,[edx+0x44]
    11fb:	8b 55 08             	mov    edx,DWORD PTR [ebp+0x8]
    11fe:	8b 92 44 02 00 00    	mov    edx,DWORD PTR [edx+0x244]
    1204:	83 ec 04             	sub    esp,0x4
    1207:	6a 01                	push   0x1
    1209:	51                   	push   ecx
    120a:	52                   	push   edx
    120b:	ff d0                	call   eax
    120d:	83 c4 10             	add    esp,0x10
    1210:	eb 1f                	jmp    1231 <fatfs_mark_file_deleted+0x148>
/home/yogi/NetBeansProjects/fatLib/../chrisOS/src/fat/fat_access.c:704 (discriminator 2)
    {
        // Read sector
        if (fatfs_sector_reader(fs, Cluster, x++, 0)) // If sector read was successfull
        {
            // Analyse Sector
            for (item = 0; item < FAT_DIR_ENTRIES_PER_SECTOR; item++)
    1212:	0f b6 45 f7          	movzx  eax,BYTE PTR [ebp-0x9]
    1216:	83 c0 01             	add    eax,0x1
    1219:	88 45 f7             	mov    BYTE PTR [ebp-0x9],al
/home/yogi/NetBeansProjects/fatLib/../chrisOS/src/fat/fat_access.c:704 (discriminator 1)
    121c:	80 7d f7 0f          	cmp    BYTE PTR [ebp-0x9],0xf
    1220:	0f 86 25 ff ff ff    	jbe    114b <fatfs_mark_file_deleted+0x62>
/home/yogi/NetBeansProjects/fatLib/../chrisOS/src/fat/fat_access.c:747 (discriminator 1)
                }
            } // End of if
        }
        else
            break;
    } // End of while loop
    1226:	e9 f5 fe ff ff       	jmp    1120 <fatfs_mark_file_deleted+0x37>
/home/yogi/NetBeansProjects/fatLib/../chrisOS/src/fat/fat_access.c:746
                    }
                }
            } // End of if
        }
        else
            break;
    122b:	90                   	nop
/home/yogi/NetBeansProjects/fatLib/../chrisOS/src/fat/fat_access.c:749
    } // End of while loop

    return 0;
    122c:	b8 00 00 00 00       	mov    eax,0x0
/home/yogi/NetBeansProjects/fatLib/../chrisOS/src/fat/fat_access.c:750
}
    1231:	8b 5d fc             	mov    ebx,DWORD PTR [ebp-0x4]
    1234:	c9                   	leave  
    1235:	c3                   	ret    

00001236 <fatfs_list_directory_start>:
fatfs_list_directory_start():
/home/yogi/NetBeansProjects/fatLib/../chrisOS/src/fat/fat_access.c:757
//-----------------------------------------------------------------------------
// fatfs_list_directory_start: Initialise a directory listing procedure
//-----------------------------------------------------------------------------
#if FATFS_DIR_LIST_SUPPORT
void fatfs_list_directory_start(struct fatfs *fs, struct fs_dir_list_status *dirls, uint32 StartCluster)
{
    1236:	55                   	push   ebp
    1237:	89 e5                	mov    ebp,esp
    1239:	e8 b8 5c 00 00       	call   6ef6 <__x86.get_pc_thunk.ax>
    123e:	05 ea 9c 00 00       	add    eax,0x9cea
/home/yogi/NetBeansProjects/fatLib/../chrisOS/src/fat/fat_access.c:758
    dirls->cluster = StartCluster;
    1243:	8b 45 0c             	mov    eax,DWORD PTR [ebp+0xc]
    1246:	8b 55 10             	mov    edx,DWORD PTR [ebp+0x10]
    1249:	89 50 04             	mov    DWORD PTR [eax+0x4],edx
/home/yogi/NetBeansProjects/fatLib/../chrisOS/src/fat/fat_access.c:759
    dirls->sector = 0;
    124c:	8b 45 0c             	mov    eax,DWORD PTR [ebp+0xc]
    124f:	c7 00 00 00 00 00    	mov    DWORD PTR [eax],0x0
/home/yogi/NetBeansProjects/fatLib/../chrisOS/src/fat/fat_access.c:760
    dirls->offset = 0;
    1255:	8b 45 0c             	mov    eax,DWORD PTR [ebp+0xc]
    1258:	c6 40 08 00          	mov    BYTE PTR [eax+0x8],0x0
/home/yogi/NetBeansProjects/fatLib/../chrisOS/src/fat/fat_access.c:761
}
    125c:	90                   	nop
    125d:	5d                   	pop    ebp
    125e:	c3                   	ret    

0000125f <fatfs_list_directory_next>:
fatfs_list_directory_next():
/home/yogi/NetBeansProjects/fatLib/../chrisOS/src/fat/fat_access.c:769
// fatfs_list_directory_next: Get the next entry in the directory.
// Returns: 1 = found, 0 = end of listing
//-----------------------------------------------------------------------------
#if FATFS_DIR_LIST_SUPPORT
int fatfs_list_directory_next(struct fatfs *fs, struct fs_dir_list_status *dirls, struct fs_dir_ent *entry)
{
    125f:	55                   	push   ebp
    1260:	89 e5                	mov    ebp,esp
    1262:	53                   	push   ebx
    1263:	81 ec 34 01 00 00    	sub    esp,0x134
    1269:	e8 8c 5c 00 00       	call   6efa <__x86.get_pc_thunk.bx>
    126e:	81 c3 ba 9c 00 00    	add    ebx,0x9cba
/home/yogi/NetBeansProjects/fatLib/../chrisOS/src/fat/fat_access.c:773
    uint8 i,item;
    uint16 recordoffset;
    struct fat_dir_entry *directoryEntry;
    char *long_filename = NULL;
    1274:	c7 45 ec 00 00 00 00 	mov    DWORD PTR [ebp-0x14],0x0
/home/yogi/NetBeansProjects/fatLib/../chrisOS/src/fat/fat_access.c:776
    char short_filename[13];
    struct lfn_cache lfn;
    int dotRequired = 0;
    127b:	c7 45 f0 00 00 00 00 	mov    DWORD PTR [ebp-0x10],0x0
/home/yogi/NetBeansProjects/fatLib/../chrisOS/src/fat/fat_access.c:777
    int result = 0;
    1282:	c7 45 e8 00 00 00 00 	mov    DWORD PTR [ebp-0x18],0x0
/home/yogi/NetBeansProjects/fatLib/../chrisOS/src/fat/fat_access.c:780

    // Initialise LFN cache first
    fatfs_lfn_cache_init(&lfn, 0);
    1289:	83 ec 08             	sub    esp,0x8
    128c:	6a 00                	push   0x0
    128e:	8d 85 cd fe ff ff    	lea    eax,[ebp-0x133]
    1294:	50                   	push   eax
    1295:	e8 46 60 00 00       	call   72e0 <__x86.get_pc_thunk.bx+0x3e6>
    129a:	83 c4 10             	add    esp,0x10
/home/yogi/NetBeansProjects/fatLib/../chrisOS/src/fat/fat_access.c:785

    while (1)
    {
        // If data read OK
        if (fatfs_sector_reader(fs, dirls->cluster, dirls->sector, 0))
    129d:	8b 45 0c             	mov    eax,DWORD PTR [ebp+0xc]
    12a0:	8b 10                	mov    edx,DWORD PTR [eax]
    12a2:	8b 45 0c             	mov    eax,DWORD PTR [ebp+0xc]
    12a5:	8b 40 04             	mov    eax,DWORD PTR [eax+0x4]
    12a8:	6a 00                	push   0x0
    12aa:	52                   	push   edx
    12ab:	50                   	push   eax
    12ac:	ff 75 08             	push   DWORD PTR [ebp+0x8]
    12af:	e8 dc 5f 00 00       	call   7290 <__x86.get_pc_thunk.bx+0x396>
    12b4:	83 c4 10             	add    esp,0x10
    12b7:	85 c0                	test   eax,eax
    12b9:	0f 84 56 04 00 00    	je     1715 <fatfs_list_directory_next+0x4b6>
/home/yogi/NetBeansProjects/fatLib/../chrisOS/src/fat/fat_access.c:788
        {
            // Maximum of 16 directory entries
            for (item = dirls->offset; item < FAT_DIR_ENTRIES_PER_SECTOR; item++)
    12bf:	8b 45 0c             	mov    eax,DWORD PTR [ebp+0xc]
    12c2:	0f b6 40 08          	movzx  eax,BYTE PTR [eax+0x8]
    12c6:	88 45 f6             	mov    BYTE PTR [ebp-0xa],al
    12c9:	e9 24 04 00 00       	jmp    16f2 <fatfs_list_directory_next+0x493>
/home/yogi/NetBeansProjects/fatLib/../chrisOS/src/fat/fat_access.c:791
            {
                // Increase directory offset
                recordoffset = FAT_DIR_ENTRY_SIZE * item;
    12ce:	0f b6 45 f6          	movzx  eax,BYTE PTR [ebp-0xa]
    12d2:	c1 e0 05             	shl    eax,0x5
    12d5:	66 89 45 e6          	mov    WORD PTR [ebp-0x1a],ax
/home/yogi/NetBeansProjects/fatLib/../chrisOS/src/fat/fat_access.c:794

                // Overlay directory entry over buffer
                directoryEntry = (struct fat_dir_entry*)(fs->currentsector.sector+recordoffset);
    12d9:	8b 45 08             	mov    eax,DWORD PTR [ebp+0x8]
    12dc:	8d 50 44             	lea    edx,[eax+0x44]
    12df:	0f b7 45 e6          	movzx  eax,WORD PTR [ebp-0x1a]
    12e3:	01 d0                	add    eax,edx
    12e5:	89 45 e0             	mov    DWORD PTR [ebp-0x20],eax
/home/yogi/NetBeansProjects/fatLib/../chrisOS/src/fat/fat_access.c:798

#if FATFS_INC_LFN_SUPPORT
                // Long File Name Text Found
                if ( fatfs_entry_lfn_text(directoryEntry) )
    12e8:	83 ec 0c             	sub    esp,0xc
    12eb:	ff 75 e0             	push   DWORD PTR [ebp-0x20]
    12ee:	e8 bd 5f 00 00       	call   72b0 <__x86.get_pc_thunk.bx+0x3b6>
    12f3:	83 c4 10             	add    esp,0x10
    12f6:	85 c0                	test   eax,eax
    12f8:	74 24                	je     131e <fatfs_list_directory_next+0xbf>
/home/yogi/NetBeansProjects/fatLib/../chrisOS/src/fat/fat_access.c:799
                    fatfs_lfn_cache_entry(&lfn, fs->currentsector.sector+recordoffset);
    12fa:	8b 45 08             	mov    eax,DWORD PTR [ebp+0x8]
    12fd:	8d 50 44             	lea    edx,[eax+0x44]
    1300:	0f b7 45 e6          	movzx  eax,WORD PTR [ebp-0x1a]
    1304:	01 d0                	add    eax,edx
    1306:	83 ec 08             	sub    esp,0x8
    1309:	50                   	push   eax
    130a:	8d 85 cd fe ff ff    	lea    eax,[ebp-0x133]
    1310:	50                   	push   eax
    1311:	e8 ba 5d 00 00       	call   70d0 <__x86.get_pc_thunk.bx+0x1d6>
    1316:	83 c4 10             	add    esp,0x10
    1319:	e9 ca 03 00 00       	jmp    16e8 <fatfs_list_directory_next+0x489>
/home/yogi/NetBeansProjects/fatLib/../chrisOS/src/fat/fat_access.c:802

                // If Invalid record found delete any long file name information collated
                else if ( fatfs_entry_lfn_invalid(directoryEntry) )
    131e:	83 ec 0c             	sub    esp,0xc
    1321:	ff 75 e0             	push   DWORD PTR [ebp-0x20]
    1324:	e8 97 5e 00 00       	call   71c0 <__x86.get_pc_thunk.bx+0x2c6>
    1329:	83 c4 10             	add    esp,0x10
    132c:	85 c0                	test   eax,eax
    132e:	74 19                	je     1349 <fatfs_list_directory_next+0xea>
/home/yogi/NetBeansProjects/fatLib/../chrisOS/src/fat/fat_access.c:803
                    fatfs_lfn_cache_init(&lfn, 0);
    1330:	83 ec 08             	sub    esp,0x8
    1333:	6a 00                	push   0x0
    1335:	8d 85 cd fe ff ff    	lea    eax,[ebp-0x133]
    133b:	50                   	push   eax
    133c:	e8 9f 5f 00 00       	call   72e0 <__x86.get_pc_thunk.bx+0x3e6>
    1341:	83 c4 10             	add    esp,0x10
    1344:	e9 9f 03 00 00       	jmp    16e8 <fatfs_list_directory_next+0x489>
/home/yogi/NetBeansProjects/fatLib/../chrisOS/src/fat/fat_access.c:806

                // Normal SFN Entry and Long text exists
                else if (fatfs_entry_lfn_exists(&lfn, directoryEntry) )
    1349:	83 ec 08             	sub    esp,0x8
    134c:	ff 75 e0             	push   DWORD PTR [ebp-0x20]
    134f:	8d 85 cd fe ff ff    	lea    eax,[ebp-0x133]
    1355:	50                   	push   eax
    1356:	e8 c5 5e 00 00       	call   7220 <__x86.get_pc_thunk.bx+0x326>
    135b:	83 c4 10             	add    esp,0x10
    135e:	85 c0                	test   eax,eax
    1360:	0f 84 67 01 00 00    	je     14cd <fatfs_list_directory_next+0x26e>
/home/yogi/NetBeansProjects/fatLib/../chrisOS/src/fat/fat_access.c:809
                {
                    // Get text
                    long_filename = fatfs_lfn_cache_get(&lfn);
    1366:	83 ec 0c             	sub    esp,0xc
    1369:	8d 85 cd fe ff ff    	lea    eax,[ebp-0x133]
    136f:	50                   	push   eax
    1370:	e8 0b 5e 00 00       	call   7180 <__x86.get_pc_thunk.bx+0x286>
    1375:	83 c4 10             	add    esp,0x10
    1378:	89 45 ec             	mov    DWORD PTR [ebp-0x14],eax
/home/yogi/NetBeansProjects/fatLib/../chrisOS/src/fat/fat_access.c:810
                    strncpy(entry->filename, long_filename, FATFS_MAX_LONG_FILENAME-1);
    137b:	8b 45 10             	mov    eax,DWORD PTR [ebp+0x10]
    137e:	83 ec 04             	sub    esp,0x4
    1381:	6a 7f                	push   0x7f
    1383:	ff 75 ec             	push   DWORD PTR [ebp-0x14]
    1386:	50                   	push   eax
    1387:	e8 04 5e 00 00       	call   7190 <__x86.get_pc_thunk.bx+0x296>
    138c:	83 c4 10             	add    esp,0x10
/home/yogi/NetBeansProjects/fatLib/../chrisOS/src/fat/fat_access.c:812

                    if (fatfs_entry_is_dir(directoryEntry))
    138f:	83 ec 0c             	sub    esp,0xc
    1392:	ff 75 e0             	push   DWORD PTR [ebp-0x20]
    1395:	e8 56 5d 00 00       	call   70f0 <__x86.get_pc_thunk.bx+0x1f6>
    139a:	83 c4 10             	add    esp,0x10
    139d:	85 c0                	test   eax,eax
    139f:	74 0c                	je     13ad <fatfs_list_directory_next+0x14e>
/home/yogi/NetBeansProjects/fatLib/../chrisOS/src/fat/fat_access.c:813
                        entry->is_dir = 1;
    13a1:	8b 45 10             	mov    eax,DWORD PTR [ebp+0x10]
    13a4:	c6 80 80 00 00 00 01 	mov    BYTE PTR [eax+0x80],0x1
    13ab:	eb 0a                	jmp    13b7 <fatfs_list_directory_next+0x158>
/home/yogi/NetBeansProjects/fatLib/../chrisOS/src/fat/fat_access.c:815
                    else
                        entry->is_dir = 0;
    13ad:	8b 45 10             	mov    eax,DWORD PTR [ebp+0x10]
    13b0:	c6 80 80 00 00 00 00 	mov    BYTE PTR [eax+0x80],0x0
/home/yogi/NetBeansProjects/fatLib/../chrisOS/src/fat/fat_access.c:819

#if FATFS_INC_TIME_DATE_SUPPORT
                    // Get time / dates
                    entry->create_time = ((uint16)directoryEntry->CrtTime[1] << 8) | directoryEntry->CrtTime[0];
    13b7:	8b 45 e0             	mov    eax,DWORD PTR [ebp-0x20]
    13ba:	0f b6 40 0f          	movzx  eax,BYTE PTR [eax+0xf]
    13be:	0f b6 c0             	movzx  eax,al
    13c1:	c1 e0 08             	shl    eax,0x8
    13c4:	89 c2                	mov    edx,eax
    13c6:	8b 45 e0             	mov    eax,DWORD PTR [ebp-0x20]
    13c9:	0f b6 40 0e          	movzx  eax,BYTE PTR [eax+0xe]
    13cd:	0f b6 c0             	movzx  eax,al
    13d0:	09 d0                	or     eax,edx
    13d2:	89 c2                	mov    edx,eax
    13d4:	8b 45 10             	mov    eax,DWORD PTR [ebp+0x10]
    13d7:	66 89 90 94 00 00 00 	mov    WORD PTR [eax+0x94],dx
/home/yogi/NetBeansProjects/fatLib/../chrisOS/src/fat/fat_access.c:820
                    entry->create_date = ((uint16)directoryEntry->CrtDate[1] << 8) | directoryEntry->CrtDate[0];
    13de:	8b 45 e0             	mov    eax,DWORD PTR [ebp-0x20]
    13e1:	0f b6 40 11          	movzx  eax,BYTE PTR [eax+0x11]
    13e5:	0f b6 c0             	movzx  eax,al
    13e8:	c1 e0 08             	shl    eax,0x8
    13eb:	89 c2                	mov    edx,eax
    13ed:	8b 45 e0             	mov    eax,DWORD PTR [ebp-0x20]
    13f0:	0f b6 40 10          	movzx  eax,BYTE PTR [eax+0x10]
    13f4:	0f b6 c0             	movzx  eax,al
    13f7:	09 d0                	or     eax,edx
    13f9:	89 c2                	mov    edx,eax
    13fb:	8b 45 10             	mov    eax,DWORD PTR [ebp+0x10]
    13fe:	66 89 90 92 00 00 00 	mov    WORD PTR [eax+0x92],dx
/home/yogi/NetBeansProjects/fatLib/../chrisOS/src/fat/fat_access.c:821
                    entry->access_date = ((uint16)directoryEntry->LstAccDate[1] << 8) | directoryEntry->LstAccDate[0];
    1405:	8b 45 e0             	mov    eax,DWORD PTR [ebp-0x20]
    1408:	0f b6 40 13          	movzx  eax,BYTE PTR [eax+0x13]
    140c:	0f b6 c0             	movzx  eax,al
    140f:	c1 e0 08             	shl    eax,0x8
    1412:	89 c2                	mov    edx,eax
    1414:	8b 45 e0             	mov    eax,DWORD PTR [ebp-0x20]
    1417:	0f b6 40 12          	movzx  eax,BYTE PTR [eax+0x12]
    141b:	0f b6 c0             	movzx  eax,al
    141e:	09 d0                	or     eax,edx
    1420:	89 c2                	mov    edx,eax
    1422:	8b 45 10             	mov    eax,DWORD PTR [ebp+0x10]
    1425:	66 89 90 8c 00 00 00 	mov    WORD PTR [eax+0x8c],dx
/home/yogi/NetBeansProjects/fatLib/../chrisOS/src/fat/fat_access.c:822
                    entry->write_time  = ((uint16)directoryEntry->WrtTime[1] << 8) | directoryEntry->WrtTime[0];
    142c:	8b 45 e0             	mov    eax,DWORD PTR [ebp-0x20]
    142f:	0f b6 40 17          	movzx  eax,BYTE PTR [eax+0x17]
    1433:	0f b6 c0             	movzx  eax,al
    1436:	c1 e0 08             	shl    eax,0x8
    1439:	89 c2                	mov    edx,eax
    143b:	8b 45 e0             	mov    eax,DWORD PTR [ebp-0x20]
    143e:	0f b6 40 16          	movzx  eax,BYTE PTR [eax+0x16]
    1442:	0f b6 c0             	movzx  eax,al
    1445:	09 d0                	or     eax,edx
    1447:	89 c2                	mov    edx,eax
    1449:	8b 45 10             	mov    eax,DWORD PTR [ebp+0x10]
    144c:	66 89 90 8e 00 00 00 	mov    WORD PTR [eax+0x8e],dx
/home/yogi/NetBeansProjects/fatLib/../chrisOS/src/fat/fat_access.c:823
                    entry->write_date  = ((uint16)directoryEntry->WrtDate[1] << 8) | directoryEntry->WrtDate[0];
    1453:	8b 45 e0             	mov    eax,DWORD PTR [ebp-0x20]
    1456:	0f b6 40 19          	movzx  eax,BYTE PTR [eax+0x19]
    145a:	0f b6 c0             	movzx  eax,al
    145d:	c1 e0 08             	shl    eax,0x8
    1460:	89 c2                	mov    edx,eax
    1462:	8b 45 e0             	mov    eax,DWORD PTR [ebp-0x20]
    1465:	0f b6 40 18          	movzx  eax,BYTE PTR [eax+0x18]
    1469:	0f b6 c0             	movzx  eax,al
    146c:	09 d0                	or     eax,edx
    146e:	89 c2                	mov    edx,eax
    1470:	8b 45 10             	mov    eax,DWORD PTR [ebp+0x10]
    1473:	66 89 90 90 00 00 00 	mov    WORD PTR [eax+0x90],dx
/home/yogi/NetBeansProjects/fatLib/../chrisOS/src/fat/fat_access.c:826
#endif

                    entry->size = FAT_HTONL(directoryEntry->FileSize);
    147a:	8b 45 e0             	mov    eax,DWORD PTR [ebp-0x20]
    147d:	8b 50 1c             	mov    edx,DWORD PTR [eax+0x1c]
    1480:	8b 45 10             	mov    eax,DWORD PTR [ebp+0x10]
    1483:	89 90 88 00 00 00    	mov    DWORD PTR [eax+0x88],edx
/home/yogi/NetBeansProjects/fatLib/../chrisOS/src/fat/fat_access.c:827
                    entry->cluster = (FAT_HTONS(directoryEntry->FstClusHI)<<16) | FAT_HTONS(directoryEntry->FstClusLO);
    1489:	8b 45 e0             	mov    eax,DWORD PTR [ebp-0x20]
    148c:	0f b7 40 14          	movzx  eax,WORD PTR [eax+0x14]
    1490:	0f b7 c0             	movzx  eax,ax
    1493:	c1 e0 10             	shl    eax,0x10
    1496:	89 c2                	mov    edx,eax
    1498:	8b 45 e0             	mov    eax,DWORD PTR [ebp-0x20]
    149b:	0f b7 40 1a          	movzx  eax,WORD PTR [eax+0x1a]
    149f:	0f b7 c0             	movzx  eax,ax
    14a2:	09 d0                	or     eax,edx
    14a4:	89 c2                	mov    edx,eax
    14a6:	8b 45 10             	mov    eax,DWORD PTR [ebp+0x10]
    14a9:	89 90 84 00 00 00    	mov    DWORD PTR [eax+0x84],edx
/home/yogi/NetBeansProjects/fatLib/../chrisOS/src/fat/fat_access.c:830

                    // Next starting position
                    dirls->offset = item + 1;
    14af:	0f b6 45 f6          	movzx  eax,BYTE PTR [ebp-0xa]
    14b3:	8d 50 01             	lea    edx,[eax+0x1]
    14b6:	8b 45 0c             	mov    eax,DWORD PTR [ebp+0xc]
    14b9:	88 50 08             	mov    BYTE PTR [eax+0x8],dl
/home/yogi/NetBeansProjects/fatLib/../chrisOS/src/fat/fat_access.c:831
                    result = 1;
    14bc:	c7 45 e8 01 00 00 00 	mov    DWORD PTR [ebp-0x18],0x1
/home/yogi/NetBeansProjects/fatLib/../chrisOS/src/fat/fat_access.c:832
                    return 1;
    14c3:	b8 01 00 00 00       	mov    eax,0x1
    14c8:	e9 4c 02 00 00       	jmp    1719 <fatfs_list_directory_next+0x4ba>
/home/yogi/NetBeansProjects/fatLib/../chrisOS/src/fat/fat_access.c:837
                }
                // Normal Entry, only 8.3 Text
                else
#endif
                if ( fatfs_entry_sfn_only(directoryEntry) )
    14cd:	83 ec 0c             	sub    esp,0xc
    14d0:	ff 75 e0             	push   DWORD PTR [ebp-0x20]
    14d3:	e8 68 5e 00 00       	call   7340 <__x86.get_pc_thunk.bx+0x446>
    14d8:	83 c4 10             	add    esp,0x10
    14db:	85 c0                	test   eax,eax
    14dd:	0f 84 05 02 00 00    	je     16e8 <fatfs_list_directory_next+0x489>
/home/yogi/NetBeansProjects/fatLib/../chrisOS/src/fat/fat_access.c:839
                {
                    fatfs_lfn_cache_init(&lfn, 0);
    14e3:	83 ec 08             	sub    esp,0x8
    14e6:	6a 00                	push   0x0
    14e8:	8d 85 cd fe ff ff    	lea    eax,[ebp-0x133]
    14ee:	50                   	push   eax
    14ef:	e8 ec 5d 00 00       	call   72e0 <__x86.get_pc_thunk.bx+0x3e6>
    14f4:	83 c4 10             	add    esp,0x10
/home/yogi/NetBeansProjects/fatLib/../chrisOS/src/fat/fat_access.c:841

                    memset(short_filename, 0, sizeof(short_filename));
    14f7:	83 ec 04             	sub    esp,0x4
    14fa:	6a 0d                	push   0xd
    14fc:	6a 00                	push   0x0
    14fe:	8d 45 d3             	lea    eax,[ebp-0x2d]
    1501:	50                   	push   eax
    1502:	e8 39 5d 00 00       	call   7240 <__x86.get_pc_thunk.bx+0x346>
    1507:	83 c4 10             	add    esp,0x10
/home/yogi/NetBeansProjects/fatLib/../chrisOS/src/fat/fat_access.c:844

                    // Copy name to string
                    for (i=0; i<8; i++)
    150a:	c6 45 f7 00          	mov    BYTE PTR [ebp-0x9],0x0
    150e:	eb 1d                	jmp    152d <fatfs_list_directory_next+0x2ce>
/home/yogi/NetBeansProjects/fatLib/../chrisOS/src/fat/fat_access.c:845 (discriminator 3)
                        short_filename[i] = directoryEntry->Name[i];
    1510:	0f b6 45 f7          	movzx  eax,BYTE PTR [ebp-0x9]
    1514:	0f b6 55 f7          	movzx  edx,BYTE PTR [ebp-0x9]
    1518:	8b 4d e0             	mov    ecx,DWORD PTR [ebp-0x20]
    151b:	0f b6 14 11          	movzx  edx,BYTE PTR [ecx+edx*1]
    151f:	88 54 05 d3          	mov    BYTE PTR [ebp+eax*1-0x2d],dl
/home/yogi/NetBeansProjects/fatLib/../chrisOS/src/fat/fat_access.c:844 (discriminator 3)
                    fatfs_lfn_cache_init(&lfn, 0);

                    memset(short_filename, 0, sizeof(short_filename));

                    // Copy name to string
                    for (i=0; i<8; i++)
    1523:	0f b6 45 f7          	movzx  eax,BYTE PTR [ebp-0x9]
    1527:	83 c0 01             	add    eax,0x1
    152a:	88 45 f7             	mov    BYTE PTR [ebp-0x9],al
/home/yogi/NetBeansProjects/fatLib/../chrisOS/src/fat/fat_access.c:844 (discriminator 1)
    152d:	80 7d f7 07          	cmp    BYTE PTR [ebp-0x9],0x7
    1531:	76 dd                	jbe    1510 <fatfs_list_directory_next+0x2b1>
/home/yogi/NetBeansProjects/fatLib/../chrisOS/src/fat/fat_access.c:848
                        short_filename[i] = directoryEntry->Name[i];

                    // Extension
                    dotRequired = 0;
    1533:	c7 45 f0 00 00 00 00 	mov    DWORD PTR [ebp-0x10],0x0
/home/yogi/NetBeansProjects/fatLib/../chrisOS/src/fat/fat_access.c:849
                    for (i=8; i<11; i++)
    153a:	c6 45 f7 08          	mov    BYTE PTR [ebp-0x9],0x8
    153e:	eb 36                	jmp    1576 <fatfs_list_directory_next+0x317>
/home/yogi/NetBeansProjects/fatLib/../chrisOS/src/fat/fat_access.c:851
                    {
                        short_filename[i+1] = directoryEntry->Name[i];
    1540:	0f b6 45 f7          	movzx  eax,BYTE PTR [ebp-0x9]
    1544:	8d 48 01             	lea    ecx,[eax+0x1]
    1547:	0f b6 45 f7          	movzx  eax,BYTE PTR [ebp-0x9]
    154b:	8b 55 e0             	mov    edx,DWORD PTR [ebp-0x20]
    154e:	0f b6 04 02          	movzx  eax,BYTE PTR [edx+eax*1]
    1552:	88 44 0d d3          	mov    BYTE PTR [ebp+ecx*1-0x2d],al
/home/yogi/NetBeansProjects/fatLib/../chrisOS/src/fat/fat_access.c:852
                        if (directoryEntry->Name[i] != ' ')
    1556:	0f b6 45 f7          	movzx  eax,BYTE PTR [ebp-0x9]
    155a:	8b 55 e0             	mov    edx,DWORD PTR [ebp-0x20]
    155d:	0f b6 04 02          	movzx  eax,BYTE PTR [edx+eax*1]
    1561:	3c 20                	cmp    al,0x20
    1563:	74 07                	je     156c <fatfs_list_directory_next+0x30d>
/home/yogi/NetBeansProjects/fatLib/../chrisOS/src/fat/fat_access.c:853
                            dotRequired = 1;
    1565:	c7 45 f0 01 00 00 00 	mov    DWORD PTR [ebp-0x10],0x1
/home/yogi/NetBeansProjects/fatLib/../chrisOS/src/fat/fat_access.c:849 (discriminator 2)
                    for (i=0; i<8; i++)
                        short_filename[i] = directoryEntry->Name[i];

                    // Extension
                    dotRequired = 0;
                    for (i=8; i<11; i++)
    156c:	0f b6 45 f7          	movzx  eax,BYTE PTR [ebp-0x9]
    1570:	83 c0 01             	add    eax,0x1
    1573:	88 45 f7             	mov    BYTE PTR [ebp-0x9],al
/home/yogi/NetBeansProjects/fatLib/../chrisOS/src/fat/fat_access.c:849 (discriminator 1)
    1576:	80 7d f7 0a          	cmp    BYTE PTR [ebp-0x9],0xa
    157a:	76 c4                	jbe    1540 <fatfs_list_directory_next+0x2e1>
/home/yogi/NetBeansProjects/fatLib/../chrisOS/src/fat/fat_access.c:857
                        if (directoryEntry->Name[i] != ' ')
                            dotRequired = 1;
                    }

                    // Dot only required if extension present
                    if (dotRequired)
    157c:	83 7d f0 00          	cmp    DWORD PTR [ebp-0x10],0x0
    1580:	74 14                	je     1596 <fatfs_list_directory_next+0x337>
/home/yogi/NetBeansProjects/fatLib/../chrisOS/src/fat/fat_access.c:860
                    {
                        // If not . or .. entry
                        if (short_filename[0]!='.')
    1582:	0f b6 45 d3          	movzx  eax,BYTE PTR [ebp-0x2d]
    1586:	3c 2e                	cmp    al,0x2e
    1588:	74 06                	je     1590 <fatfs_list_directory_next+0x331>
/home/yogi/NetBeansProjects/fatLib/../chrisOS/src/fat/fat_access.c:861
                            short_filename[8] = '.';
    158a:	c6 45 db 2e          	mov    BYTE PTR [ebp-0x25],0x2e
    158e:	eb 0a                	jmp    159a <fatfs_list_directory_next+0x33b>
/home/yogi/NetBeansProjects/fatLib/../chrisOS/src/fat/fat_access.c:863
                        else
                            short_filename[8] = ' ';
    1590:	c6 45 db 20          	mov    BYTE PTR [ebp-0x25],0x20
    1594:	eb 04                	jmp    159a <fatfs_list_directory_next+0x33b>
/home/yogi/NetBeansProjects/fatLib/../chrisOS/src/fat/fat_access.c:866
                    }
                    else
                        short_filename[8] = ' ';
    1596:	c6 45 db 20          	mov    BYTE PTR [ebp-0x25],0x20
/home/yogi/NetBeansProjects/fatLib/../chrisOS/src/fat/fat_access.c:868

                    fatfs_get_sfn_display_name(entry->filename, short_filename);
    159a:	8b 45 10             	mov    eax,DWORD PTR [ebp+0x10]
    159d:	83 ec 08             	sub    esp,0x8
    15a0:	8d 55 d3             	lea    edx,[ebp-0x2d]
    15a3:	52                   	push   edx
    15a4:	50                   	push   eax
    15a5:	e8 86 5b 00 00       	call   7130 <__x86.get_pc_thunk.bx+0x236>
    15aa:	83 c4 10             	add    esp,0x10
/home/yogi/NetBeansProjects/fatLib/../chrisOS/src/fat/fat_access.c:870

                    if (fatfs_entry_is_dir(directoryEntry))
    15ad:	83 ec 0c             	sub    esp,0xc
    15b0:	ff 75 e0             	push   DWORD PTR [ebp-0x20]
    15b3:	e8 38 5b 00 00       	call   70f0 <__x86.get_pc_thunk.bx+0x1f6>
    15b8:	83 c4 10             	add    esp,0x10
    15bb:	85 c0                	test   eax,eax
    15bd:	74 0c                	je     15cb <fatfs_list_directory_next+0x36c>
/home/yogi/NetBeansProjects/fatLib/../chrisOS/src/fat/fat_access.c:871
                        entry->is_dir = 1;
    15bf:	8b 45 10             	mov    eax,DWORD PTR [ebp+0x10]
    15c2:	c6 80 80 00 00 00 01 	mov    BYTE PTR [eax+0x80],0x1
    15c9:	eb 0a                	jmp    15d5 <fatfs_list_directory_next+0x376>
/home/yogi/NetBeansProjects/fatLib/../chrisOS/src/fat/fat_access.c:873
                    else
                        entry->is_dir = 0;
    15cb:	8b 45 10             	mov    eax,DWORD PTR [ebp+0x10]
    15ce:	c6 80 80 00 00 00 00 	mov    BYTE PTR [eax+0x80],0x0
/home/yogi/NetBeansProjects/fatLib/../chrisOS/src/fat/fat_access.c:877

#if FATFS_INC_TIME_DATE_SUPPORT
                    // Get time / dates
                    entry->create_time = ((uint16)directoryEntry->CrtTime[1] << 8) | directoryEntry->CrtTime[0];
    15d5:	8b 45 e0             	mov    eax,DWORD PTR [ebp-0x20]
    15d8:	0f b6 40 0f          	movzx  eax,BYTE PTR [eax+0xf]
    15dc:	0f b6 c0             	movzx  eax,al
    15df:	c1 e0 08             	shl    eax,0x8
    15e2:	89 c2                	mov    edx,eax
    15e4:	8b 45 e0             	mov    eax,DWORD PTR [ebp-0x20]
    15e7:	0f b6 40 0e          	movzx  eax,BYTE PTR [eax+0xe]
    15eb:	0f b6 c0             	movzx  eax,al
    15ee:	09 d0                	or     eax,edx
    15f0:	89 c2                	mov    edx,eax
    15f2:	8b 45 10             	mov    eax,DWORD PTR [ebp+0x10]
    15f5:	66 89 90 94 00 00 00 	mov    WORD PTR [eax+0x94],dx
/home/yogi/NetBeansProjects/fatLib/../chrisOS/src/fat/fat_access.c:878
                    entry->create_date = ((uint16)directoryEntry->CrtDate[1] << 8) | directoryEntry->CrtDate[0];
    15fc:	8b 45 e0             	mov    eax,DWORD PTR [ebp-0x20]
    15ff:	0f b6 40 11          	movzx  eax,BYTE PTR [eax+0x11]
    1603:	0f b6 c0             	movzx  eax,al
    1606:	c1 e0 08             	shl    eax,0x8
    1609:	89 c2                	mov    edx,eax
    160b:	8b 45 e0             	mov    eax,DWORD PTR [ebp-0x20]
    160e:	0f b6 40 10          	movzx  eax,BYTE PTR [eax+0x10]
    1612:	0f b6 c0             	movzx  eax,al
    1615:	09 d0                	or     eax,edx
    1617:	89 c2                	mov    edx,eax
    1619:	8b 45 10             	mov    eax,DWORD PTR [ebp+0x10]
    161c:	66 89 90 92 00 00 00 	mov    WORD PTR [eax+0x92],dx
/home/yogi/NetBeansProjects/fatLib/../chrisOS/src/fat/fat_access.c:879
                    entry->access_date = ((uint16)directoryEntry->LstAccDate[1] << 8) | directoryEntry->LstAccDate[0];
    1623:	8b 45 e0             	mov    eax,DWORD PTR [ebp-0x20]
    1626:	0f b6 40 13          	movzx  eax,BYTE PTR [eax+0x13]
    162a:	0f b6 c0             	movzx  eax,al
    162d:	c1 e0 08             	shl    eax,0x8
    1630:	89 c2                	mov    edx,eax
    1632:	8b 45 e0             	mov    eax,DWORD PTR [ebp-0x20]
    1635:	0f b6 40 12          	movzx  eax,BYTE PTR [eax+0x12]
    1639:	0f b6 c0             	movzx  eax,al
    163c:	09 d0                	or     eax,edx
    163e:	89 c2                	mov    edx,eax
    1640:	8b 45 10             	mov    eax,DWORD PTR [ebp+0x10]
    1643:	66 89 90 8c 00 00 00 	mov    WORD PTR [eax+0x8c],dx
/home/yogi/NetBeansProjects/fatLib/../chrisOS/src/fat/fat_access.c:880
                    entry->write_time  = ((uint16)directoryEntry->WrtTime[1] << 8) | directoryEntry->WrtTime[0];
    164a:	8b 45 e0             	mov    eax,DWORD PTR [ebp-0x20]
    164d:	0f b6 40 17          	movzx  eax,BYTE PTR [eax+0x17]
    1651:	0f b6 c0             	movzx  eax,al
    1654:	c1 e0 08             	shl    eax,0x8
    1657:	89 c2                	mov    edx,eax
    1659:	8b 45 e0             	mov    eax,DWORD PTR [ebp-0x20]
    165c:	0f b6 40 16          	movzx  eax,BYTE PTR [eax+0x16]
    1660:	0f b6 c0             	movzx  eax,al
    1663:	09 d0                	or     eax,edx
    1665:	89 c2                	mov    edx,eax
    1667:	8b 45 10             	mov    eax,DWORD PTR [ebp+0x10]
    166a:	66 89 90 8e 00 00 00 	mov    WORD PTR [eax+0x8e],dx
/home/yogi/NetBeansProjects/fatLib/../chrisOS/src/fat/fat_access.c:881
                    entry->write_date  = ((uint16)directoryEntry->WrtDate[1] << 8) | directoryEntry->WrtDate[0];
    1671:	8b 45 e0             	mov    eax,DWORD PTR [ebp-0x20]
    1674:	0f b6 40 19          	movzx  eax,BYTE PTR [eax+0x19]
    1678:	0f b6 c0             	movzx  eax,al
    167b:	c1 e0 08             	shl    eax,0x8
    167e:	89 c2                	mov    edx,eax
    1680:	8b 45 e0             	mov    eax,DWORD PTR [ebp-0x20]
    1683:	0f b6 40 18          	movzx  eax,BYTE PTR [eax+0x18]
    1687:	0f b6 c0             	movzx  eax,al
    168a:	09 d0                	or     eax,edx
    168c:	89 c2                	mov    edx,eax
    168e:	8b 45 10             	mov    eax,DWORD PTR [ebp+0x10]
    1691:	66 89 90 90 00 00 00 	mov    WORD PTR [eax+0x90],dx
/home/yogi/NetBeansProjects/fatLib/../chrisOS/src/fat/fat_access.c:884
#endif

                    entry->size = FAT_HTONL(directoryEntry->FileSize);
    1698:	8b 45 e0             	mov    eax,DWORD PTR [ebp-0x20]
    169b:	8b 50 1c             	mov    edx,DWORD PTR [eax+0x1c]
    169e:	8b 45 10             	mov    eax,DWORD PTR [ebp+0x10]
    16a1:	89 90 88 00 00 00    	mov    DWORD PTR [eax+0x88],edx
/home/yogi/NetBeansProjects/fatLib/../chrisOS/src/fat/fat_access.c:885
                    entry->cluster = (FAT_HTONS(directoryEntry->FstClusHI)<<16) | FAT_HTONS(directoryEntry->FstClusLO);
    16a7:	8b 45 e0             	mov    eax,DWORD PTR [ebp-0x20]
    16aa:	0f b7 40 14          	movzx  eax,WORD PTR [eax+0x14]
    16ae:	0f b7 c0             	movzx  eax,ax
    16b1:	c1 e0 10             	shl    eax,0x10
    16b4:	89 c2                	mov    edx,eax
    16b6:	8b 45 e0             	mov    eax,DWORD PTR [ebp-0x20]
    16b9:	0f b7 40 1a          	movzx  eax,WORD PTR [eax+0x1a]
    16bd:	0f b7 c0             	movzx  eax,ax
    16c0:	09 d0                	or     eax,edx
    16c2:	89 c2                	mov    edx,eax
    16c4:	8b 45 10             	mov    eax,DWORD PTR [ebp+0x10]
    16c7:	89 90 84 00 00 00    	mov    DWORD PTR [eax+0x84],edx
/home/yogi/NetBeansProjects/fatLib/../chrisOS/src/fat/fat_access.c:888

                    // Next starting position
                    dirls->offset = item + 1;
    16cd:	0f b6 45 f6          	movzx  eax,BYTE PTR [ebp-0xa]
    16d1:	8d 50 01             	lea    edx,[eax+0x1]
    16d4:	8b 45 0c             	mov    eax,DWORD PTR [ebp+0xc]
    16d7:	88 50 08             	mov    BYTE PTR [eax+0x8],dl
/home/yogi/NetBeansProjects/fatLib/../chrisOS/src/fat/fat_access.c:889
                    result = 1;
    16da:	c7 45 e8 01 00 00 00 	mov    DWORD PTR [ebp-0x18],0x1
/home/yogi/NetBeansProjects/fatLib/../chrisOS/src/fat/fat_access.c:890
                    return 1;
    16e1:	b8 01 00 00 00       	mov    eax,0x1
    16e6:	eb 31                	jmp    1719 <fatfs_list_directory_next+0x4ba>
/home/yogi/NetBeansProjects/fatLib/../chrisOS/src/fat/fat_access.c:788 (discriminator 2)
    {
        // If data read OK
        if (fatfs_sector_reader(fs, dirls->cluster, dirls->sector, 0))
        {
            // Maximum of 16 directory entries
            for (item = dirls->offset; item < FAT_DIR_ENTRIES_PER_SECTOR; item++)
    16e8:	0f b6 45 f6          	movzx  eax,BYTE PTR [ebp-0xa]
    16ec:	83 c0 01             	add    eax,0x1
    16ef:	88 45 f6             	mov    BYTE PTR [ebp-0xa],al
/home/yogi/NetBeansProjects/fatLib/../chrisOS/src/fat/fat_access.c:788 (discriminator 1)
    16f2:	80 7d f6 0f          	cmp    BYTE PTR [ebp-0xa],0xf
    16f6:	0f 86 d2 fb ff ff    	jbe    12ce <fatfs_list_directory_next+0x6f>
/home/yogi/NetBeansProjects/fatLib/../chrisOS/src/fat/fat_access.c:895
                    return 1;
                }
            }// end of for

            // If reached end of the dir move onto next sector
            dirls->sector++;
    16fc:	8b 45 0c             	mov    eax,DWORD PTR [ebp+0xc]
    16ff:	8b 00                	mov    eax,DWORD PTR [eax]
    1701:	8d 50 01             	lea    edx,[eax+0x1]
    1704:	8b 45 0c             	mov    eax,DWORD PTR [ebp+0xc]
    1707:	89 10                	mov    DWORD PTR [eax],edx
/home/yogi/NetBeansProjects/fatLib/../chrisOS/src/fat/fat_access.c:896
            dirls->offset = 0;
    1709:	8b 45 0c             	mov    eax,DWORD PTR [ebp+0xc]
    170c:	c6 40 08 00          	mov    BYTE PTR [eax+0x8],0x0
/home/yogi/NetBeansProjects/fatLib/../chrisOS/src/fat/fat_access.c:900
        }
        else
            break;
    }
    1710:	e9 88 fb ff ff       	jmp    129d <fatfs_list_directory_next+0x3e>
/home/yogi/NetBeansProjects/fatLib/../chrisOS/src/fat/fat_access.c:899
            // If reached end of the dir move onto next sector
            dirls->sector++;
            dirls->offset = 0;
        }
        else
            break;
    1715:	90                   	nop
/home/yogi/NetBeansProjects/fatLib/../chrisOS/src/fat/fat_access.c:902
    }

    return result;
    1716:	8b 45 e8             	mov    eax,DWORD PTR [ebp-0x18]
/home/yogi/NetBeansProjects/fatLib/../chrisOS/src/fat/fat_access.c:903 (discriminator 1)
}
    1719:	8b 5d fc             	mov    ebx,DWORD PTR [ebp-0x4]
    171c:	c9                   	leave  
    171d:	c3                   	ret    
    171e:	66 90                	xchg   ax,ax

00001720 <fat_list_init>:
fat_list_init():
/home/yogi/NetBeansProjects/fatLib/../chrisOS/src/fat/fat_list.h:47

//-----------------------------------------------------------------
// fat_list_init:
//-----------------------------------------------------------------
static FAT_INLINE void fat_list_init(struct fat_list *list)
{
    1720:	55                   	push   ebp
    1721:	89 e5                	mov    ebp,esp
    1723:	e8 ce 57 00 00       	call   6ef6 <__x86.get_pc_thunk.ax>
    1728:	05 00 98 00 00       	add    eax,0x9800
/home/yogi/NetBeansProjects/fatLib/../chrisOS/src/fat/fat_list.h:50
    FAT_ASSERT(list);

    list->head = list->tail = 0;
    172d:	8b 45 08             	mov    eax,DWORD PTR [ebp+0x8]
    1730:	c7 40 04 00 00 00 00 	mov    DWORD PTR [eax+0x4],0x0
    1737:	8b 45 08             	mov    eax,DWORD PTR [ebp+0x8]
    173a:	8b 50 04             	mov    edx,DWORD PTR [eax+0x4]
    173d:	8b 45 08             	mov    eax,DWORD PTR [ebp+0x8]
    1740:	89 10                	mov    DWORD PTR [eax],edx
/home/yogi/NetBeansProjects/fatLib/../chrisOS/src/fat/fat_list.h:51
}
    1742:	90                   	nop
    1743:	5d                   	pop    ebp
    1744:	c3                   	ret    

00001745 <fat_list_remove>:
fat_list_remove():
/home/yogi/NetBeansProjects/fatLib/../chrisOS/src/fat/fat_list.h:56
//-----------------------------------------------------------------
// fat_list_remove:
//-----------------------------------------------------------------
static FAT_INLINE void fat_list_remove(struct fat_list *list, struct fat_node *node)
{
    1745:	55                   	push   ebp
    1746:	89 e5                	mov    ebp,esp
    1748:	e8 a9 57 00 00       	call   6ef6 <__x86.get_pc_thunk.ax>
    174d:	05 db 97 00 00       	add    eax,0x97db
/home/yogi/NetBeansProjects/fatLib/../chrisOS/src/fat/fat_list.h:60
    FAT_ASSERT(list);
    FAT_ASSERT(node);

    if(!node->previous)
    1752:	8b 45 0c             	mov    eax,DWORD PTR [ebp+0xc]
    1755:	8b 00                	mov    eax,DWORD PTR [eax]
    1757:	85 c0                	test   eax,eax
    1759:	75 0d                	jne    1768 <fat_list_remove+0x23>
/home/yogi/NetBeansProjects/fatLib/../chrisOS/src/fat/fat_list.h:61
        list->head = node->next;
    175b:	8b 45 0c             	mov    eax,DWORD PTR [ebp+0xc]
    175e:	8b 50 04             	mov    edx,DWORD PTR [eax+0x4]
    1761:	8b 45 08             	mov    eax,DWORD PTR [ebp+0x8]
    1764:	89 10                	mov    DWORD PTR [eax],edx
    1766:	eb 0e                	jmp    1776 <fat_list_remove+0x31>
/home/yogi/NetBeansProjects/fatLib/../chrisOS/src/fat/fat_list.h:63
    else
        node->previous->next = node->next;
    1768:	8b 45 0c             	mov    eax,DWORD PTR [ebp+0xc]
    176b:	8b 00                	mov    eax,DWORD PTR [eax]
    176d:	8b 55 0c             	mov    edx,DWORD PTR [ebp+0xc]
    1770:	8b 52 04             	mov    edx,DWORD PTR [edx+0x4]
    1773:	89 50 04             	mov    DWORD PTR [eax+0x4],edx
/home/yogi/NetBeansProjects/fatLib/../chrisOS/src/fat/fat_list.h:65

    if(!node->next)
    1776:	8b 45 0c             	mov    eax,DWORD PTR [ebp+0xc]
    1779:	8b 40 04             	mov    eax,DWORD PTR [eax+0x4]
    177c:	85 c0                	test   eax,eax
    177e:	75 0d                	jne    178d <fat_list_remove+0x48>
/home/yogi/NetBeansProjects/fatLib/../chrisOS/src/fat/fat_list.h:66
        list->tail = node->previous;
    1780:	8b 45 0c             	mov    eax,DWORD PTR [ebp+0xc]
    1783:	8b 10                	mov    edx,DWORD PTR [eax]
    1785:	8b 45 08             	mov    eax,DWORD PTR [ebp+0x8]
    1788:	89 50 04             	mov    DWORD PTR [eax+0x4],edx
/home/yogi/NetBeansProjects/fatLib/../chrisOS/src/fat/fat_list.h:69
    else
        node->next->previous = node->previous;
}
    178b:	eb 0d                	jmp    179a <fat_list_remove+0x55>
/home/yogi/NetBeansProjects/fatLib/../chrisOS/src/fat/fat_list.h:68
        node->previous->next = node->next;

    if(!node->next)
        list->tail = node->previous;
    else
        node->next->previous = node->previous;
    178d:	8b 45 0c             	mov    eax,DWORD PTR [ebp+0xc]
    1790:	8b 40 04             	mov    eax,DWORD PTR [eax+0x4]
    1793:	8b 55 0c             	mov    edx,DWORD PTR [ebp+0xc]
    1796:	8b 12                	mov    edx,DWORD PTR [edx]
    1798:	89 10                	mov    DWORD PTR [eax],edx
/home/yogi/NetBeansProjects/fatLib/../chrisOS/src/fat/fat_list.h:69
}
    179a:	90                   	nop
    179b:	5d                   	pop    ebp
    179c:	c3                   	ret    

0000179d <fat_list_insert_after>:
fat_list_insert_after():
/home/yogi/NetBeansProjects/fatLib/../chrisOS/src/fat/fat_list.h:74
//-----------------------------------------------------------------
// fat_list_insert_after:
//-----------------------------------------------------------------
static FAT_INLINE void fat_list_insert_after(struct fat_list *list, struct fat_node *node, struct fat_node *new_node)
{
    179d:	55                   	push   ebp
    179e:	89 e5                	mov    ebp,esp
    17a0:	e8 51 57 00 00       	call   6ef6 <__x86.get_pc_thunk.ax>
    17a5:	05 83 97 00 00       	add    eax,0x9783
/home/yogi/NetBeansProjects/fatLib/../chrisOS/src/fat/fat_list.h:79
    FAT_ASSERT(list);
    FAT_ASSERT(node);
    FAT_ASSERT(new_node);

    new_node->previous = node;
    17aa:	8b 45 10             	mov    eax,DWORD PTR [ebp+0x10]
    17ad:	8b 55 0c             	mov    edx,DWORD PTR [ebp+0xc]
    17b0:	89 10                	mov    DWORD PTR [eax],edx
/home/yogi/NetBeansProjects/fatLib/../chrisOS/src/fat/fat_list.h:80
    new_node->next = node->next;
    17b2:	8b 45 0c             	mov    eax,DWORD PTR [ebp+0xc]
    17b5:	8b 50 04             	mov    edx,DWORD PTR [eax+0x4]
    17b8:	8b 45 10             	mov    eax,DWORD PTR [ebp+0x10]
    17bb:	89 50 04             	mov    DWORD PTR [eax+0x4],edx
/home/yogi/NetBeansProjects/fatLib/../chrisOS/src/fat/fat_list.h:81
    if (!node->next)
    17be:	8b 45 0c             	mov    eax,DWORD PTR [ebp+0xc]
    17c1:	8b 40 04             	mov    eax,DWORD PTR [eax+0x4]
    17c4:	85 c0                	test   eax,eax
    17c6:	75 0b                	jne    17d3 <fat_list_insert_after+0x36>
/home/yogi/NetBeansProjects/fatLib/../chrisOS/src/fat/fat_list.h:82
        list->tail = new_node;
    17c8:	8b 45 08             	mov    eax,DWORD PTR [ebp+0x8]
    17cb:	8b 55 10             	mov    edx,DWORD PTR [ebp+0x10]
    17ce:	89 50 04             	mov    DWORD PTR [eax+0x4],edx
    17d1:	eb 0b                	jmp    17de <fat_list_insert_after+0x41>
/home/yogi/NetBeansProjects/fatLib/../chrisOS/src/fat/fat_list.h:84
    else
        node->next->previous = new_node;
    17d3:	8b 45 0c             	mov    eax,DWORD PTR [ebp+0xc]
    17d6:	8b 40 04             	mov    eax,DWORD PTR [eax+0x4]
    17d9:	8b 55 10             	mov    edx,DWORD PTR [ebp+0x10]
    17dc:	89 10                	mov    DWORD PTR [eax],edx
/home/yogi/NetBeansProjects/fatLib/../chrisOS/src/fat/fat_list.h:85
    node->next = new_node;
    17de:	8b 45 0c             	mov    eax,DWORD PTR [ebp+0xc]
    17e1:	8b 55 10             	mov    edx,DWORD PTR [ebp+0x10]
    17e4:	89 50 04             	mov    DWORD PTR [eax+0x4],edx
/home/yogi/NetBeansProjects/fatLib/../chrisOS/src/fat/fat_list.h:86
}
    17e7:	90                   	nop
    17e8:	5d                   	pop    ebp
    17e9:	c3                   	ret    

000017ea <fat_list_insert_before>:
fat_list_insert_before():
/home/yogi/NetBeansProjects/fatLib/../chrisOS/src/fat/fat_list.h:91
//-----------------------------------------------------------------
// fat_list_insert_before:
//-----------------------------------------------------------------
static FAT_INLINE void fat_list_insert_before(struct fat_list *list, struct fat_node *node, struct fat_node *new_node)
{
    17ea:	55                   	push   ebp
    17eb:	89 e5                	mov    ebp,esp
    17ed:	e8 04 57 00 00       	call   6ef6 <__x86.get_pc_thunk.ax>
    17f2:	05 36 97 00 00       	add    eax,0x9736
/home/yogi/NetBeansProjects/fatLib/../chrisOS/src/fat/fat_list.h:96
    FAT_ASSERT(list);
    FAT_ASSERT(node);
    FAT_ASSERT(new_node);

    new_node->previous = node->previous;
    17f7:	8b 45 0c             	mov    eax,DWORD PTR [ebp+0xc]
    17fa:	8b 10                	mov    edx,DWORD PTR [eax]
    17fc:	8b 45 10             	mov    eax,DWORD PTR [ebp+0x10]
    17ff:	89 10                	mov    DWORD PTR [eax],edx
/home/yogi/NetBeansProjects/fatLib/../chrisOS/src/fat/fat_list.h:97
    new_node->next = node;
    1801:	8b 45 10             	mov    eax,DWORD PTR [ebp+0x10]
    1804:	8b 55 0c             	mov    edx,DWORD PTR [ebp+0xc]
    1807:	89 50 04             	mov    DWORD PTR [eax+0x4],edx
/home/yogi/NetBeansProjects/fatLib/../chrisOS/src/fat/fat_list.h:98
    if (!node->previous)
    180a:	8b 45 0c             	mov    eax,DWORD PTR [ebp+0xc]
    180d:	8b 00                	mov    eax,DWORD PTR [eax]
    180f:	85 c0                	test   eax,eax
    1811:	75 0a                	jne    181d <fat_list_insert_before+0x33>
/home/yogi/NetBeansProjects/fatLib/../chrisOS/src/fat/fat_list.h:99
        list->head = new_node;
    1813:	8b 45 08             	mov    eax,DWORD PTR [ebp+0x8]
    1816:	8b 55 10             	mov    edx,DWORD PTR [ebp+0x10]
    1819:	89 10                	mov    DWORD PTR [eax],edx
    181b:	eb 0b                	jmp    1828 <fat_list_insert_before+0x3e>
/home/yogi/NetBeansProjects/fatLib/../chrisOS/src/fat/fat_list.h:101
    else
        node->previous->next = new_node;
    181d:	8b 45 0c             	mov    eax,DWORD PTR [ebp+0xc]
    1820:	8b 00                	mov    eax,DWORD PTR [eax]
    1822:	8b 55 10             	mov    edx,DWORD PTR [ebp+0x10]
    1825:	89 50 04             	mov    DWORD PTR [eax+0x4],edx
/home/yogi/NetBeansProjects/fatLib/../chrisOS/src/fat/fat_list.h:102
    node->previous = new_node;
    1828:	8b 45 0c             	mov    eax,DWORD PTR [ebp+0xc]
    182b:	8b 55 10             	mov    edx,DWORD PTR [ebp+0x10]
    182e:	89 10                	mov    DWORD PTR [eax],edx
/home/yogi/NetBeansProjects/fatLib/../chrisOS/src/fat/fat_list.h:103
}
    1830:	90                   	nop
    1831:	5d                   	pop    ebp
    1832:	c3                   	ret    

00001833 <fat_list_insert_first>:
fat_list_insert_first():
/home/yogi/NetBeansProjects/fatLib/../chrisOS/src/fat/fat_list.h:108
//-----------------------------------------------------------------
// fat_list_insert_first:
//-----------------------------------------------------------------
static FAT_INLINE void fat_list_insert_first(struct fat_list *list, struct fat_node *node)
{
    1833:	55                   	push   ebp
    1834:	89 e5                	mov    ebp,esp
    1836:	e8 bb 56 00 00       	call   6ef6 <__x86.get_pc_thunk.ax>
    183b:	05 ed 96 00 00       	add    eax,0x96ed
/home/yogi/NetBeansProjects/fatLib/../chrisOS/src/fat/fat_list.h:112
    FAT_ASSERT(list);
    FAT_ASSERT(node);

    if (!list->head)
    1840:	8b 45 08             	mov    eax,DWORD PTR [ebp+0x8]
    1843:	8b 00                	mov    eax,DWORD PTR [eax]
    1845:	85 c0                	test   eax,eax
    1847:	75 26                	jne    186f <fat_list_insert_first+0x3c>
/home/yogi/NetBeansProjects/fatLib/../chrisOS/src/fat/fat_list.h:114
    {
        list->head = node;
    1849:	8b 45 08             	mov    eax,DWORD PTR [ebp+0x8]
    184c:	8b 55 0c             	mov    edx,DWORD PTR [ebp+0xc]
    184f:	89 10                	mov    DWORD PTR [eax],edx
/home/yogi/NetBeansProjects/fatLib/../chrisOS/src/fat/fat_list.h:115
        list->tail = node;
    1851:	8b 45 08             	mov    eax,DWORD PTR [ebp+0x8]
    1854:	8b 55 0c             	mov    edx,DWORD PTR [ebp+0xc]
    1857:	89 50 04             	mov    DWORD PTR [eax+0x4],edx
/home/yogi/NetBeansProjects/fatLib/../chrisOS/src/fat/fat_list.h:116
        node->previous = 0;
    185a:	8b 45 0c             	mov    eax,DWORD PTR [ebp+0xc]
    185d:	c7 00 00 00 00 00    	mov    DWORD PTR [eax],0x0
/home/yogi/NetBeansProjects/fatLib/../chrisOS/src/fat/fat_list.h:117
        node->next = 0;
    1863:	8b 45 0c             	mov    eax,DWORD PTR [ebp+0xc]
    1866:	c7 40 04 00 00 00 00 	mov    DWORD PTR [eax+0x4],0x0
/home/yogi/NetBeansProjects/fatLib/../chrisOS/src/fat/fat_list.h:121
    }
    else
        fat_list_insert_before(list, list->head, node);
}
    186d:	eb 14                	jmp    1883 <fat_list_insert_first+0x50>
/home/yogi/NetBeansProjects/fatLib/../chrisOS/src/fat/fat_list.h:120
        list->tail = node;
        node->previous = 0;
        node->next = 0;
    }
    else
        fat_list_insert_before(list, list->head, node);
    186f:	8b 45 08             	mov    eax,DWORD PTR [ebp+0x8]
    1872:	8b 00                	mov    eax,DWORD PTR [eax]
    1874:	ff 75 0c             	push   DWORD PTR [ebp+0xc]
    1877:	50                   	push   eax
    1878:	ff 75 08             	push   DWORD PTR [ebp+0x8]
    187b:	e8 6a ff ff ff       	call   17ea <fat_list_insert_before>
    1880:	83 c4 0c             	add    esp,0xc
/home/yogi/NetBeansProjects/fatLib/../chrisOS/src/fat/fat_list.h:121
}
    1883:	90                   	nop
    1884:	c9                   	leave  
    1885:	c3                   	ret    

00001886 <fat_list_insert_last>:
fat_list_insert_last():
/home/yogi/NetBeansProjects/fatLib/../chrisOS/src/fat/fat_list.h:126
//-----------------------------------------------------------------
// fat_list_insert_last:
//-----------------------------------------------------------------
static FAT_INLINE void fat_list_insert_last(struct fat_list *list, struct fat_node *node)
{
    1886:	55                   	push   ebp
    1887:	89 e5                	mov    ebp,esp
    1889:	e8 68 56 00 00       	call   6ef6 <__x86.get_pc_thunk.ax>
    188e:	05 9a 96 00 00       	add    eax,0x969a
/home/yogi/NetBeansProjects/fatLib/../chrisOS/src/fat/fat_list.h:130
    FAT_ASSERT(list);
    FAT_ASSERT(node);

    if (!list->tail)
    1893:	8b 45 08             	mov    eax,DWORD PTR [ebp+0x8]
    1896:	8b 40 04             	mov    eax,DWORD PTR [eax+0x4]
    1899:	85 c0                	test   eax,eax
    189b:	75 10                	jne    18ad <fat_list_insert_last+0x27>
/home/yogi/NetBeansProjects/fatLib/../chrisOS/src/fat/fat_list.h:131
        fat_list_insert_first(list, node);
    189d:	ff 75 0c             	push   DWORD PTR [ebp+0xc]
    18a0:	ff 75 08             	push   DWORD PTR [ebp+0x8]
    18a3:	e8 8b ff ff ff       	call   1833 <fat_list_insert_first>
    18a8:	83 c4 08             	add    esp,0x8
/home/yogi/NetBeansProjects/fatLib/../chrisOS/src/fat/fat_list.h:134
     else
        fat_list_insert_after(list, list->tail, node);
}
    18ab:	eb 15                	jmp    18c2 <fat_list_insert_last+0x3c>
/home/yogi/NetBeansProjects/fatLib/../chrisOS/src/fat/fat_list.h:133
    FAT_ASSERT(node);

    if (!list->tail)
        fat_list_insert_first(list, node);
     else
        fat_list_insert_after(list, list->tail, node);
    18ad:	8b 45 08             	mov    eax,DWORD PTR [ebp+0x8]
    18b0:	8b 40 04             	mov    eax,DWORD PTR [eax+0x4]
    18b3:	ff 75 0c             	push   DWORD PTR [ebp+0xc]
    18b6:	50                   	push   eax
    18b7:	ff 75 08             	push   DWORD PTR [ebp+0x8]
    18ba:	e8 de fe ff ff       	call   179d <fat_list_insert_after>
    18bf:	83 c4 0c             	add    esp,0xc
/home/yogi/NetBeansProjects/fatLib/../chrisOS/src/fat/fat_list.h:134
}
    18c2:	90                   	nop
    18c3:	c9                   	leave  
    18c4:	c3                   	ret    

000018c5 <fat_list_is_empty>:
fat_list_is_empty():
/home/yogi/NetBeansProjects/fatLib/../chrisOS/src/fat/fat_list.h:139
//-----------------------------------------------------------------
// fat_list_is_empty:
//-----------------------------------------------------------------
static FAT_INLINE int fat_list_is_empty(struct fat_list *list)
{
    18c5:	55                   	push   ebp
    18c6:	89 e5                	mov    ebp,esp
    18c8:	e8 29 56 00 00       	call   6ef6 <__x86.get_pc_thunk.ax>
    18cd:	05 5b 96 00 00       	add    eax,0x965b
/home/yogi/NetBeansProjects/fatLib/../chrisOS/src/fat/fat_list.h:142
    FAT_ASSERT(list);

    return !list->head;
    18d2:	8b 45 08             	mov    eax,DWORD PTR [ebp+0x8]
    18d5:	8b 00                	mov    eax,DWORD PTR [eax]
    18d7:	85 c0                	test   eax,eax
    18d9:	0f 94 c0             	sete   al
    18dc:	0f b6 c0             	movzx  eax,al
/home/yogi/NetBeansProjects/fatLib/../chrisOS/src/fat/fat_list.h:143
}
    18df:	5d                   	pop    ebp
    18e0:	c3                   	ret    

000018e1 <fat_list_pop_head>:
fat_list_pop_head():
/home/yogi/NetBeansProjects/fatLib/../chrisOS/src/fat/fat_list.h:148
//-----------------------------------------------------------------
// fat_list_pop_head:
//-----------------------------------------------------------------
static FAT_INLINE struct fat_node * fat_list_pop_head(struct fat_list *list)
{
    18e1:	55                   	push   ebp
    18e2:	89 e5                	mov    ebp,esp
    18e4:	83 ec 10             	sub    esp,0x10
    18e7:	e8 0a 56 00 00       	call   6ef6 <__x86.get_pc_thunk.ax>
    18ec:	05 3c 96 00 00       	add    eax,0x963c
/home/yogi/NetBeansProjects/fatLib/../chrisOS/src/fat/fat_list.h:153
    struct fat_node * node;

    FAT_ASSERT(list);

    node = fat_list_first(list);
    18f1:	8b 45 08             	mov    eax,DWORD PTR [ebp+0x8]
    18f4:	8b 00                	mov    eax,DWORD PTR [eax]
    18f6:	89 45 fc             	mov    DWORD PTR [ebp-0x4],eax
/home/yogi/NetBeansProjects/fatLib/../chrisOS/src/fat/fat_list.h:154
    if (node)
    18f9:	83 7d fc 00          	cmp    DWORD PTR [ebp-0x4],0x0
    18fd:	74 0e                	je     190d <fat_list_pop_head+0x2c>
/home/yogi/NetBeansProjects/fatLib/../chrisOS/src/fat/fat_list.h:155
        fat_list_remove(list, node);
    18ff:	ff 75 fc             	push   DWORD PTR [ebp-0x4]
    1902:	ff 75 08             	push   DWORD PTR [ebp+0x8]
    1905:	e8 3b fe ff ff       	call   1745 <fat_list_remove>
    190a:	83 c4 08             	add    esp,0x8
/home/yogi/NetBeansProjects/fatLib/../chrisOS/src/fat/fat_list.h:157

    return node;
    190d:	8b 45 fc             	mov    eax,DWORD PTR [ebp-0x4]
/home/yogi/NetBeansProjects/fatLib/../chrisOS/src/fat/fat_list.h:158
}
    1910:	c9                   	leave  
    1911:	c3                   	ret    

00001912 <fatfs_cache_init>:
fatfs_cache_init():
/home/yogi/NetBeansProjects/fatLib/../chrisOS/src/fat/fat_cache.c:43

//-----------------------------------------------------------------------------
// fatfs_cache_init:
//-----------------------------------------------------------------------------
int fatfs_cache_init(struct fatfs *fs, FL_FILE *file)
{
    1912:	55                   	push   ebp
    1913:	89 e5                	mov    ebp,esp
    1915:	e8 dc 55 00 00       	call   6ef6 <__x86.get_pc_thunk.ax>
    191a:	05 0e 96 00 00       	add    eax,0x960e
/home/yogi/NetBeansProjects/fatLib/../chrisOS/src/fat/fat_cache.c:54
        file->cluster_cache_idx[i] = 0xFFFFFFFF; // Not used
        file->cluster_cache_data[i] = 0;
    }
#endif

    return 1;
    191f:	b8 01 00 00 00       	mov    eax,0x1
/home/yogi/NetBeansProjects/fatLib/../chrisOS/src/fat/fat_cache.c:55
}
    1924:	5d                   	pop    ebp
    1925:	c3                   	ret    

00001926 <fatfs_cache_get_next_cluster>:
fatfs_cache_get_next_cluster():
/home/yogi/NetBeansProjects/fatLib/../chrisOS/src/fat/fat_cache.c:60
//-----------------------------------------------------------------------------
// fatfs_cache_get_next_cluster:
//-----------------------------------------------------------------------------
int fatfs_cache_get_next_cluster(struct fatfs *fs, FL_FILE *file, uint32 clusterIdx, uint32 *pNextCluster)
{
    1926:	55                   	push   ebp
    1927:	89 e5                	mov    ebp,esp
    1929:	e8 c8 55 00 00       	call   6ef6 <__x86.get_pc_thunk.ax>
    192e:	05 fa 95 00 00       	add    eax,0x95fa
/home/yogi/NetBeansProjects/fatLib/../chrisOS/src/fat/fat_cache.c:71
        *pNextCluster = file->cluster_cache_data[slot];
        return 1;
    }
#endif

    return 0;
    1933:	b8 00 00 00 00       	mov    eax,0x0
/home/yogi/NetBeansProjects/fatLib/../chrisOS/src/fat/fat_cache.c:72
}
    1938:	5d                   	pop    ebp
    1939:	c3                   	ret    

0000193a <fatfs_cache_set_next_cluster>:
fatfs_cache_set_next_cluster():
/home/yogi/NetBeansProjects/fatLib/../chrisOS/src/fat/fat_cache.c:77
//-----------------------------------------------------------------------------
// fatfs_cache_set_next_cluster:
//-----------------------------------------------------------------------------
int fatfs_cache_set_next_cluster(struct fatfs *fs, FL_FILE *file, uint32 clusterIdx, uint32 nextCluster)
{
    193a:	55                   	push   ebp
    193b:	89 e5                	mov    ebp,esp
    193d:	e8 b4 55 00 00       	call   6ef6 <__x86.get_pc_thunk.ax>
    1942:	05 e6 95 00 00       	add    eax,0x95e6
/home/yogi/NetBeansProjects/fatLib/../chrisOS/src/fat/fat_cache.c:90
        file->cluster_cache_idx[slot] = clusterIdx;
        file->cluster_cache_data[slot] = nextCluster;
    }
#endif

    return 1;
    1947:	b8 01 00 00 00       	mov    eax,0x1
/home/yogi/NetBeansProjects/fatLib/../chrisOS/src/fat/fat_cache.c:91
}
    194c:	5d                   	pop    ebp
    194d:	c3                   	ret    
    194e:	66 90                	xchg   ax,ax

00001950 <fat_list_init>:
fat_list_init():
/home/yogi/NetBeansProjects/fatLib/../chrisOS/src/fat/fat_list.h:47

//-----------------------------------------------------------------
// fat_list_init:
//-----------------------------------------------------------------
static FAT_INLINE void fat_list_init(struct fat_list *list)
{
    1950:	55                   	push   ebp
    1951:	89 e5                	mov    ebp,esp
    1953:	e8 9e 55 00 00       	call   6ef6 <__x86.get_pc_thunk.ax>
    1958:	05 d0 95 00 00       	add    eax,0x95d0
/home/yogi/NetBeansProjects/fatLib/../chrisOS/src/fat/fat_list.h:50
    FAT_ASSERT(list);

    list->head = list->tail = 0;
    195d:	8b 45 08             	mov    eax,DWORD PTR [ebp+0x8]
    1960:	c7 40 04 00 00 00 00 	mov    DWORD PTR [eax+0x4],0x0
    1967:	8b 45 08             	mov    eax,DWORD PTR [ebp+0x8]
    196a:	8b 50 04             	mov    edx,DWORD PTR [eax+0x4]
    196d:	8b 45 08             	mov    eax,DWORD PTR [ebp+0x8]
    1970:	89 10                	mov    DWORD PTR [eax],edx
/home/yogi/NetBeansProjects/fatLib/../chrisOS/src/fat/fat_list.h:51
}
    1972:	90                   	nop
    1973:	5d                   	pop    ebp
    1974:	c3                   	ret    

00001975 <fat_list_remove>:
fat_list_remove():
/home/yogi/NetBeansProjects/fatLib/../chrisOS/src/fat/fat_list.h:56
//-----------------------------------------------------------------
// fat_list_remove:
//-----------------------------------------------------------------
static FAT_INLINE void fat_list_remove(struct fat_list *list, struct fat_node *node)
{
    1975:	55                   	push   ebp
    1976:	89 e5                	mov    ebp,esp
    1978:	e8 79 55 00 00       	call   6ef6 <__x86.get_pc_thunk.ax>
    197d:	05 ab 95 00 00       	add    eax,0x95ab
/home/yogi/NetBeansProjects/fatLib/../chrisOS/src/fat/fat_list.h:60
    FAT_ASSERT(list);
    FAT_ASSERT(node);

    if(!node->previous)
    1982:	8b 45 0c             	mov    eax,DWORD PTR [ebp+0xc]
    1985:	8b 00                	mov    eax,DWORD PTR [eax]
    1987:	85 c0                	test   eax,eax
    1989:	75 0d                	jne    1998 <fat_list_remove+0x23>
/home/yogi/NetBeansProjects/fatLib/../chrisOS/src/fat/fat_list.h:61
        list->head = node->next;
    198b:	8b 45 0c             	mov    eax,DWORD PTR [ebp+0xc]
    198e:	8b 50 04             	mov    edx,DWORD PTR [eax+0x4]
    1991:	8b 45 08             	mov    eax,DWORD PTR [ebp+0x8]
    1994:	89 10                	mov    DWORD PTR [eax],edx
    1996:	eb 0e                	jmp    19a6 <fat_list_remove+0x31>
/home/yogi/NetBeansProjects/fatLib/../chrisOS/src/fat/fat_list.h:63
    else
        node->previous->next = node->next;
    1998:	8b 45 0c             	mov    eax,DWORD PTR [ebp+0xc]
    199b:	8b 00                	mov    eax,DWORD PTR [eax]
    199d:	8b 55 0c             	mov    edx,DWORD PTR [ebp+0xc]
    19a0:	8b 52 04             	mov    edx,DWORD PTR [edx+0x4]
    19a3:	89 50 04             	mov    DWORD PTR [eax+0x4],edx
/home/yogi/NetBeansProjects/fatLib/../chrisOS/src/fat/fat_list.h:65

    if(!node->next)
    19a6:	8b 45 0c             	mov    eax,DWORD PTR [ebp+0xc]
    19a9:	8b 40 04             	mov    eax,DWORD PTR [eax+0x4]
    19ac:	85 c0                	test   eax,eax
    19ae:	75 0d                	jne    19bd <fat_list_remove+0x48>
/home/yogi/NetBeansProjects/fatLib/../chrisOS/src/fat/fat_list.h:66
        list->tail = node->previous;
    19b0:	8b 45 0c             	mov    eax,DWORD PTR [ebp+0xc]
    19b3:	8b 10                	mov    edx,DWORD PTR [eax]
    19b5:	8b 45 08             	mov    eax,DWORD PTR [ebp+0x8]
    19b8:	89 50 04             	mov    DWORD PTR [eax+0x4],edx
/home/yogi/NetBeansProjects/fatLib/../chrisOS/src/fat/fat_list.h:69
    else
        node->next->previous = node->previous;
}
    19bb:	eb 0d                	jmp    19ca <fat_list_remove+0x55>
/home/yogi/NetBeansProjects/fatLib/../chrisOS/src/fat/fat_list.h:68
        node->previous->next = node->next;

    if(!node->next)
        list->tail = node->previous;
    else
        node->next->previous = node->previous;
    19bd:	8b 45 0c             	mov    eax,DWORD PTR [ebp+0xc]
    19c0:	8b 40 04             	mov    eax,DWORD PTR [eax+0x4]
    19c3:	8b 55 0c             	mov    edx,DWORD PTR [ebp+0xc]
    19c6:	8b 12                	mov    edx,DWORD PTR [edx]
    19c8:	89 10                	mov    DWORD PTR [eax],edx
/home/yogi/NetBeansProjects/fatLib/../chrisOS/src/fat/fat_list.h:69
}
    19ca:	90                   	nop
    19cb:	5d                   	pop    ebp
    19cc:	c3                   	ret    

000019cd <fat_list_insert_after>:
fat_list_insert_after():
/home/yogi/NetBeansProjects/fatLib/../chrisOS/src/fat/fat_list.h:74
//-----------------------------------------------------------------
// fat_list_insert_after:
//-----------------------------------------------------------------
static FAT_INLINE void fat_list_insert_after(struct fat_list *list, struct fat_node *node, struct fat_node *new_node)
{
    19cd:	55                   	push   ebp
    19ce:	89 e5                	mov    ebp,esp
    19d0:	e8 21 55 00 00       	call   6ef6 <__x86.get_pc_thunk.ax>
    19d5:	05 53 95 00 00       	add    eax,0x9553
/home/yogi/NetBeansProjects/fatLib/../chrisOS/src/fat/fat_list.h:79
    FAT_ASSERT(list);
    FAT_ASSERT(node);
    FAT_ASSERT(new_node);

    new_node->previous = node;
    19da:	8b 45 10             	mov    eax,DWORD PTR [ebp+0x10]
    19dd:	8b 55 0c             	mov    edx,DWORD PTR [ebp+0xc]
    19e0:	89 10                	mov    DWORD PTR [eax],edx
/home/yogi/NetBeansProjects/fatLib/../chrisOS/src/fat/fat_list.h:80
    new_node->next = node->next;
    19e2:	8b 45 0c             	mov    eax,DWORD PTR [ebp+0xc]
    19e5:	8b 50 04             	mov    edx,DWORD PTR [eax+0x4]
    19e8:	8b 45 10             	mov    eax,DWORD PTR [ebp+0x10]
    19eb:	89 50 04             	mov    DWORD PTR [eax+0x4],edx
/home/yogi/NetBeansProjects/fatLib/../chrisOS/src/fat/fat_list.h:81
    if (!node->next)
    19ee:	8b 45 0c             	mov    eax,DWORD PTR [ebp+0xc]
    19f1:	8b 40 04             	mov    eax,DWORD PTR [eax+0x4]
    19f4:	85 c0                	test   eax,eax
    19f6:	75 0b                	jne    1a03 <fat_list_insert_after+0x36>
/home/yogi/NetBeansProjects/fatLib/../chrisOS/src/fat/fat_list.h:82
        list->tail = new_node;
    19f8:	8b 45 08             	mov    eax,DWORD PTR [ebp+0x8]
    19fb:	8b 55 10             	mov    edx,DWORD PTR [ebp+0x10]
    19fe:	89 50 04             	mov    DWORD PTR [eax+0x4],edx
    1a01:	eb 0b                	jmp    1a0e <fat_list_insert_after+0x41>
/home/yogi/NetBeansProjects/fatLib/../chrisOS/src/fat/fat_list.h:84
    else
        node->next->previous = new_node;
    1a03:	8b 45 0c             	mov    eax,DWORD PTR [ebp+0xc]
    1a06:	8b 40 04             	mov    eax,DWORD PTR [eax+0x4]
    1a09:	8b 55 10             	mov    edx,DWORD PTR [ebp+0x10]
    1a0c:	89 10                	mov    DWORD PTR [eax],edx
/home/yogi/NetBeansProjects/fatLib/../chrisOS/src/fat/fat_list.h:85
    node->next = new_node;
    1a0e:	8b 45 0c             	mov    eax,DWORD PTR [ebp+0xc]
    1a11:	8b 55 10             	mov    edx,DWORD PTR [ebp+0x10]
    1a14:	89 50 04             	mov    DWORD PTR [eax+0x4],edx
/home/yogi/NetBeansProjects/fatLib/../chrisOS/src/fat/fat_list.h:86
}
    1a17:	90                   	nop
    1a18:	5d                   	pop    ebp
    1a19:	c3                   	ret    

00001a1a <fat_list_insert_before>:
fat_list_insert_before():
/home/yogi/NetBeansProjects/fatLib/../chrisOS/src/fat/fat_list.h:91
//-----------------------------------------------------------------
// fat_list_insert_before:
//-----------------------------------------------------------------
static FAT_INLINE void fat_list_insert_before(struct fat_list *list, struct fat_node *node, struct fat_node *new_node)
{
    1a1a:	55                   	push   ebp
    1a1b:	89 e5                	mov    ebp,esp
    1a1d:	e8 d4 54 00 00       	call   6ef6 <__x86.get_pc_thunk.ax>
    1a22:	05 06 95 00 00       	add    eax,0x9506
/home/yogi/NetBeansProjects/fatLib/../chrisOS/src/fat/fat_list.h:96
    FAT_ASSERT(list);
    FAT_ASSERT(node);
    FAT_ASSERT(new_node);

    new_node->previous = node->previous;
    1a27:	8b 45 0c             	mov    eax,DWORD PTR [ebp+0xc]
    1a2a:	8b 10                	mov    edx,DWORD PTR [eax]
    1a2c:	8b 45 10             	mov    eax,DWORD PTR [ebp+0x10]
    1a2f:	89 10                	mov    DWORD PTR [eax],edx
/home/yogi/NetBeansProjects/fatLib/../chrisOS/src/fat/fat_list.h:97
    new_node->next = node;
    1a31:	8b 45 10             	mov    eax,DWORD PTR [ebp+0x10]
    1a34:	8b 55 0c             	mov    edx,DWORD PTR [ebp+0xc]
    1a37:	89 50 04             	mov    DWORD PTR [eax+0x4],edx
/home/yogi/NetBeansProjects/fatLib/../chrisOS/src/fat/fat_list.h:98
    if (!node->previous)
    1a3a:	8b 45 0c             	mov    eax,DWORD PTR [ebp+0xc]
    1a3d:	8b 00                	mov    eax,DWORD PTR [eax]
    1a3f:	85 c0                	test   eax,eax
    1a41:	75 0a                	jne    1a4d <fat_list_insert_before+0x33>
/home/yogi/NetBeansProjects/fatLib/../chrisOS/src/fat/fat_list.h:99
        list->head = new_node;
    1a43:	8b 45 08             	mov    eax,DWORD PTR [ebp+0x8]
    1a46:	8b 55 10             	mov    edx,DWORD PTR [ebp+0x10]
    1a49:	89 10                	mov    DWORD PTR [eax],edx
    1a4b:	eb 0b                	jmp    1a58 <fat_list_insert_before+0x3e>
/home/yogi/NetBeansProjects/fatLib/../chrisOS/src/fat/fat_list.h:101
    else
        node->previous->next = new_node;
    1a4d:	8b 45 0c             	mov    eax,DWORD PTR [ebp+0xc]
    1a50:	8b 00                	mov    eax,DWORD PTR [eax]
    1a52:	8b 55 10             	mov    edx,DWORD PTR [ebp+0x10]
    1a55:	89 50 04             	mov    DWORD PTR [eax+0x4],edx
/home/yogi/NetBeansProjects/fatLib/../chrisOS/src/fat/fat_list.h:102
    node->previous = new_node;
    1a58:	8b 45 0c             	mov    eax,DWORD PTR [ebp+0xc]
    1a5b:	8b 55 10             	mov    edx,DWORD PTR [ebp+0x10]
    1a5e:	89 10                	mov    DWORD PTR [eax],edx
/home/yogi/NetBeansProjects/fatLib/../chrisOS/src/fat/fat_list.h:103
}
    1a60:	90                   	nop
    1a61:	5d                   	pop    ebp
    1a62:	c3                   	ret    

00001a63 <fat_list_insert_first>:
fat_list_insert_first():
/home/yogi/NetBeansProjects/fatLib/../chrisOS/src/fat/fat_list.h:108
//-----------------------------------------------------------------
// fat_list_insert_first:
//-----------------------------------------------------------------
static FAT_INLINE void fat_list_insert_first(struct fat_list *list, struct fat_node *node)
{
    1a63:	55                   	push   ebp
    1a64:	89 e5                	mov    ebp,esp
    1a66:	e8 8b 54 00 00       	call   6ef6 <__x86.get_pc_thunk.ax>
    1a6b:	05 bd 94 00 00       	add    eax,0x94bd
/home/yogi/NetBeansProjects/fatLib/../chrisOS/src/fat/fat_list.h:112
    FAT_ASSERT(list);
    FAT_ASSERT(node);

    if (!list->head)
    1a70:	8b 45 08             	mov    eax,DWORD PTR [ebp+0x8]
    1a73:	8b 00                	mov    eax,DWORD PTR [eax]
    1a75:	85 c0                	test   eax,eax
    1a77:	75 26                	jne    1a9f <fat_list_insert_first+0x3c>
/home/yogi/NetBeansProjects/fatLib/../chrisOS/src/fat/fat_list.h:114
    {
        list->head = node;
    1a79:	8b 45 08             	mov    eax,DWORD PTR [ebp+0x8]
    1a7c:	8b 55 0c             	mov    edx,DWORD PTR [ebp+0xc]
    1a7f:	89 10                	mov    DWORD PTR [eax],edx
/home/yogi/NetBeansProjects/fatLib/../chrisOS/src/fat/fat_list.h:115
        list->tail = node;
    1a81:	8b 45 08             	mov    eax,DWORD PTR [ebp+0x8]
    1a84:	8b 55 0c             	mov    edx,DWORD PTR [ebp+0xc]
    1a87:	89 50 04             	mov    DWORD PTR [eax+0x4],edx
/home/yogi/NetBeansProjects/fatLib/../chrisOS/src/fat/fat_list.h:116
        node->previous = 0;
    1a8a:	8b 45 0c             	mov    eax,DWORD PTR [ebp+0xc]
    1a8d:	c7 00 00 00 00 00    	mov    DWORD PTR [eax],0x0
/home/yogi/NetBeansProjects/fatLib/../chrisOS/src/fat/fat_list.h:117
        node->next = 0;
    1a93:	8b 45 0c             	mov    eax,DWORD PTR [ebp+0xc]
    1a96:	c7 40 04 00 00 00 00 	mov    DWORD PTR [eax+0x4],0x0
/home/yogi/NetBeansProjects/fatLib/../chrisOS/src/fat/fat_list.h:121
    }
    else
        fat_list_insert_before(list, list->head, node);
}
    1a9d:	eb 14                	jmp    1ab3 <fat_list_insert_first+0x50>
/home/yogi/NetBeansProjects/fatLib/../chrisOS/src/fat/fat_list.h:120
        list->tail = node;
        node->previous = 0;
        node->next = 0;
    }
    else
        fat_list_insert_before(list, list->head, node);
    1a9f:	8b 45 08             	mov    eax,DWORD PTR [ebp+0x8]
    1aa2:	8b 00                	mov    eax,DWORD PTR [eax]
    1aa4:	ff 75 0c             	push   DWORD PTR [ebp+0xc]
    1aa7:	50                   	push   eax
    1aa8:	ff 75 08             	push   DWORD PTR [ebp+0x8]
    1aab:	e8 6a ff ff ff       	call   1a1a <fat_list_insert_before>
    1ab0:	83 c4 0c             	add    esp,0xc
/home/yogi/NetBeansProjects/fatLib/../chrisOS/src/fat/fat_list.h:121
}
    1ab3:	90                   	nop
    1ab4:	c9                   	leave  
    1ab5:	c3                   	ret    

00001ab6 <fat_list_insert_last>:
fat_list_insert_last():
/home/yogi/NetBeansProjects/fatLib/../chrisOS/src/fat/fat_list.h:126
//-----------------------------------------------------------------
// fat_list_insert_last:
//-----------------------------------------------------------------
static FAT_INLINE void fat_list_insert_last(struct fat_list *list, struct fat_node *node)
{
    1ab6:	55                   	push   ebp
    1ab7:	89 e5                	mov    ebp,esp
    1ab9:	e8 38 54 00 00       	call   6ef6 <__x86.get_pc_thunk.ax>
    1abe:	05 6a 94 00 00       	add    eax,0x946a
/home/yogi/NetBeansProjects/fatLib/../chrisOS/src/fat/fat_list.h:130
    FAT_ASSERT(list);
    FAT_ASSERT(node);

    if (!list->tail)
    1ac3:	8b 45 08             	mov    eax,DWORD PTR [ebp+0x8]
    1ac6:	8b 40 04             	mov    eax,DWORD PTR [eax+0x4]
    1ac9:	85 c0                	test   eax,eax
    1acb:	75 10                	jne    1add <fat_list_insert_last+0x27>
/home/yogi/NetBeansProjects/fatLib/../chrisOS/src/fat/fat_list.h:131
        fat_list_insert_first(list, node);
    1acd:	ff 75 0c             	push   DWORD PTR [ebp+0xc]
    1ad0:	ff 75 08             	push   DWORD PTR [ebp+0x8]
    1ad3:	e8 8b ff ff ff       	call   1a63 <fat_list_insert_first>
    1ad8:	83 c4 08             	add    esp,0x8
/home/yogi/NetBeansProjects/fatLib/../chrisOS/src/fat/fat_list.h:134
     else
        fat_list_insert_after(list, list->tail, node);
}
    1adb:	eb 15                	jmp    1af2 <fat_list_insert_last+0x3c>
/home/yogi/NetBeansProjects/fatLib/../chrisOS/src/fat/fat_list.h:133
    FAT_ASSERT(node);

    if (!list->tail)
        fat_list_insert_first(list, node);
     else
        fat_list_insert_after(list, list->tail, node);
    1add:	8b 45 08             	mov    eax,DWORD PTR [ebp+0x8]
    1ae0:	8b 40 04             	mov    eax,DWORD PTR [eax+0x4]
    1ae3:	ff 75 0c             	push   DWORD PTR [ebp+0xc]
    1ae6:	50                   	push   eax
    1ae7:	ff 75 08             	push   DWORD PTR [ebp+0x8]
    1aea:	e8 de fe ff ff       	call   19cd <fat_list_insert_after>
    1aef:	83 c4 0c             	add    esp,0xc
/home/yogi/NetBeansProjects/fatLib/../chrisOS/src/fat/fat_list.h:134
}
    1af2:	90                   	nop
    1af3:	c9                   	leave  
    1af4:	c3                   	ret    

00001af5 <fat_list_is_empty>:
fat_list_is_empty():
/home/yogi/NetBeansProjects/fatLib/../chrisOS/src/fat/fat_list.h:139
//-----------------------------------------------------------------
// fat_list_is_empty:
//-----------------------------------------------------------------
static FAT_INLINE int fat_list_is_empty(struct fat_list *list)
{
    1af5:	55                   	push   ebp
    1af6:	89 e5                	mov    ebp,esp
    1af8:	e8 f9 53 00 00       	call   6ef6 <__x86.get_pc_thunk.ax>
    1afd:	05 2b 94 00 00       	add    eax,0x942b
/home/yogi/NetBeansProjects/fatLib/../chrisOS/src/fat/fat_list.h:142
    FAT_ASSERT(list);

    return !list->head;
    1b02:	8b 45 08             	mov    eax,DWORD PTR [ebp+0x8]
    1b05:	8b 00                	mov    eax,DWORD PTR [eax]
    1b07:	85 c0                	test   eax,eax
    1b09:	0f 94 c0             	sete   al
    1b0c:	0f b6 c0             	movzx  eax,al
/home/yogi/NetBeansProjects/fatLib/../chrisOS/src/fat/fat_list.h:143
}
    1b0f:	5d                   	pop    ebp
    1b10:	c3                   	ret    

00001b11 <fat_list_pop_head>:
fat_list_pop_head():
/home/yogi/NetBeansProjects/fatLib/../chrisOS/src/fat/fat_list.h:148
//-----------------------------------------------------------------
// fat_list_pop_head:
//-----------------------------------------------------------------
static FAT_INLINE struct fat_node * fat_list_pop_head(struct fat_list *list)
{
    1b11:	55                   	push   ebp
    1b12:	89 e5                	mov    ebp,esp
    1b14:	83 ec 10             	sub    esp,0x10
    1b17:	e8 da 53 00 00       	call   6ef6 <__x86.get_pc_thunk.ax>
    1b1c:	05 0c 94 00 00       	add    eax,0x940c
/home/yogi/NetBeansProjects/fatLib/../chrisOS/src/fat/fat_list.h:153
    struct fat_node * node;

    FAT_ASSERT(list);

    node = fat_list_first(list);
    1b21:	8b 45 08             	mov    eax,DWORD PTR [ebp+0x8]
    1b24:	8b 00                	mov    eax,DWORD PTR [eax]
    1b26:	89 45 fc             	mov    DWORD PTR [ebp-0x4],eax
/home/yogi/NetBeansProjects/fatLib/../chrisOS/src/fat/fat_list.h:154
    if (node)
    1b29:	83 7d fc 00          	cmp    DWORD PTR [ebp-0x4],0x0
    1b2d:	74 0e                	je     1b3d <fat_list_pop_head+0x2c>
/home/yogi/NetBeansProjects/fatLib/../chrisOS/src/fat/fat_list.h:155
        fat_list_remove(list, node);
    1b2f:	ff 75 fc             	push   DWORD PTR [ebp-0x4]
    1b32:	ff 75 08             	push   DWORD PTR [ebp+0x8]
    1b35:	e8 3b fe ff ff       	call   1975 <fat_list_remove>
    1b3a:	83 c4 08             	add    esp,0x8
/home/yogi/NetBeansProjects/fatLib/../chrisOS/src/fat/fat_list.h:157

    return node;
    1b3d:	8b 45 fc             	mov    eax,DWORD PTR [ebp-0x4]
/home/yogi/NetBeansProjects/fatLib/../chrisOS/src/fat/fat_list.h:158
}
    1b40:	c9                   	leave  
    1b41:	c3                   	ret    

00001b42 <_allocate_file>:
_allocate_file():
/home/yogi/NetBeansProjects/fatLib/../chrisOS/src/fat/fat_filelib.c:72

//-----------------------------------------------------------------------------
// _allocate_file: Find a slot in the open files buffer for a new file
//-----------------------------------------------------------------------------
static FL_FILE* _allocate_file(void)
{
    1b42:	55                   	push   ebp
    1b43:	89 e5                	mov    ebp,esp
    1b45:	53                   	push   ebx
    1b46:	83 ec 10             	sub    esp,0x10
    1b49:	e8 ac 53 00 00       	call   6efa <__x86.get_pc_thunk.bx>
    1b4e:	81 c3 da 93 00 00    	add    ebx,0x93da
/home/yogi/NetBeansProjects/fatLib/../chrisOS/src/fat/fat_filelib.c:74
    // Allocate free file
    struct fat_node *node = fat_list_pop_head(&_free_file_list);
    1b54:	8d 83 68 46 00 00    	lea    eax,[ebx+0x4668]
    1b5a:	50                   	push   eax
    1b5b:	e8 b1 ff ff ff       	call   1b11 <fat_list_pop_head>
    1b60:	83 c4 04             	add    esp,0x4
    1b63:	89 45 f8             	mov    DWORD PTR [ebp-0x8],eax
/home/yogi/NetBeansProjects/fatLib/../chrisOS/src/fat/fat_filelib.c:77

    // Add to open list
    if (node)
    1b66:	83 7d f8 00          	cmp    DWORD PTR [ebp-0x8],0x0
    1b6a:	74 12                	je     1b7e <_allocate_file+0x3c>
/home/yogi/NetBeansProjects/fatLib/../chrisOS/src/fat/fat_filelib.c:78
        fat_list_insert_last(&_open_file_list, node);
    1b6c:	ff 75 f8             	push   DWORD PTR [ebp-0x8]
    1b6f:	8d 83 60 46 00 00    	lea    eax,[ebx+0x4660]
    1b75:	50                   	push   eax
    1b76:	e8 3b ff ff ff       	call   1ab6 <fat_list_insert_last>
    1b7b:	83 c4 08             	add    esp,0x8
/home/yogi/NetBeansProjects/fatLib/../chrisOS/src/fat/fat_filelib.c:80

    return fat_list_entry(node, FL_FILE, list_node);
    1b7e:	83 7d f8 00          	cmp    DWORD PTR [ebp-0x8],0x0
    1b82:	74 0a                	je     1b8e <_allocate_file+0x4c>
/home/yogi/NetBeansProjects/fatLib/../chrisOS/src/fat/fat_filelib.c:80 (discriminator 1)
    1b84:	8b 45 f8             	mov    eax,DWORD PTR [ebp-0x8]
    1b87:	2d 34 03 00 00       	sub    eax,0x334
    1b8c:	eb 05                	jmp    1b93 <_allocate_file+0x51>
/home/yogi/NetBeansProjects/fatLib/../chrisOS/src/fat/fat_filelib.c:80 (discriminator 2)
    1b8e:	b8 00 00 00 00       	mov    eax,0x0
/home/yogi/NetBeansProjects/fatLib/../chrisOS/src/fat/fat_filelib.c:81 (discriminator 5)
}
    1b93:	8b 5d fc             	mov    ebx,DWORD PTR [ebp-0x4]
    1b96:	c9                   	leave  
    1b97:	c3                   	ret    

00001b98 <_check_file_open>:
_check_file_open():
/home/yogi/NetBeansProjects/fatLib/../chrisOS/src/fat/fat_filelib.c:86
//-----------------------------------------------------------------------------
// _check_file_open: Returns true if the file is already open
//-----------------------------------------------------------------------------
static int _check_file_open(FL_FILE* file)
{
    1b98:	55                   	push   ebp
    1b99:	89 e5                	mov    ebp,esp
    1b9b:	53                   	push   ebx
    1b9c:	83 ec 14             	sub    esp,0x14
    1b9f:	e8 56 53 00 00       	call   6efa <__x86.get_pc_thunk.bx>
    1ba4:	81 c3 84 93 00 00    	add    ebx,0x9384
/home/yogi/NetBeansProjects/fatLib/../chrisOS/src/fat/fat_filelib.c:90
    struct fat_node *node;

    // Compare open files
    fat_list_for_each(&_open_file_list, node)
    1baa:	8b 83 60 46 00 00    	mov    eax,DWORD PTR [ebx+0x4660]
    1bb0:	89 45 f4             	mov    DWORD PTR [ebp-0xc],eax
    1bb3:	eb 6f                	jmp    1c24 <_check_file_open+0x8c>
/home/yogi/NetBeansProjects/fatLib/../chrisOS/src/fat/fat_filelib.c:92
    {
        FL_FILE* openFile = fat_list_entry(node, FL_FILE, list_node);
    1bb5:	83 7d f4 00          	cmp    DWORD PTR [ebp-0xc],0x0
    1bb9:	74 0a                	je     1bc5 <_check_file_open+0x2d>
/home/yogi/NetBeansProjects/fatLib/../chrisOS/src/fat/fat_filelib.c:92 (discriminator 1)
    1bbb:	8b 45 f4             	mov    eax,DWORD PTR [ebp-0xc]
    1bbe:	2d 34 03 00 00       	sub    eax,0x334
    1bc3:	eb 05                	jmp    1bca <_check_file_open+0x32>
/home/yogi/NetBeansProjects/fatLib/../chrisOS/src/fat/fat_filelib.c:92 (discriminator 2)
    1bc5:	b8 00 00 00 00       	mov    eax,0x0
/home/yogi/NetBeansProjects/fatLib/../chrisOS/src/fat/fat_filelib.c:92 (discriminator 4)
    1bca:	89 45 f0             	mov    DWORD PTR [ebp-0x10],eax
/home/yogi/NetBeansProjects/fatLib/../chrisOS/src/fat/fat_filelib.c:95 (discriminator 4)

        // If not the current file
        if (openFile != file)
    1bcd:	8b 45 f0             	mov    eax,DWORD PTR [ebp-0x10]
    1bd0:	3b 45 08             	cmp    eax,DWORD PTR [ebp+0x8]
    1bd3:	74 46                	je     1c1b <_check_file_open+0x83>
/home/yogi/NetBeansProjects/fatLib/../chrisOS/src/fat/fat_filelib.c:98
        {
            // Compare path and name
            if ( (fatfs_compare_names(openFile->path,file->path)) && (fatfs_compare_names(openFile->filename,file->filename)) )
    1bd5:	8b 45 08             	mov    eax,DWORD PTR [ebp+0x8]
    1bd8:	8d 50 14             	lea    edx,[eax+0x14]
    1bdb:	8b 45 f0             	mov    eax,DWORD PTR [ebp-0x10]
    1bde:	83 c0 14             	add    eax,0x14
    1be1:	83 ec 08             	sub    esp,0x8
    1be4:	52                   	push   edx
    1be5:	50                   	push   eax
    1be6:	e8 15 54 00 00       	call   7000 <__x86.get_pc_thunk.bx+0x106>
    1beb:	83 c4 10             	add    esp,0x10
    1bee:	85 c0                	test   eax,eax
    1bf0:	74 29                	je     1c1b <_check_file_open+0x83>
/home/yogi/NetBeansProjects/fatLib/../chrisOS/src/fat/fat_filelib.c:98 (discriminator 1)
    1bf2:	8b 45 08             	mov    eax,DWORD PTR [ebp+0x8]
    1bf5:	8d 90 94 00 00 00    	lea    edx,[eax+0x94]
    1bfb:	8b 45 f0             	mov    eax,DWORD PTR [ebp-0x10]
    1bfe:	05 94 00 00 00       	add    eax,0x94
    1c03:	83 ec 08             	sub    esp,0x8
    1c06:	52                   	push   edx
    1c07:	50                   	push   eax
    1c08:	e8 f3 53 00 00       	call   7000 <__x86.get_pc_thunk.bx+0x106>
    1c0d:	83 c4 10             	add    esp,0x10
    1c10:	85 c0                	test   eax,eax
    1c12:	74 07                	je     1c1b <_check_file_open+0x83>
/home/yogi/NetBeansProjects/fatLib/../chrisOS/src/fat/fat_filelib.c:99
                return 1;
    1c14:	b8 01 00 00 00       	mov    eax,0x1
    1c19:	eb 14                	jmp    1c2f <_check_file_open+0x97>
/home/yogi/NetBeansProjects/fatLib/../chrisOS/src/fat/fat_filelib.c:90 (discriminator 2)
static int _check_file_open(FL_FILE* file)
{
    struct fat_node *node;

    // Compare open files
    fat_list_for_each(&_open_file_list, node)
    1c1b:	8b 45 f4             	mov    eax,DWORD PTR [ebp-0xc]
    1c1e:	8b 40 04             	mov    eax,DWORD PTR [eax+0x4]
    1c21:	89 45 f4             	mov    DWORD PTR [ebp-0xc],eax
/home/yogi/NetBeansProjects/fatLib/../chrisOS/src/fat/fat_filelib.c:90 (discriminator 1)
    1c24:	83 7d f4 00          	cmp    DWORD PTR [ebp-0xc],0x0
    1c28:	75 8b                	jne    1bb5 <_check_file_open+0x1d>
/home/yogi/NetBeansProjects/fatLib/../chrisOS/src/fat/fat_filelib.c:103
            if ( (fatfs_compare_names(openFile->path,file->path)) && (fatfs_compare_names(openFile->filename,file->filename)) )
                return 1;
        }
    }

    return 0;
    1c2a:	b8 00 00 00 00       	mov    eax,0x0
/home/yogi/NetBeansProjects/fatLib/../chrisOS/src/fat/fat_filelib.c:104
}
    1c2f:	8b 5d fc             	mov    ebx,DWORD PTR [ebp-0x4]
    1c32:	c9                   	leave  
    1c33:	c3                   	ret    

00001c34 <_free_file>:
_free_file():
/home/yogi/NetBeansProjects/fatLib/../chrisOS/src/fat/fat_filelib.c:109
//-----------------------------------------------------------------------------
// _free_file: Free open file handle
//-----------------------------------------------------------------------------
static void _free_file(FL_FILE* file)
{
    1c34:	55                   	push   ebp
    1c35:	89 e5                	mov    ebp,esp
    1c37:	53                   	push   ebx
    1c38:	e8 bd 52 00 00       	call   6efa <__x86.get_pc_thunk.bx>
    1c3d:	81 c3 eb 92 00 00    	add    ebx,0x92eb
/home/yogi/NetBeansProjects/fatLib/../chrisOS/src/fat/fat_filelib.c:111
    // Remove from open list
    fat_list_remove(&_open_file_list, &file->list_node);
    1c43:	8b 45 08             	mov    eax,DWORD PTR [ebp+0x8]
    1c46:	05 34 03 00 00       	add    eax,0x334
    1c4b:	50                   	push   eax
    1c4c:	8d 83 60 46 00 00    	lea    eax,[ebx+0x4660]
    1c52:	50                   	push   eax
    1c53:	e8 1d fd ff ff       	call   1975 <fat_list_remove>
    1c58:	83 c4 08             	add    esp,0x8
/home/yogi/NetBeansProjects/fatLib/../chrisOS/src/fat/fat_filelib.c:114

    // Add to free list
    fat_list_insert_last(&_free_file_list, &file->list_node);
    1c5b:	8b 45 08             	mov    eax,DWORD PTR [ebp+0x8]
    1c5e:	05 34 03 00 00       	add    eax,0x334
    1c63:	50                   	push   eax
    1c64:	8d 83 68 46 00 00    	lea    eax,[ebx+0x4668]
    1c6a:	50                   	push   eax
    1c6b:	e8 46 fe ff ff       	call   1ab6 <fat_list_insert_last>
    1c70:	83 c4 08             	add    esp,0x8
/home/yogi/NetBeansProjects/fatLib/../chrisOS/src/fat/fat_filelib.c:115
}
    1c73:	90                   	nop
    1c74:	8b 5d fc             	mov    ebx,DWORD PTR [ebp-0x4]
    1c77:	c9                   	leave  
    1c78:	c3                   	ret    

00001c79 <_open_directory>:
_open_directory():
/home/yogi/NetBeansProjects/fatLib/../chrisOS/src/fat/fat_filelib.c:126
//-----------------------------------------------------------------------------
// _open_directory: Cycle through path string to find the start cluster
// address of the highest subdir.
//-----------------------------------------------------------------------------
static int _open_directory(char *path, uint32 *pathCluster)
{
    1c79:	55                   	push   ebp
    1c7a:	89 e5                	mov    ebp,esp
    1c7c:	53                   	push   ebx
    1c7d:	81 ec b4 00 00 00    	sub    esp,0xb4
    1c83:	e8 72 52 00 00       	call   6efa <__x86.get_pc_thunk.bx>
    1c88:	81 c3 a0 92 00 00    	add    ebx,0x92a0
/home/yogi/NetBeansProjects/fatLib/../chrisOS/src/fat/fat_filelib.c:134
    char currentfolder[FATFS_MAX_LONG_FILENAME];
    struct fat_dir_entry sfEntry;
    uint32 startcluster;

    // Set starting cluster to root cluster
    startcluster = fatfs_get_root_cluster(&_fs);
    1c8e:	83 ec 0c             	sub    esp,0xc
    1c91:	8d 83 f8 41 00 00    	lea    eax,[ebx+0x41f8]
    1c97:	50                   	push   eax
    1c98:	e8 53 55 00 00       	call   71f0 <__x86.get_pc_thunk.bx+0x2f6>
    1c9d:	83 c4 10             	add    esp,0x10
    1ca0:	89 45 f0             	mov    DWORD PTR [ebp-0x10],eax
/home/yogi/NetBeansProjects/fatLib/../chrisOS/src/fat/fat_filelib.c:137

    // Find number of levels
    levels = fatfs_total_path_levels(path);
    1ca3:	83 ec 0c             	sub    esp,0xc
    1ca6:	ff 75 08             	push   DWORD PTR [ebp+0x8]
    1ca9:	e8 72 53 00 00       	call   7020 <__x86.get_pc_thunk.bx+0x126>
    1cae:	83 c4 10             	add    esp,0x10
    1cb1:	89 45 ec             	mov    DWORD PTR [ebp-0x14],eax
/home/yogi/NetBeansProjects/fatLib/../chrisOS/src/fat/fat_filelib.c:140

    // Cycle through each level and get the start sector
    for (sublevel=0;sublevel<(levels+1);sublevel++)
    1cb4:	c7 45 f4 00 00 00 00 	mov    DWORD PTR [ebp-0xc],0x0
    1cbb:	e9 95 00 00 00       	jmp    1d55 <_open_directory+0xdc>
/home/yogi/NetBeansProjects/fatLib/../chrisOS/src/fat/fat_filelib.c:142
    {
        if (fatfs_get_substring(path, sublevel, currentfolder, sizeof(currentfolder)) == -1)
    1cc0:	68 80 00 00 00       	push   0x80
    1cc5:	8d 85 6c ff ff ff    	lea    eax,[ebp-0x94]
    1ccb:	50                   	push   eax
    1ccc:	ff 75 f4             	push   DWORD PTR [ebp-0xc]
    1ccf:	ff 75 08             	push   DWORD PTR [ebp+0x8]
    1cd2:	e8 39 56 00 00       	call   7310 <__x86.get_pc_thunk.bx+0x416>
    1cd7:	83 c4 10             	add    esp,0x10
    1cda:	83 f8 ff             	cmp    eax,0xffffffff
    1cdd:	75 0a                	jne    1ce9 <_open_directory+0x70>
/home/yogi/NetBeansProjects/fatLib/../chrisOS/src/fat/fat_filelib.c:143
            return 0;
    1cdf:	b8 00 00 00 00       	mov    eax,0x0
    1ce4:	e9 88 00 00 00       	jmp    1d71 <_open_directory+0xf8>
/home/yogi/NetBeansProjects/fatLib/../chrisOS/src/fat/fat_filelib.c:146

        // Find clusteraddress for folder (currentfolder)
        if (fatfs_get_file_entry(&_fs, startcluster, currentfolder,&sfEntry))
    1ce9:	8d 85 4c ff ff ff    	lea    eax,[ebp-0xb4]
    1cef:	50                   	push   eax
    1cf0:	8d 85 6c ff ff ff    	lea    eax,[ebp-0x94]
    1cf6:	50                   	push   eax
    1cf7:	ff 75 f0             	push   DWORD PTR [ebp-0x10]
    1cfa:	8d 83 f8 41 00 00    	lea    eax,[ebx+0x41f8]
    1d00:	50                   	push   eax
    1d01:	e8 9a 55 00 00       	call   72a0 <__x86.get_pc_thunk.bx+0x3a6>
    1d06:	83 c4 10             	add    esp,0x10
    1d09:	85 c0                	test   eax,eax
    1d0b:	74 3d                	je     1d4a <_open_directory+0xd1>
/home/yogi/NetBeansProjects/fatLib/../chrisOS/src/fat/fat_filelib.c:149
        {
            // Check entry is folder
            if (fatfs_entry_is_dir(&sfEntry))
    1d0d:	83 ec 0c             	sub    esp,0xc
    1d10:	8d 85 4c ff ff ff    	lea    eax,[ebp-0xb4]
    1d16:	50                   	push   eax
    1d17:	e8 d4 53 00 00       	call   70f0 <__x86.get_pc_thunk.bx+0x1f6>
    1d1c:	83 c4 10             	add    esp,0x10
    1d1f:	85 c0                	test   eax,eax
    1d21:	74 20                	je     1d43 <_open_directory+0xca>
/home/yogi/NetBeansProjects/fatLib/../chrisOS/src/fat/fat_filelib.c:150
                startcluster = ((FAT_HTONS((uint32)sfEntry.FstClusHI))<<16) + FAT_HTONS(sfEntry.FstClusLO);
    1d23:	0f b7 85 60 ff ff ff 	movzx  eax,WORD PTR [ebp-0xa0]
    1d2a:	0f b7 c0             	movzx  eax,ax
    1d2d:	c1 e0 10             	shl    eax,0x10
    1d30:	89 c2                	mov    edx,eax
    1d32:	0f b7 85 66 ff ff ff 	movzx  eax,WORD PTR [ebp-0x9a]
    1d39:	0f b7 c0             	movzx  eax,ax
    1d3c:	01 d0                	add    eax,edx
    1d3e:	89 45 f0             	mov    DWORD PTR [ebp-0x10],eax
    1d41:	eb 0e                	jmp    1d51 <_open_directory+0xd8>
/home/yogi/NetBeansProjects/fatLib/../chrisOS/src/fat/fat_filelib.c:152
            else
                return 0;
    1d43:	b8 00 00 00 00       	mov    eax,0x0
    1d48:	eb 27                	jmp    1d71 <_open_directory+0xf8>
/home/yogi/NetBeansProjects/fatLib/../chrisOS/src/fat/fat_filelib.c:155
        }
        else
            return 0;
    1d4a:	b8 00 00 00 00       	mov    eax,0x0
    1d4f:	eb 20                	jmp    1d71 <_open_directory+0xf8>
/home/yogi/NetBeansProjects/fatLib/../chrisOS/src/fat/fat_filelib.c:140 (discriminator 2)

    // Find number of levels
    levels = fatfs_total_path_levels(path);

    // Cycle through each level and get the start sector
    for (sublevel=0;sublevel<(levels+1);sublevel++)
    1d51:	83 45 f4 01          	add    DWORD PTR [ebp-0xc],0x1
/home/yogi/NetBeansProjects/fatLib/../chrisOS/src/fat/fat_filelib.c:140 (discriminator 1)
    1d55:	8b 45 ec             	mov    eax,DWORD PTR [ebp-0x14]
    1d58:	83 c0 01             	add    eax,0x1
    1d5b:	3b 45 f4             	cmp    eax,DWORD PTR [ebp-0xc]
    1d5e:	0f 8f 5c ff ff ff    	jg     1cc0 <_open_directory+0x47>
/home/yogi/NetBeansProjects/fatLib/../chrisOS/src/fat/fat_filelib.c:158
        }
        else
            return 0;
    }

    *pathCluster = startcluster;
    1d64:	8b 45 0c             	mov    eax,DWORD PTR [ebp+0xc]
    1d67:	8b 55 f0             	mov    edx,DWORD PTR [ebp-0x10]
    1d6a:	89 10                	mov    DWORD PTR [eax],edx
/home/yogi/NetBeansProjects/fatLib/../chrisOS/src/fat/fat_filelib.c:159
    return 1;
    1d6c:	b8 01 00 00 00       	mov    eax,0x1
/home/yogi/NetBeansProjects/fatLib/../chrisOS/src/fat/fat_filelib.c:160 (discriminator 1)
}
    1d71:	8b 5d fc             	mov    ebx,DWORD PTR [ebp-0x4]
    1d74:	c9                   	leave  
    1d75:	c3                   	ret    

00001d76 <_create_directory>:
_create_directory():
/home/yogi/NetBeansProjects/fatLib/../chrisOS/src/fat/fat_filelib.c:166
//-----------------------------------------------------------------------------
// _create_directory: Cycle through path string and create the end directory
//-----------------------------------------------------------------------------
#if FATFS_INC_WRITE_SUPPORT
static int _create_directory(char *path)
{
    1d76:	55                   	push   ebp
    1d77:	89 e5                	mov    ebp,esp
    1d79:	56                   	push   esi
    1d7a:	53                   	push   ebx
    1d7b:	83 ec 40             	sub    esp,0x40
    1d7e:	e8 77 51 00 00       	call   6efa <__x86.get_pc_thunk.bx>
    1d83:	81 c3 a5 91 00 00    	add    ebx,0x91a5
/home/yogi/NetBeansProjects/fatLib/../chrisOS/src/fat/fat_filelib.c:170
    FL_FILE* file;
    struct fat_dir_entry sfEntry;
    char shortFilename[FAT_SFN_SIZE_FULL];
    int tailNum = 0;
    1d89:	c7 45 f4 00 00 00 00 	mov    DWORD PTR [ebp-0xc],0x0
/home/yogi/NetBeansProjects/fatLib/../chrisOS/src/fat/fat_filelib.c:174
    int i;

    // Allocate a new file handle
    file = _allocate_file();
    1d90:	e8 ad fd ff ff       	call   1b42 <_allocate_file>
    1d95:	89 45 ec             	mov    DWORD PTR [ebp-0x14],eax
/home/yogi/NetBeansProjects/fatLib/../chrisOS/src/fat/fat_filelib.c:175
    if (!file)
    1d98:	83 7d ec 00          	cmp    DWORD PTR [ebp-0x14],0x0
    1d9c:	75 0a                	jne    1da8 <_create_directory+0x32>
/home/yogi/NetBeansProjects/fatLib/../chrisOS/src/fat/fat_filelib.c:176
        return 0;
    1d9e:	b8 00 00 00 00       	mov    eax,0x0
    1da3:	e9 a6 03 00 00       	jmp    214e <_create_directory+0x3d8>
/home/yogi/NetBeansProjects/fatLib/../chrisOS/src/fat/fat_filelib.c:179

    // Clear filename
    memset(file->path, '\0', sizeof(file->path));
    1da8:	8b 45 ec             	mov    eax,DWORD PTR [ebp-0x14]
    1dab:	83 c0 14             	add    eax,0x14
    1dae:	83 ec 04             	sub    esp,0x4
    1db1:	68 80 00 00 00       	push   0x80
    1db6:	6a 00                	push   0x0
    1db8:	50                   	push   eax
    1db9:	e8 82 54 00 00       	call   7240 <__x86.get_pc_thunk.bx+0x346>
    1dbe:	83 c4 10             	add    esp,0x10
/home/yogi/NetBeansProjects/fatLib/../chrisOS/src/fat/fat_filelib.c:180
    memset(file->filename, '\0', sizeof(file->filename));
    1dc1:	8b 45 ec             	mov    eax,DWORD PTR [ebp-0x14]
    1dc4:	05 94 00 00 00       	add    eax,0x94
    1dc9:	83 ec 04             	sub    esp,0x4
    1dcc:	68 80 00 00 00       	push   0x80
    1dd1:	6a 00                	push   0x0
    1dd3:	50                   	push   eax
    1dd4:	e8 67 54 00 00       	call   7240 <__x86.get_pc_thunk.bx+0x346>
    1dd9:	83 c4 10             	add    esp,0x10
/home/yogi/NetBeansProjects/fatLib/../chrisOS/src/fat/fat_filelib.c:183

    // Split full path into filename and directory path
    if (fatfs_split_path((char*)path, file->path, sizeof(file->path), file->filename, sizeof(file->filename)) == -1)
    1ddc:	8b 45 ec             	mov    eax,DWORD PTR [ebp-0x14]
    1ddf:	8d 90 94 00 00 00    	lea    edx,[eax+0x94]
    1de5:	8b 45 ec             	mov    eax,DWORD PTR [ebp-0x14]
    1de8:	83 c0 14             	add    eax,0x14
    1deb:	83 ec 0c             	sub    esp,0xc
    1dee:	68 80 00 00 00       	push   0x80
    1df3:	52                   	push   edx
    1df4:	68 80 00 00 00       	push   0x80
    1df9:	50                   	push   eax
    1dfa:	ff 75 08             	push   DWORD PTR [ebp+0x8]
    1dfd:	e8 5e 52 00 00       	call   7060 <__x86.get_pc_thunk.bx+0x166>
    1e02:	83 c4 20             	add    esp,0x20
    1e05:	83 f8 ff             	cmp    eax,0xffffffff
    1e08:	75 18                	jne    1e22 <_create_directory+0xac>
/home/yogi/NetBeansProjects/fatLib/../chrisOS/src/fat/fat_filelib.c:185
    {
        _free_file(file);
    1e0a:	83 ec 0c             	sub    esp,0xc
    1e0d:	ff 75 ec             	push   DWORD PTR [ebp-0x14]
    1e10:	e8 1f fe ff ff       	call   1c34 <_free_file>
    1e15:	83 c4 10             	add    esp,0x10
/home/yogi/NetBeansProjects/fatLib/../chrisOS/src/fat/fat_filelib.c:186
        return 0;
    1e18:	b8 00 00 00 00       	mov    eax,0x0
    1e1d:	e9 2c 03 00 00       	jmp    214e <_create_directory+0x3d8>
/home/yogi/NetBeansProjects/fatLib/../chrisOS/src/fat/fat_filelib.c:190
    }

    // Check if file already open
    if (_check_file_open(file))
    1e22:	83 ec 0c             	sub    esp,0xc
    1e25:	ff 75 ec             	push   DWORD PTR [ebp-0x14]
    1e28:	e8 6b fd ff ff       	call   1b98 <_check_file_open>
    1e2d:	83 c4 10             	add    esp,0x10
    1e30:	85 c0                	test   eax,eax
    1e32:	74 18                	je     1e4c <_create_directory+0xd6>
/home/yogi/NetBeansProjects/fatLib/../chrisOS/src/fat/fat_filelib.c:192
    {
        _free_file(file);
    1e34:	83 ec 0c             	sub    esp,0xc
    1e37:	ff 75 ec             	push   DWORD PTR [ebp-0x14]
    1e3a:	e8 f5 fd ff ff       	call   1c34 <_free_file>
    1e3f:	83 c4 10             	add    esp,0x10
/home/yogi/NetBeansProjects/fatLib/../chrisOS/src/fat/fat_filelib.c:193
        return 0;
    1e42:	b8 00 00 00 00       	mov    eax,0x0
    1e47:	e9 02 03 00 00       	jmp    214e <_create_directory+0x3d8>
/home/yogi/NetBeansProjects/fatLib/../chrisOS/src/fat/fat_filelib.c:197
    }

    // If file is in the root dir
    if (file->path[0] == 0)
    1e4c:	8b 45 ec             	mov    eax,DWORD PTR [ebp-0x14]
    1e4f:	0f b6 40 14          	movzx  eax,BYTE PTR [eax+0x14]
    1e53:	84 c0                	test   al,al
    1e55:	75 1b                	jne    1e72 <_create_directory+0xfc>
/home/yogi/NetBeansProjects/fatLib/../chrisOS/src/fat/fat_filelib.c:198
        file->parentcluster = fatfs_get_root_cluster(&_fs);
    1e57:	83 ec 0c             	sub    esp,0xc
    1e5a:	8d 83 f8 41 00 00    	lea    eax,[ebx+0x41f8]
    1e60:	50                   	push   eax
    1e61:	e8 8a 53 00 00       	call   71f0 <__x86.get_pc_thunk.bx+0x2f6>
    1e66:	83 c4 10             	add    esp,0x10
    1e69:	89 c2                	mov    edx,eax
    1e6b:	8b 45 ec             	mov    eax,DWORD PTR [ebp-0x14]
    1e6e:	89 10                	mov    DWORD PTR [eax],edx
    1e70:	eb 32                	jmp    1ea4 <_create_directory+0x12e>
/home/yogi/NetBeansProjects/fatLib/../chrisOS/src/fat/fat_filelib.c:202
    else
    {
        // Find parent directory start cluster
        if (!_open_directory(file->path, &file->parentcluster))
    1e72:	8b 45 ec             	mov    eax,DWORD PTR [ebp-0x14]
    1e75:	8b 55 ec             	mov    edx,DWORD PTR [ebp-0x14]
    1e78:	83 c2 14             	add    edx,0x14
    1e7b:	83 ec 08             	sub    esp,0x8
    1e7e:	50                   	push   eax
    1e7f:	52                   	push   edx
    1e80:	e8 f4 fd ff ff       	call   1c79 <_open_directory>
    1e85:	83 c4 10             	add    esp,0x10
    1e88:	85 c0                	test   eax,eax
    1e8a:	75 18                	jne    1ea4 <_create_directory+0x12e>
/home/yogi/NetBeansProjects/fatLib/../chrisOS/src/fat/fat_filelib.c:204
        {
            _free_file(file);
    1e8c:	83 ec 0c             	sub    esp,0xc
    1e8f:	ff 75 ec             	push   DWORD PTR [ebp-0x14]
    1e92:	e8 9d fd ff ff       	call   1c34 <_free_file>
    1e97:	83 c4 10             	add    esp,0x10
/home/yogi/NetBeansProjects/fatLib/../chrisOS/src/fat/fat_filelib.c:205
            return 0;
    1e9a:	b8 00 00 00 00       	mov    eax,0x0
    1e9f:	e9 aa 02 00 00       	jmp    214e <_create_directory+0x3d8>
/home/yogi/NetBeansProjects/fatLib/../chrisOS/src/fat/fat_filelib.c:210
        }
    }

    // Check if same filename exists in directory
    if (fatfs_get_file_entry(&_fs, file->parentcluster, file->filename,&sfEntry) == 1)
    1ea4:	8b 45 ec             	mov    eax,DWORD PTR [ebp-0x14]
    1ea7:	8d 88 94 00 00 00    	lea    ecx,[eax+0x94]
    1ead:	8b 45 ec             	mov    eax,DWORD PTR [ebp-0x14]
    1eb0:	8b 00                	mov    eax,DWORD PTR [eax]
    1eb2:	8d 55 cc             	lea    edx,[ebp-0x34]
    1eb5:	52                   	push   edx
    1eb6:	51                   	push   ecx
    1eb7:	50                   	push   eax
    1eb8:	8d 83 f8 41 00 00    	lea    eax,[ebx+0x41f8]
    1ebe:	50                   	push   eax
    1ebf:	e8 dc 53 00 00       	call   72a0 <__x86.get_pc_thunk.bx+0x3a6>
    1ec4:	83 c4 10             	add    esp,0x10
    1ec7:	83 f8 01             	cmp    eax,0x1
    1eca:	75 18                	jne    1ee4 <_create_directory+0x16e>
/home/yogi/NetBeansProjects/fatLib/../chrisOS/src/fat/fat_filelib.c:212
    {
        _free_file(file);
    1ecc:	83 ec 0c             	sub    esp,0xc
    1ecf:	ff 75 ec             	push   DWORD PTR [ebp-0x14]
    1ed2:	e8 5d fd ff ff       	call   1c34 <_free_file>
    1ed7:	83 c4 10             	add    esp,0x10
/home/yogi/NetBeansProjects/fatLib/../chrisOS/src/fat/fat_filelib.c:213
        return 0;
    1eda:	b8 00 00 00 00       	mov    eax,0x0
    1edf:	e9 6a 02 00 00       	jmp    214e <_create_directory+0x3d8>
/home/yogi/NetBeansProjects/fatLib/../chrisOS/src/fat/fat_filelib.c:216
    }

    file->startcluster = 0;
    1ee4:	8b 45 ec             	mov    eax,DWORD PTR [ebp-0x14]
    1ee7:	c7 40 04 00 00 00 00 	mov    DWORD PTR [eax+0x4],0x0
/home/yogi/NetBeansProjects/fatLib/../chrisOS/src/fat/fat_filelib.c:219

    // Create the file space for the folder (at least one clusters worth!)
    if (!fatfs_allocate_free_space(&_fs, 1, &file->startcluster, 1))
    1eee:	8b 45 ec             	mov    eax,DWORD PTR [ebp-0x14]
    1ef1:	83 c0 04             	add    eax,0x4
    1ef4:	6a 01                	push   0x1
    1ef6:	50                   	push   eax
    1ef7:	6a 01                	push   0x1
    1ef9:	8d 83 f8 41 00 00    	lea    eax,[ebx+0x41f8]
    1eff:	50                   	push   eax
    1f00:	e8 6b 54 00 00       	call   7370 <__x86.get_pc_thunk.bx+0x476>
    1f05:	83 c4 10             	add    esp,0x10
    1f08:	85 c0                	test   eax,eax
    1f0a:	75 18                	jne    1f24 <_create_directory+0x1ae>
/home/yogi/NetBeansProjects/fatLib/../chrisOS/src/fat/fat_filelib.c:221
    {
        _free_file(file);
    1f0c:	83 ec 0c             	sub    esp,0xc
    1f0f:	ff 75 ec             	push   DWORD PTR [ebp-0x14]
    1f12:	e8 1d fd ff ff       	call   1c34 <_free_file>
    1f17:	83 c4 10             	add    esp,0x10
/home/yogi/NetBeansProjects/fatLib/../chrisOS/src/fat/fat_filelib.c:222
        return 0;
    1f1a:	b8 00 00 00 00       	mov    eax,0x0
    1f1f:	e9 2a 02 00 00       	jmp    214e <_create_directory+0x3d8>
/home/yogi/NetBeansProjects/fatLib/../chrisOS/src/fat/fat_filelib.c:226
    }

    // Erase new directory cluster
    memset(file->file_data_sector, 0x00, FAT_SECTOR_SIZE);
    1f24:	8b 45 ec             	mov    eax,DWORD PTR [ebp-0x14]
    1f27:	05 28 01 00 00       	add    eax,0x128
    1f2c:	83 ec 04             	sub    esp,0x4
    1f2f:	68 00 02 00 00       	push   0x200
    1f34:	6a 00                	push   0x0
    1f36:	50                   	push   eax
    1f37:	e8 04 53 00 00       	call   7240 <__x86.get_pc_thunk.bx+0x346>
    1f3c:	83 c4 10             	add    esp,0x10
/home/yogi/NetBeansProjects/fatLib/../chrisOS/src/fat/fat_filelib.c:227
    for (i=0;i<_fs.sectors_per_cluster;i++)
    1f3f:	c7 45 f0 00 00 00 00 	mov    DWORD PTR [ebp-0x10],0x0
    1f46:	eb 44                	jmp    1f8c <_create_directory+0x216>
/home/yogi/NetBeansProjects/fatLib/../chrisOS/src/fat/fat_filelib.c:229
    {
        if (!fatfs_write_sector(&_fs, file->startcluster, i, file->file_data_sector))
    1f48:	8b 45 ec             	mov    eax,DWORD PTR [ebp-0x14]
    1f4b:	8d 88 28 01 00 00    	lea    ecx,[eax+0x128]
    1f51:	8b 55 f0             	mov    edx,DWORD PTR [ebp-0x10]
    1f54:	8b 45 ec             	mov    eax,DWORD PTR [ebp-0x14]
    1f57:	8b 40 04             	mov    eax,DWORD PTR [eax+0x4]
    1f5a:	51                   	push   ecx
    1f5b:	52                   	push   edx
    1f5c:	50                   	push   eax
    1f5d:	8d 83 f8 41 00 00    	lea    eax,[ebx+0x41f8]
    1f63:	50                   	push   eax
    1f64:	e8 17 54 00 00       	call   7380 <__x86.get_pc_thunk.bx+0x486>
    1f69:	83 c4 10             	add    esp,0x10
    1f6c:	85 c0                	test   eax,eax
    1f6e:	75 18                	jne    1f88 <_create_directory+0x212>
/home/yogi/NetBeansProjects/fatLib/../chrisOS/src/fat/fat_filelib.c:231
        {
            _free_file(file);
    1f70:	83 ec 0c             	sub    esp,0xc
    1f73:	ff 75 ec             	push   DWORD PTR [ebp-0x14]
    1f76:	e8 b9 fc ff ff       	call   1c34 <_free_file>
    1f7b:	83 c4 10             	add    esp,0x10
/home/yogi/NetBeansProjects/fatLib/../chrisOS/src/fat/fat_filelib.c:232
            return 0;
    1f7e:	b8 00 00 00 00       	mov    eax,0x0
    1f83:	e9 c6 01 00 00       	jmp    214e <_create_directory+0x3d8>
/home/yogi/NetBeansProjects/fatLib/../chrisOS/src/fat/fat_filelib.c:227 (discriminator 2)
        return 0;
    }

    // Erase new directory cluster
    memset(file->file_data_sector, 0x00, FAT_SECTOR_SIZE);
    for (i=0;i<_fs.sectors_per_cluster;i++)
    1f88:	83 45 f0 01          	add    DWORD PTR [ebp-0x10],0x1
/home/yogi/NetBeansProjects/fatLib/../chrisOS/src/fat/fat_filelib.c:227 (discriminator 1)
    1f8c:	0f b6 83 f8 41 00 00 	movzx  eax,BYTE PTR [ebx+0x41f8]
    1f93:	0f b6 c0             	movzx  eax,al
    1f96:	3b 45 f0             	cmp    eax,DWORD PTR [ebp-0x10]
    1f99:	7f ad                	jg     1f48 <_create_directory+0x1d2>
/home/yogi/NetBeansProjects/fatLib/../chrisOS/src/fat/fat_filelib.c:239
    }

#if FATFS_INC_LFN_SUPPORT

    // Generate a short filename & tail
    tailNum = 0;
    1f9b:	c7 45 f4 00 00 00 00 	mov    DWORD PTR [ebp-0xc],0x0
/home/yogi/NetBeansProjects/fatLib/../chrisOS/src/fat/fat_filelib.c:243
    do
    {
        // Create a standard short filename (without tail)
        fatfs_lfn_create_sfn(shortFilename, file->filename);
    1fa2:	8b 45 ec             	mov    eax,DWORD PTR [ebp-0x14]
    1fa5:	05 94 00 00 00       	add    eax,0x94
    1faa:	83 ec 08             	sub    esp,0x8
    1fad:	50                   	push   eax
    1fae:	8d 45 c1             	lea    eax,[ebp-0x3f]
    1fb1:	50                   	push   eax
    1fb2:	e8 49 53 00 00       	call   7300 <__x86.get_pc_thunk.bx+0x406>
    1fb7:	83 c4 10             	add    esp,0x10
/home/yogi/NetBeansProjects/fatLib/../chrisOS/src/fat/fat_filelib.c:246

        // If second hit or more, generate a ~n tail
        if (tailNum != 0)
    1fba:	83 7d f4 00          	cmp    DWORD PTR [ebp-0xc],0x0
    1fbe:	74 1f                	je     1fdf <_create_directory+0x269>
/home/yogi/NetBeansProjects/fatLib/../chrisOS/src/fat/fat_filelib.c:247
            fatfs_lfn_generate_tail((char*)file->shortfilename, shortFilename, tailNum);
    1fc0:	8b 45 f4             	mov    eax,DWORD PTR [ebp-0xc]
    1fc3:	8b 55 ec             	mov    edx,DWORD PTR [ebp-0x14]
    1fc6:	81 c2 14 01 00 00    	add    edx,0x114
    1fcc:	83 ec 04             	sub    esp,0x4
    1fcf:	50                   	push   eax
    1fd0:	8d 45 c1             	lea    eax,[ebp-0x3f]
    1fd3:	50                   	push   eax
    1fd4:	52                   	push   edx
    1fd5:	e8 d6 50 00 00       	call   70b0 <__x86.get_pc_thunk.bx+0x1b6>
    1fda:	83 c4 10             	add    esp,0x10
    1fdd:	eb 1b                	jmp    1ffa <_create_directory+0x284>
/home/yogi/NetBeansProjects/fatLib/../chrisOS/src/fat/fat_filelib.c:250
        // Try with no tail if first entry
        else
            memcpy(file->shortfilename, shortFilename, FAT_SFN_SIZE_FULL);
    1fdf:	8b 45 ec             	mov    eax,DWORD PTR [ebp-0x14]
    1fe2:	8d 90 14 01 00 00    	lea    edx,[eax+0x114]
    1fe8:	83 ec 04             	sub    esp,0x4
    1feb:	6a 0b                	push   0xb
    1fed:	8d 45 c1             	lea    eax,[ebp-0x3f]
    1ff0:	50                   	push   eax
    1ff1:	52                   	push   edx
    1ff2:	e8 c9 4f 00 00       	call   6fc0 <__x86.get_pc_thunk.bx+0xc6>
    1ff7:	83 c4 10             	add    esp,0x10
/home/yogi/NetBeansProjects/fatLib/../chrisOS/src/fat/fat_filelib.c:253

        // Check if entry exists already or not
        if (fatfs_sfn_exists(&_fs, file->parentcluster, (char*)file->shortfilename) == 0)
    1ffa:	8b 45 ec             	mov    eax,DWORD PTR [ebp-0x14]
    1ffd:	8d 90 14 01 00 00    	lea    edx,[eax+0x114]
    2003:	8b 45 ec             	mov    eax,DWORD PTR [ebp-0x14]
    2006:	8b 00                	mov    eax,DWORD PTR [eax]
    2008:	83 ec 04             	sub    esp,0x4
    200b:	52                   	push   edx
    200c:	50                   	push   eax
    200d:	8d 83 f8 41 00 00    	lea    eax,[ebx+0x41f8]
    2013:	50                   	push   eax
    2014:	e8 37 50 00 00       	call   7050 <__x86.get_pc_thunk.bx+0x156>
    2019:	83 c4 10             	add    esp,0x10
    201c:	85 c0                	test   eax,eax
    201e:	74 13                	je     2033 <_create_directory+0x2bd>
/home/yogi/NetBeansProjects/fatLib/../chrisOS/src/fat/fat_filelib.c:256
            break;

        tailNum++;
    2020:	83 45 f4 01          	add    DWORD PTR [ebp-0xc],0x1
/home/yogi/NetBeansProjects/fatLib/../chrisOS/src/fat/fat_filelib.c:258
    }
    while (tailNum < 9999);
    2024:	81 7d f4 0e 27 00 00 	cmp    DWORD PTR [ebp-0xc],0x270e
    202b:	0f 8e 71 ff ff ff    	jle    1fa2 <_create_directory+0x22c>
    2031:	eb 01                	jmp    2034 <_create_directory+0x2be>
/home/yogi/NetBeansProjects/fatLib/../chrisOS/src/fat/fat_filelib.c:254
        else
            memcpy(file->shortfilename, shortFilename, FAT_SFN_SIZE_FULL);

        // Check if entry exists already or not
        if (fatfs_sfn_exists(&_fs, file->parentcluster, (char*)file->shortfilename) == 0)
            break;
    2033:	90                   	nop
/home/yogi/NetBeansProjects/fatLib/../chrisOS/src/fat/fat_filelib.c:261
        tailNum++;
    }
    while (tailNum < 9999);

    // We reached the max number of duplicate short file names (unlikely!)
    if (tailNum == 9999)
    2034:	81 7d f4 0f 27 00 00 	cmp    DWORD PTR [ebp-0xc],0x270f
    203b:	75 31                	jne    206e <_create_directory+0x2f8>
/home/yogi/NetBeansProjects/fatLib/../chrisOS/src/fat/fat_filelib.c:264
    {
        // Delete allocated space
        fatfs_free_cluster_chain(&_fs, file->startcluster);
    203d:	8b 45 ec             	mov    eax,DWORD PTR [ebp-0x14]
    2040:	8b 40 04             	mov    eax,DWORD PTR [eax+0x4]
    2043:	83 ec 08             	sub    esp,0x8
    2046:	50                   	push   eax
    2047:	8d 83 f8 41 00 00    	lea    eax,[ebx+0x41f8]
    204d:	50                   	push   eax
    204e:	e8 cd 52 00 00       	call   7320 <__x86.get_pc_thunk.bx+0x426>
    2053:	83 c4 10             	add    esp,0x10
/home/yogi/NetBeansProjects/fatLib/../chrisOS/src/fat/fat_filelib.c:266

        _free_file(file);
    2056:	83 ec 0c             	sub    esp,0xc
    2059:	ff 75 ec             	push   DWORD PTR [ebp-0x14]
    205c:	e8 d3 fb ff ff       	call   1c34 <_free_file>
    2061:	83 c4 10             	add    esp,0x10
/home/yogi/NetBeansProjects/fatLib/../chrisOS/src/fat/fat_filelib.c:267
        return 0;
    2064:	b8 00 00 00 00       	mov    eax,0x0
    2069:	e9 e0 00 00 00       	jmp    214e <_create_directory+0x3d8>
/home/yogi/NetBeansProjects/fatLib/../chrisOS/src/fat/fat_filelib.c:295
        return 0;
    }
#endif

    // Add file to disk
    if (!fatfs_add_file_entry(&_fs, file->parentcluster, (char*)file->filename, (char*)file->shortfilename, file->startcluster, 0, 1))
    206e:	8b 45 ec             	mov    eax,DWORD PTR [ebp-0x14]
    2071:	8b 50 04             	mov    edx,DWORD PTR [eax+0x4]
    2074:	8b 45 ec             	mov    eax,DWORD PTR [ebp-0x14]
    2077:	8d b0 14 01 00 00    	lea    esi,[eax+0x114]
    207d:	8b 45 ec             	mov    eax,DWORD PTR [ebp-0x14]
    2080:	8d 88 94 00 00 00    	lea    ecx,[eax+0x94]
    2086:	8b 45 ec             	mov    eax,DWORD PTR [ebp-0x14]
    2089:	8b 00                	mov    eax,DWORD PTR [eax]
    208b:	83 ec 04             	sub    esp,0x4
    208e:	6a 01                	push   0x1
    2090:	6a 00                	push   0x0
    2092:	52                   	push   edx
    2093:	56                   	push   esi
    2094:	51                   	push   ecx
    2095:	50                   	push   eax
    2096:	8d 83 f8 41 00 00    	lea    eax,[ebx+0x41f8]
    209c:	50                   	push   eax
    209d:	e8 3e 50 00 00       	call   70e0 <__x86.get_pc_thunk.bx+0x1e6>
    20a2:	83 c4 20             	add    esp,0x20
    20a5:	85 c0                	test   eax,eax
    20a7:	75 2e                	jne    20d7 <_create_directory+0x361>
/home/yogi/NetBeansProjects/fatLib/../chrisOS/src/fat/fat_filelib.c:298
    {
        // Delete allocated space
        fatfs_free_cluster_chain(&_fs, file->startcluster);
    20a9:	8b 45 ec             	mov    eax,DWORD PTR [ebp-0x14]
    20ac:	8b 40 04             	mov    eax,DWORD PTR [eax+0x4]
    20af:	83 ec 08             	sub    esp,0x8
    20b2:	50                   	push   eax
    20b3:	8d 83 f8 41 00 00    	lea    eax,[ebx+0x41f8]
    20b9:	50                   	push   eax
    20ba:	e8 61 52 00 00       	call   7320 <__x86.get_pc_thunk.bx+0x426>
    20bf:	83 c4 10             	add    esp,0x10
/home/yogi/NetBeansProjects/fatLib/../chrisOS/src/fat/fat_filelib.c:300

        _free_file(file);
    20c2:	83 ec 0c             	sub    esp,0xc
    20c5:	ff 75 ec             	push   DWORD PTR [ebp-0x14]
    20c8:	e8 67 fb ff ff       	call   1c34 <_free_file>
    20cd:	83 c4 10             	add    esp,0x10
/home/yogi/NetBeansProjects/fatLib/../chrisOS/src/fat/fat_filelib.c:301
        return 0;
    20d0:	b8 00 00 00 00       	mov    eax,0x0
    20d5:	eb 77                	jmp    214e <_create_directory+0x3d8>
/home/yogi/NetBeansProjects/fatLib/../chrisOS/src/fat/fat_filelib.c:305
    }

    // General
    file->filelength = 0;
    20d7:	8b 45 ec             	mov    eax,DWORD PTR [ebp-0x14]
    20da:	c7 40 0c 00 00 00 00 	mov    DWORD PTR [eax+0xc],0x0
/home/yogi/NetBeansProjects/fatLib/../chrisOS/src/fat/fat_filelib.c:306
    file->bytenum = 0;
    20e1:	8b 45 ec             	mov    eax,DWORD PTR [ebp-0x14]
    20e4:	c7 40 08 00 00 00 00 	mov    DWORD PTR [eax+0x8],0x0
/home/yogi/NetBeansProjects/fatLib/../chrisOS/src/fat/fat_filelib.c:307
    file->file_data_address = 0xFFFFFFFF;
    20eb:	8b 45 ec             	mov    eax,DWORD PTR [ebp-0x14]
    20ee:	c7 80 28 03 00 00 ff 	mov    DWORD PTR [eax+0x328],0xffffffff
    20f5:	ff ff ff 
/home/yogi/NetBeansProjects/fatLib/../chrisOS/src/fat/fat_filelib.c:308
    file->file_data_dirty = 0;
    20f8:	8b 45 ec             	mov    eax,DWORD PTR [ebp-0x14]
    20fb:	c7 80 2c 03 00 00 00 	mov    DWORD PTR [eax+0x32c],0x0
    2102:	00 00 00 
/home/yogi/NetBeansProjects/fatLib/../chrisOS/src/fat/fat_filelib.c:309
    file->filelength_changed = 0;
    2105:	8b 45 ec             	mov    eax,DWORD PTR [ebp-0x14]
    2108:	c7 40 10 00 00 00 00 	mov    DWORD PTR [eax+0x10],0x0
/home/yogi/NetBeansProjects/fatLib/../chrisOS/src/fat/fat_filelib.c:312

    // Quick lookup for next link in the chain
    file->last_fat_lookup.ClusterIdx = 0xFFFFFFFF;
    210f:	8b 45 ec             	mov    eax,DWORD PTR [ebp-0x14]
    2112:	c7 80 20 01 00 00 ff 	mov    DWORD PTR [eax+0x120],0xffffffff
    2119:	ff ff ff 
/home/yogi/NetBeansProjects/fatLib/../chrisOS/src/fat/fat_filelib.c:313
    file->last_fat_lookup.CurrentCluster = 0xFFFFFFFF;
    211c:	8b 45 ec             	mov    eax,DWORD PTR [ebp-0x14]
    211f:	c7 80 24 01 00 00 ff 	mov    DWORD PTR [eax+0x124],0xffffffff
    2126:	ff ff ff 
/home/yogi/NetBeansProjects/fatLib/../chrisOS/src/fat/fat_filelib.c:315

    fatfs_fat_purge(&_fs);
    2129:	83 ec 0c             	sub    esp,0xc
    212c:	8d 83 f8 41 00 00    	lea    eax,[ebx+0x41f8]
    2132:	50                   	push   eax
    2133:	e8 68 4e 00 00       	call   6fa0 <__x86.get_pc_thunk.bx+0xa6>
    2138:	83 c4 10             	add    esp,0x10
/home/yogi/NetBeansProjects/fatLib/../chrisOS/src/fat/fat_filelib.c:317

    _free_file(file);
    213b:	83 ec 0c             	sub    esp,0xc
    213e:	ff 75 ec             	push   DWORD PTR [ebp-0x14]
    2141:	e8 ee fa ff ff       	call   1c34 <_free_file>
    2146:	83 c4 10             	add    esp,0x10
/home/yogi/NetBeansProjects/fatLib/../chrisOS/src/fat/fat_filelib.c:318
    return 1;
    2149:	b8 01 00 00 00       	mov    eax,0x1
