
Debug/cross-Linux/kshell:     file format elf32-i386


Disassembly of section .text:

03100000 <execInternalCommand>:
execInternalCommand():
/home/yogi/src/os/kshell/kshell.c:24
uint32_t exitCode=0;

extern int kATADeviceInfoCount;

void execInternalCommand(char lCommand[256])
{
 3100000:	55                   	push   ebp
 3100001:	89 e5                	mov    ebp,esp
 3100003:	53                   	push   ebx
 3100004:	83 ec 14             	sub    esp,0x14
/home/yogi/src/os/kshell/kshell.c:25
    int i = findCommand(lCommand);
 3100007:	83 ec 0c             	sub    esp,0xc
 310000a:	ff 75 08             	push   DWORD PTR [ebp+0x8]
 310000d:	e8 e3 01 00 00       	call   31001f5 <findCommand>
 3100012:	83 c4 10             	add    esp,0x10
 3100015:	89 45 f4             	mov    DWORD PTR [ebp-0xc],eax
/home/yogi/src/os/kshell/kshell.c:27

    if(i>0)
 3100018:	83 7d f4 00          	cmp    DWORD PTR [ebp-0xc],0x0
 310001c:	7e 74                	jle    3100092 <execInternalCommand+0x92>
/home/yogi/src/os/kshell/kshell.c:29
    {
        i--;
 310001e:	83 6d f4 01          	sub    DWORD PTR [ebp-0xc],0x1
/home/yogi/src/os/kshell/kshell.c:31
        //print("Executing command # %u (%s)\n", i, cmds[i].name);
        command_function = cmds[i].function;
 3100022:	8b 45 f4             	mov    eax,DWORD PTR [ebp-0xc]
 3100025:	c1 e0 04             	shl    eax,0x4
 3100028:	05 68 0f 10 03       	add    eax,0x3100f68
 310002d:	8b 00                	mov    eax,DWORD PTR [eax]
 310002f:	a3 b4 12 10 03       	mov    ds:0x31012b4,eax
/home/yogi/src/os/kshell/kshell.c:32
        command_function_p = cmds[i].function;
 3100034:	8b 45 f4             	mov    eax,DWORD PTR [ebp-0xc]
 3100037:	c1 e0 04             	shl    eax,0x4
 310003a:	05 68 0f 10 03       	add    eax,0x3100f68
 310003f:	8b 00                	mov    eax,DWORD PTR [eax]
 3100041:	a3 a0 12 10 03       	mov    ds:0x31012a0,eax
/home/yogi/src/os/kshell/kshell.c:33
        if (cmds[i].paramCount==0)
 3100046:	8b 45 f4             	mov    eax,DWORD PTR [ebp-0xc]
 3100049:	c1 e0 04             	shl    eax,0x4
 310004c:	05 6c 0f 10 03       	add    eax,0x3100f6c
 3100051:	8b 00                	mov    eax,DWORD PTR [eax]
 3100053:	85 c0                	test   eax,eax
 3100055:	75 09                	jne    3100060 <execInternalCommand+0x60>
/home/yogi/src/os/kshell/kshell.c:34
            command_function();
 3100057:	a1 b4 12 10 03       	mov    eax,ds:0x31012b4
 310005c:	ff d0                	call   eax
/home/yogi/src/os/kshell/kshell.c:44
    }
    else
    {
        print("Invalid command '%s' ya dummy!\n",lCommand);
    }
}
 310005e:	eb 45                	jmp    31000a5 <execInternalCommand+0xa5>
/home/yogi/src/os/kshell/kshell.c:37
        command_function_p = cmds[i].function;
        if (cmds[i].paramCount==0)
            command_function();
        else
        {
            command_function_p(&lCommand[strlen(cmds[i].name)+1]);  
 3100060:	8b 1d a0 12 10 03    	mov    ebx,DWORD PTR ds:0x31012a0
 3100066:	8b 45 f4             	mov    eax,DWORD PTR [ebp-0xc]
 3100069:	c1 e0 04             	shl    eax,0x4
 310006c:	05 60 0f 10 03       	add    eax,0x3100f60
 3100071:	8b 00                	mov    eax,DWORD PTR [eax]
 3100073:	83 ec 0c             	sub    esp,0xc
 3100076:	50                   	push   eax
 3100077:	e8 14 09 00 00       	call   3100990 <kShell+0x2c9>
 310007c:	83 c4 10             	add    esp,0x10
 310007f:	8d 50 01             	lea    edx,[eax+0x1]
 3100082:	8b 45 08             	mov    eax,DWORD PTR [ebp+0x8]
 3100085:	01 d0                	add    eax,edx
 3100087:	83 ec 0c             	sub    esp,0xc
 310008a:	50                   	push   eax
 310008b:	ff d3                	call   ebx
 310008d:	83 c4 10             	add    esp,0x10
/home/yogi/src/os/kshell/kshell.c:44
    }
    else
    {
        print("Invalid command '%s' ya dummy!\n",lCommand);
    }
}
 3100090:	eb 13                	jmp    31000a5 <execInternalCommand+0xa5>
/home/yogi/src/os/kshell/kshell.c:42
            command_function_p(&lCommand[strlen(cmds[i].name)+1]);  
        }
    }
    else
    {
        print("Invalid command '%s' ya dummy!\n",lCommand);
 3100092:	83 ec 08             	sub    esp,0x8
 3100095:	ff 75 08             	push   DWORD PTR [ebp+0x8]
 3100098:	68 14 0a 10 03       	push   0x3100a14
 310009d:	e8 4e 08 00 00       	call   31008f0 <kShell+0x229>
 31000a2:	83 c4 10             	add    esp,0x10
/home/yogi/src/os/kshell/kshell.c:44
    }
}
 31000a5:	90                   	nop
 31000a6:	8b 5d fc             	mov    ebx,DWORD PTR [ebp-0x4]
 31000a9:	c9                   	leave  
 31000aa:	c3                   	ret    

031000ab <parseParamsShell>:
parseParamsShell():
/home/yogi/src/os/kshell/kshell.c:47

int parseParamsShell(char* cmdLine, char params[MAX_PARAM_COUNT][MAX_PARAM_WIDTH], int size)
    {
 31000ab:	55                   	push   ebp
 31000ac:	89 e5                	mov    ebp,esp
 31000ae:	53                   	push   ebx
 31000af:	83 ec 24             	sub    esp,0x24
/home/yogi/src/os/kshell/kshell.c:48
    int x=0,y=0;
 31000b2:	c7 45 f4 00 00 00 00 	mov    DWORD PTR [ebp-0xc],0x0
 31000b9:	c7 45 f0 00 00 00 00 	mov    DWORD PTR [ebp-0x10],0x0
/home/yogi/src/os/kshell/kshell.c:49
    int lRetVal=0,parsedChars=0;
 31000c0:	c7 45 ec 00 00 00 00 	mov    DWORD PTR [ebp-0x14],0x0
 31000c7:	c7 45 e8 00 00 00 00 	mov    DWORD PTR [ebp-0x18],0x0
/home/yogi/src/os/kshell/kshell.c:51
    
    memset(params,0, size);
 31000ce:	8b 45 10             	mov    eax,DWORD PTR [ebp+0x10]
 31000d1:	83 ec 04             	sub    esp,0x4
 31000d4:	50                   	push   eax
 31000d5:	6a 00                	push   0x0
 31000d7:	ff 75 0c             	push   DWORD PTR [ebp+0xc]
 31000da:	e8 91 08 00 00       	call   3100970 <kShell+0x2a9>
 31000df:	83 c4 10             	add    esp,0x10
/home/yogi/src/os/kshell/kshell.c:53
    //print("commandLine=%s\n",cmdLine);
    for (unsigned cnt=0;cnt<strlen(cmdLine);cnt++)
 31000e2:	c7 45 e4 00 00 00 00 	mov    DWORD PTR [ebp-0x1c],0x0
 31000e9:	e9 c9 00 00 00       	jmp    31001b7 <parseParamsShell+0x10c>
/home/yogi/src/os/kshell/kshell.c:56
    {
        //print("c=%c\n", cmdLine[cnt]);
        if ( (cmdLine[cnt]==' ' || cmdLine[cnt]=='-') || cmdLine[cnt]==',')
 31000ee:	8b 55 08             	mov    edx,DWORD PTR [ebp+0x8]
 31000f1:	8b 45 e4             	mov    eax,DWORD PTR [ebp-0x1c]
 31000f4:	01 d0                	add    eax,edx
 31000f6:	0f b6 00             	movzx  eax,BYTE PTR [eax]
 31000f9:	3c 20                	cmp    al,0x20
 31000fb:	74 1e                	je     310011b <parseParamsShell+0x70>
/home/yogi/src/os/kshell/kshell.c:56 (discriminator 1)
 31000fd:	8b 55 08             	mov    edx,DWORD PTR [ebp+0x8]
 3100100:	8b 45 e4             	mov    eax,DWORD PTR [ebp-0x1c]
 3100103:	01 d0                	add    eax,edx
 3100105:	0f b6 00             	movzx  eax,BYTE PTR [eax]
 3100108:	3c 2d                	cmp    al,0x2d
 310010a:	74 0f                	je     310011b <parseParamsShell+0x70>
/home/yogi/src/os/kshell/kshell.c:56 (discriminator 2)
 310010c:	8b 55 08             	mov    edx,DWORD PTR [ebp+0x8]
 310010f:	8b 45 e4             	mov    eax,DWORD PTR [ebp-0x1c]
 3100112:	01 d0                	add    eax,edx
 3100114:	0f b6 00             	movzx  eax,BYTE PTR [eax]
 3100117:	3c 2c                	cmp    al,0x2c
 3100119:	75 6f                	jne    310018a <parseParamsShell+0xdf>
/home/yogi/src/os/kshell/kshell.c:59
        {
            //print("Found a delimiter (%c), incrementing y to %u, setting x to 0\n",cmdLine[cnt],y+1);
            if (cmdLine[cnt]=='-' || cmdLine[cnt]=='/')
 310011b:	8b 55 08             	mov    edx,DWORD PTR [ebp+0x8]
 310011e:	8b 45 e4             	mov    eax,DWORD PTR [ebp-0x1c]
 3100121:	01 d0                	add    eax,edx
 3100123:	0f b6 00             	movzx  eax,BYTE PTR [eax]
 3100126:	3c 2d                	cmp    al,0x2d
 3100128:	74 0f                	je     3100139 <parseParamsShell+0x8e>
/home/yogi/src/os/kshell/kshell.c:59 (discriminator 1)
 310012a:	8b 55 08             	mov    edx,DWORD PTR [ebp+0x8]
 310012d:	8b 45 e4             	mov    eax,DWORD PTR [ebp-0x1c]
 3100130:	01 d0                	add    eax,edx
 3100132:	0f b6 00             	movzx  eax,BYTE PTR [eax]
 3100135:	3c 2f                	cmp    al,0x2f
 3100137:	75 25                	jne    310015e <parseParamsShell+0xb3>
/home/yogi/src/os/kshell/kshell.c:60
                params[y][x++]=cmdLine[cnt];
 3100139:	8b 45 f0             	mov    eax,DWORD PTR [ebp-0x10]
 310013c:	c1 e0 09             	shl    eax,0x9
 310013f:	89 c2                	mov    edx,eax
 3100141:	8b 45 0c             	mov    eax,DWORD PTR [ebp+0xc]
 3100144:	8d 0c 02             	lea    ecx,[edx+eax*1]
 3100147:	8b 45 f4             	mov    eax,DWORD PTR [ebp-0xc]
 310014a:	8d 50 01             	lea    edx,[eax+0x1]
 310014d:	89 55 f4             	mov    DWORD PTR [ebp-0xc],edx
 3100150:	8b 5d 08             	mov    ebx,DWORD PTR [ebp+0x8]
 3100153:	8b 55 e4             	mov    edx,DWORD PTR [ebp-0x1c]
 3100156:	01 da                	add    edx,ebx
 3100158:	0f b6 12             	movzx  edx,BYTE PTR [edx]
 310015b:	88 14 01             	mov    BYTE PTR [ecx+eax*1],dl
/home/yogi/src/os/kshell/kshell.c:61
            params[y][x]='\0';
 310015e:	8b 45 f0             	mov    eax,DWORD PTR [ebp-0x10]
 3100161:	c1 e0 09             	shl    eax,0x9
 3100164:	89 c2                	mov    edx,eax
 3100166:	8b 45 0c             	mov    eax,DWORD PTR [ebp+0xc]
 3100169:	01 c2                	add    edx,eax
 310016b:	8b 45 f4             	mov    eax,DWORD PTR [ebp-0xc]
 310016e:	01 d0                	add    eax,edx
 3100170:	c6 00 00             	mov    BYTE PTR [eax],0x0
/home/yogi/src/os/kshell/kshell.c:62
            if (cnt>0)
 3100173:	83 7d e4 00          	cmp    DWORD PTR [ebp-0x1c],0x0
 3100177:	74 36                	je     31001af <parseParamsShell+0x104>
/home/yogi/src/os/kshell/kshell.c:63
                {x=0;y++;lRetVal++;}
 3100179:	c7 45 f4 00 00 00 00 	mov    DWORD PTR [ebp-0xc],0x0
 3100180:	83 45 f0 01          	add    DWORD PTR [ebp-0x10],0x1
 3100184:	83 45 ec 01          	add    DWORD PTR [ebp-0x14],0x1
/home/yogi/src/os/kshell/kshell.c:62
        {
            //print("Found a delimiter (%c), incrementing y to %u, setting x to 0\n",cmdLine[cnt],y+1);
            if (cmdLine[cnt]=='-' || cmdLine[cnt]=='/')
                params[y][x++]=cmdLine[cnt];
            params[y][x]='\0';
            if (cnt>0)
 3100188:	eb 25                	jmp    31001af <parseParamsShell+0x104>
/home/yogi/src/os/kshell/kshell.c:68
                {x=0;y++;lRetVal++;}
        }
        else
        {
            //print("Found a character to put at position %u,%u\n",y,x);
            params[y][x++]=cmdLine[cnt];
 310018a:	8b 45 f0             	mov    eax,DWORD PTR [ebp-0x10]
 310018d:	c1 e0 09             	shl    eax,0x9
 3100190:	89 c2                	mov    edx,eax
 3100192:	8b 45 0c             	mov    eax,DWORD PTR [ebp+0xc]
 3100195:	8d 0c 02             	lea    ecx,[edx+eax*1]
 3100198:	8b 45 f4             	mov    eax,DWORD PTR [ebp-0xc]
 310019b:	8d 50 01             	lea    edx,[eax+0x1]
 310019e:	89 55 f4             	mov    DWORD PTR [ebp-0xc],edx
 31001a1:	8b 5d 08             	mov    ebx,DWORD PTR [ebp+0x8]
 31001a4:	8b 55 e4             	mov    edx,DWORD PTR [ebp-0x1c]
 31001a7:	01 da                	add    edx,ebx
 31001a9:	0f b6 12             	movzx  edx,BYTE PTR [edx]
 31001ac:	88 14 01             	mov    BYTE PTR [ecx+eax*1],dl
/home/yogi/src/os/kshell/kshell.c:70 (discriminator 2)
        }
        parsedChars++;
 31001af:	83 45 e8 01          	add    DWORD PTR [ebp-0x18],0x1
/home/yogi/src/os/kshell/kshell.c:53 (discriminator 2)
    int x=0,y=0;
    int lRetVal=0,parsedChars=0;
    
    memset(params,0, size);
    //print("commandLine=%s\n",cmdLine);
    for (unsigned cnt=0;cnt<strlen(cmdLine);cnt++)
 31001b3:	83 45 e4 01          	add    DWORD PTR [ebp-0x1c],0x1
/home/yogi/src/os/kshell/kshell.c:53 (discriminator 1)
 31001b7:	83 ec 0c             	sub    esp,0xc
 31001ba:	ff 75 08             	push   DWORD PTR [ebp+0x8]
 31001bd:	e8 ce 07 00 00       	call   3100990 <kShell+0x2c9>
 31001c2:	83 c4 10             	add    esp,0x10
 31001c5:	3b 45 e4             	cmp    eax,DWORD PTR [ebp-0x1c]
 31001c8:	0f 87 20 ff ff ff    	ja     31000ee <parseParamsShell+0x43>
/home/yogi/src/os/kshell/kshell.c:72
            //print("Found a character to put at position %u,%u\n",y,x);
            params[y][x++]=cmdLine[cnt];
        }
        parsedChars++;
    }
    if (parsedChars)
 31001ce:	83 7d e8 00          	cmp    DWORD PTR [ebp-0x18],0x0
 31001d2:	74 19                	je     31001ed <parseParamsShell+0x142>
/home/yogi/src/os/kshell/kshell.c:74
    {
        lRetVal++;
 31001d4:	83 45 ec 01          	add    DWORD PTR [ebp-0x14],0x1
/home/yogi/src/os/kshell/kshell.c:75
        params[y][x]='\0';
 31001d8:	8b 45 f0             	mov    eax,DWORD PTR [ebp-0x10]
 31001db:	c1 e0 09             	shl    eax,0x9
 31001de:	89 c2                	mov    edx,eax
 31001e0:	8b 45 0c             	mov    eax,DWORD PTR [ebp+0xc]
 31001e3:	01 c2                	add    edx,eax
 31001e5:	8b 45 f4             	mov    eax,DWORD PTR [ebp-0xc]
 31001e8:	01 d0                	add    eax,edx
 31001ea:	c6 00 00             	mov    BYTE PTR [eax],0x0
/home/yogi/src/os/kshell/kshell.c:80
    }
    //print("Returning %u parameters:\n", lRetVal);
    //for (int cnt=0;cnt<lRetVal;cnt++)
        //print("\tParameter %u: '%s'\n", cnt, params[cnt]);
    return lRetVal;
 31001ed:	8b 45 ec             	mov    eax,DWORD PTR [ebp-0x14]
/home/yogi/src/os/kshell/kshell.c:81
}
 31001f0:	8b 5d fc             	mov    ebx,DWORD PTR [ebp-0x4]
 31001f3:	c9                   	leave  
 31001f4:	c3                   	ret    

031001f5 <findCommand>:
findCommand():
/home/yogi/src/os/kshell/kshell.c:84

int findCommand(char* command)
{
 31001f5:	55                   	push   ebp
 31001f6:	89 e5                	mov    ebp,esp
 31001f8:	83 ec 18             	sub    esp,0x18
/home/yogi/src/os/kshell/kshell.c:88
    unsigned i;
    int ret;
    
    for(i = 0; i < NUMBER_OF_COMMANDS; i++)
 31001fb:	c7 45 f4 00 00 00 00 	mov    DWORD PTR [ebp-0xc],0x0
 3100202:	eb 4d                	jmp    3100251 <findCommand+0x5c>
/home/yogi/src/os/kshell/kshell.c:90
    {
        ret = strncmp(command, cmds[i].name,strlen(cmds[i].name));
 3100204:	8b 45 f4             	mov    eax,DWORD PTR [ebp-0xc]
 3100207:	c1 e0 04             	shl    eax,0x4
 310020a:	05 60 0f 10 03       	add    eax,0x3100f60
 310020f:	8b 00                	mov    eax,DWORD PTR [eax]
 3100211:	83 ec 0c             	sub    esp,0xc
 3100214:	50                   	push   eax
 3100215:	e8 76 07 00 00       	call   3100990 <kShell+0x2c9>
 310021a:	83 c4 10             	add    esp,0x10
 310021d:	89 c2                	mov    edx,eax
 310021f:	8b 45 f4             	mov    eax,DWORD PTR [ebp-0xc]
 3100222:	c1 e0 04             	shl    eax,0x4
 3100225:	05 60 0f 10 03       	add    eax,0x3100f60
 310022a:	8b 00                	mov    eax,DWORD PTR [eax]
 310022c:	83 ec 04             	sub    esp,0x4
 310022f:	52                   	push   edx
 3100230:	50                   	push   eax
 3100231:	ff 75 08             	push   DWORD PTR [ebp+0x8]
 3100234:	e8 27 07 00 00       	call   3100960 <kShell+0x299>
 3100239:	83 c4 10             	add    esp,0x10
 310023c:	89 45 f0             	mov    DWORD PTR [ebp-0x10],eax
/home/yogi/src/os/kshell/kshell.c:92
        //print("findCommand compared %s and %s for %u, returned %u\n", command, cmds[i].name, strlen(cmds[i].name), ret);
        if(ret==0)
 310023f:	83 7d f0 00          	cmp    DWORD PTR [ebp-0x10],0x0
 3100243:	75 08                	jne    310024d <findCommand+0x58>
/home/yogi/src/os/kshell/kshell.c:95
        {
            //print("findCommand returning %u", i+1);
            return i+1;
 3100245:	8b 45 f4             	mov    eax,DWORD PTR [ebp-0xc]
 3100248:	83 c0 01             	add    eax,0x1
 310024b:	eb 0f                	jmp    310025c <findCommand+0x67>
/home/yogi/src/os/kshell/kshell.c:88 (discriminator 2)
int findCommand(char* command)
{
    unsigned i;
    int ret;
    
    for(i = 0; i < NUMBER_OF_COMMANDS; i++)
 310024d:	83 45 f4 01          	add    DWORD PTR [ebp-0xc],0x1
/home/yogi/src/os/kshell/kshell.c:88 (discriminator 1)
 3100251:	83 7d f4 03          	cmp    DWORD PTR [ebp-0xc],0x3
 3100255:	76 ad                	jbe    3100204 <findCommand+0xf>
/home/yogi/src/os/kshell/kshell.c:99
            //print("findCommand returning %u", i+1);
            return i+1;
        }
    }
    //print("findCommand returning -1");
            return -1;
 3100257:	b8 ff ff ff ff       	mov    eax,0xffffffff
/home/yogi/src/os/kshell/kshell.c:100
}
 310025c:	c9                   	leave  
 310025d:	c3                   	ret    

0310025e <buildargv>:
buildargv():
/home/yogi/src/os/kshell/kshell.c:106



/*parts from http://*/
char **buildargv (const char *input)
{
 310025e:	55                   	push   ebp
 310025f:	89 e5                	mov    ebp,esp
 3100261:	83 ec 38             	sub    esp,0x38
/home/yogi/src/os/kshell/kshell.c:109
  char *arg;
  char *copybuf;
  int squote = 0;
 3100264:	c7 45 ec 00 00 00 00 	mov    DWORD PTR [ebp-0x14],0x0
/home/yogi/src/os/kshell/kshell.c:110
  int dquote = 0;
 310026b:	c7 45 e8 00 00 00 00 	mov    DWORD PTR [ebp-0x18],0x0
/home/yogi/src/os/kshell/kshell.c:111
  int bsquote = 0;
 3100272:	c7 45 e4 00 00 00 00 	mov    DWORD PTR [ebp-0x1c],0x0
/home/yogi/src/os/kshell/kshell.c:112
  int argc = 0;
 3100279:	c7 45 e0 00 00 00 00 	mov    DWORD PTR [ebp-0x20],0x0
/home/yogi/src/os/kshell/kshell.c:113
  int maxargc = 0;
 3100280:	c7 45 dc 00 00 00 00 	mov    DWORD PTR [ebp-0x24],0x0
/home/yogi/src/os/kshell/kshell.c:114
  char **argv = NULL;
 3100287:	c7 45 d8 00 00 00 00 	mov    DWORD PTR [ebp-0x28],0x0
/home/yogi/src/os/kshell/kshell.c:118
  char **nargv;
  //print("buildargv: entering\n");
  
  if (input != NULL)
 310028e:	83 7d 08 00          	cmp    DWORD PTR [ebp+0x8],0x0
 3100292:	0f 84 33 02 00 00    	je     31004cb <buildargv+0x26d>
/home/yogi/src/os/kshell/kshell.c:121
    {
      //print("buildargv: command to parse (%u chars) is: '%s'\n",strlen (input) + 1,input);
      copybuf = (char *) malloc (strlen (input) + 1);
 3100298:	83 ec 0c             	sub    esp,0xc
 310029b:	ff 75 08             	push   DWORD PTR [ebp+0x8]
 310029e:	e8 ed 06 00 00       	call   3100990 <kShell+0x2c9>
 31002a3:	83 c4 10             	add    esp,0x10
 31002a6:	83 c0 01             	add    eax,0x1
 31002a9:	83 ec 0c             	sub    esp,0xc
 31002ac:	50                   	push   eax
 31002ad:	e8 6e 06 00 00       	call   3100920 <kShell+0x259>
 31002b2:	83 c4 10             	add    esp,0x10
 31002b5:	89 45 f0             	mov    DWORD PTR [ebp-0x10],eax
/home/yogi/src/os/kshell/kshell.c:129
	 argv, even for null strings.  See NOTES above, test case below. */
      do
	{
	  /* Pick off argv[argc] */

	  if ((maxargc == 0) || (argc >= (maxargc - 1)))
 31002b8:	83 7d dc 00          	cmp    DWORD PTR [ebp-0x24],0x0
 31002bc:	74 0b                	je     31002c9 <buildargv+0x6b>
/home/yogi/src/os/kshell/kshell.c:129 (discriminator 1)
 31002be:	8b 45 dc             	mov    eax,DWORD PTR [ebp-0x24]
 31002c1:	83 e8 01             	sub    eax,0x1
 31002c4:	3b 45 e0             	cmp    eax,DWORD PTR [ebp-0x20]
 31002c7:	7f 3d                	jg     3100306 <buildargv+0xa8>
/home/yogi/src/os/kshell/kshell.c:132
	    {
	      /* argv needs initialization, or expansion */
	      if (argv == NULL)
 31002c9:	83 7d d8 00          	cmp    DWORD PTR [ebp-0x28],0x0
 31002cd:	75 1c                	jne    31002eb <buildargv+0x8d>
/home/yogi/src/os/kshell/kshell.c:134
		{
		  maxargc = INITIAL_MAXARGC;
 31002cf:	c7 45 dc 14 00 00 00 	mov    DWORD PTR [ebp-0x24],0x14
/home/yogi/src/os/kshell/kshell.c:135
		  nargv = (char **) malloc (maxargc * sizeof (char *));
 31002d6:	8b 45 dc             	mov    eax,DWORD PTR [ebp-0x24]
 31002d9:	c1 e0 02             	shl    eax,0x2
 31002dc:	83 ec 0c             	sub    esp,0xc
 31002df:	50                   	push   eax
 31002e0:	e8 3b 06 00 00       	call   3100920 <kShell+0x259>
 31002e5:	83 c4 10             	add    esp,0x10
 31002e8:	89 45 d4             	mov    DWORD PTR [ebp-0x2c],eax
/home/yogi/src/os/kshell/kshell.c:137
		}
	      argv = nargv;
 31002eb:	8b 45 d4             	mov    eax,DWORD PTR [ebp-0x2c]
 31002ee:	89 45 d8             	mov    DWORD PTR [ebp-0x28],eax
/home/yogi/src/os/kshell/kshell.c:138
	      argv[argc] = NULL;
 31002f1:	8b 45 e0             	mov    eax,DWORD PTR [ebp-0x20]
 31002f4:	8d 14 85 00 00 00 00 	lea    edx,[eax*4+0x0]
 31002fb:	8b 45 d8             	mov    eax,DWORD PTR [ebp-0x28]
 31002fe:	01 d0                	add    eax,edx
 3100300:	c7 00 00 00 00 00    	mov    DWORD PTR [eax],0x0
/home/yogi/src/os/kshell/kshell.c:141
	    }
	  /* Begin scanning arg */
	  arg = copybuf;
 3100306:	8b 45 f0             	mov    eax,DWORD PTR [ebp-0x10]
 3100309:	89 45 f4             	mov    DWORD PTR [ebp-0xc],eax
/home/yogi/src/os/kshell/kshell.c:142
	  while (*input != EOS)
 310030c:	e9 ec 00 00 00       	jmp    31003fd <buildargv+0x19f>
/home/yogi/src/os/kshell/kshell.c:144
	    {
	      if ((*input)==' ' && !squote && !dquote && !bsquote)
 3100311:	8b 45 08             	mov    eax,DWORD PTR [ebp+0x8]
 3100314:	0f b6 00             	movzx  eax,BYTE PTR [eax]
 3100317:	3c 20                	cmp    al,0x20
 3100319:	75 16                	jne    3100331 <buildargv+0xd3>
/home/yogi/src/os/kshell/kshell.c:144 (discriminator 1)
 310031b:	83 7d ec 00          	cmp    DWORD PTR [ebp-0x14],0x0
 310031f:	75 10                	jne    3100331 <buildargv+0xd3>
/home/yogi/src/os/kshell/kshell.c:144 (discriminator 2)
 3100321:	83 7d e8 00          	cmp    DWORD PTR [ebp-0x18],0x0
 3100325:	75 0a                	jne    3100331 <buildargv+0xd3>
/home/yogi/src/os/kshell/kshell.c:144 (discriminator 3)
 3100327:	83 7d e4 00          	cmp    DWORD PTR [ebp-0x1c],0x0
 310032b:	0f 84 da 00 00 00    	je     310040b <buildargv+0x1ad>
/home/yogi/src/os/kshell/kshell.c:150
		{
		  break;
		}
	      else
		{
		  if (bsquote)
 3100331:	83 7d e4 00          	cmp    DWORD PTR [ebp-0x1c],0x0
 3100335:	74 1d                	je     3100354 <buildargv+0xf6>
/home/yogi/src/os/kshell/kshell.c:152
		    {
		      bsquote = 0;
 3100337:	c7 45 e4 00 00 00 00 	mov    DWORD PTR [ebp-0x1c],0x0
/home/yogi/src/os/kshell/kshell.c:153
		      *arg++ = *input;
 310033e:	8b 45 f4             	mov    eax,DWORD PTR [ebp-0xc]
 3100341:	8d 50 01             	lea    edx,[eax+0x1]
 3100344:	89 55 f4             	mov    DWORD PTR [ebp-0xc],edx
 3100347:	8b 55 08             	mov    edx,DWORD PTR [ebp+0x8]
 310034a:	0f b6 12             	movzx  edx,BYTE PTR [edx]
 310034d:	88 10                	mov    BYTE PTR [eax],dl
 310034f:	e9 a5 00 00 00       	jmp    31003f9 <buildargv+0x19b>
/home/yogi/src/os/kshell/kshell.c:155
		    }
		  else if (*input == '\\')
 3100354:	8b 45 08             	mov    eax,DWORD PTR [ebp+0x8]
 3100357:	0f b6 00             	movzx  eax,BYTE PTR [eax]
 310035a:	3c 5c                	cmp    al,0x5c
 310035c:	75 0c                	jne    310036a <buildargv+0x10c>
/home/yogi/src/os/kshell/kshell.c:157
		    {
		      bsquote = 1;
 310035e:	c7 45 e4 01 00 00 00 	mov    DWORD PTR [ebp-0x1c],0x1
 3100365:	e9 8f 00 00 00       	jmp    31003f9 <buildargv+0x19b>
/home/yogi/src/os/kshell/kshell.c:159
		    }
		  else if (squote)
 310036a:	83 7d ec 00          	cmp    DWORD PTR [ebp-0x14],0x0
 310036e:	74 26                	je     3100396 <buildargv+0x138>
/home/yogi/src/os/kshell/kshell.c:161
		    {
		      if (*input == '\'')
 3100370:	8b 45 08             	mov    eax,DWORD PTR [ebp+0x8]
 3100373:	0f b6 00             	movzx  eax,BYTE PTR [eax]
 3100376:	3c 27                	cmp    al,0x27
 3100378:	75 09                	jne    3100383 <buildargv+0x125>
/home/yogi/src/os/kshell/kshell.c:163
			{
			  squote = 0;
 310037a:	c7 45 ec 00 00 00 00 	mov    DWORD PTR [ebp-0x14],0x0
 3100381:	eb 76                	jmp    31003f9 <buildargv+0x19b>
/home/yogi/src/os/kshell/kshell.c:167
			}
		      else
			{
			  *arg++ = *input;
 3100383:	8b 45 f4             	mov    eax,DWORD PTR [ebp-0xc]
 3100386:	8d 50 01             	lea    edx,[eax+0x1]
 3100389:	89 55 f4             	mov    DWORD PTR [ebp-0xc],edx
 310038c:	8b 55 08             	mov    edx,DWORD PTR [ebp+0x8]
 310038f:	0f b6 12             	movzx  edx,BYTE PTR [edx]
 3100392:	88 10                	mov    BYTE PTR [eax],dl
 3100394:	eb 63                	jmp    31003f9 <buildargv+0x19b>
/home/yogi/src/os/kshell/kshell.c:170
			}
		    }
		  else if (dquote)
 3100396:	83 7d e8 00          	cmp    DWORD PTR [ebp-0x18],0x0
 310039a:	74 26                	je     31003c2 <buildargv+0x164>
/home/yogi/src/os/kshell/kshell.c:172
		    {
		      if (*input == '"')
 310039c:	8b 45 08             	mov    eax,DWORD PTR [ebp+0x8]
 310039f:	0f b6 00             	movzx  eax,BYTE PTR [eax]
 31003a2:	3c 22                	cmp    al,0x22
 31003a4:	75 09                	jne    31003af <buildargv+0x151>
/home/yogi/src/os/kshell/kshell.c:174
			{
			  dquote = 0;
 31003a6:	c7 45 e8 00 00 00 00 	mov    DWORD PTR [ebp-0x18],0x0
 31003ad:	eb 4a                	jmp    31003f9 <buildargv+0x19b>
/home/yogi/src/os/kshell/kshell.c:178
			}
		      else
			{
			  *arg++ = *input;
 31003af:	8b 45 f4             	mov    eax,DWORD PTR [ebp-0xc]
 31003b2:	8d 50 01             	lea    edx,[eax+0x1]
 31003b5:	89 55 f4             	mov    DWORD PTR [ebp-0xc],edx
 31003b8:	8b 55 08             	mov    edx,DWORD PTR [ebp+0x8]
 31003bb:	0f b6 12             	movzx  edx,BYTE PTR [edx]
 31003be:	88 10                	mov    BYTE PTR [eax],dl
 31003c0:	eb 37                	jmp    31003f9 <buildargv+0x19b>
/home/yogi/src/os/kshell/kshell.c:183
			}
		    }
		  else
		    {
		      if (*input == '\'')
 31003c2:	8b 45 08             	mov    eax,DWORD PTR [ebp+0x8]
 31003c5:	0f b6 00             	movzx  eax,BYTE PTR [eax]
 31003c8:	3c 27                	cmp    al,0x27
 31003ca:	75 09                	jne    31003d5 <buildargv+0x177>
/home/yogi/src/os/kshell/kshell.c:185
			{
			  squote = 1;
 31003cc:	c7 45 ec 01 00 00 00 	mov    DWORD PTR [ebp-0x14],0x1
 31003d3:	eb 24                	jmp    31003f9 <buildargv+0x19b>
/home/yogi/src/os/kshell/kshell.c:187
			}
		      else if (*input == '"')
 31003d5:	8b 45 08             	mov    eax,DWORD PTR [ebp+0x8]
 31003d8:	0f b6 00             	movzx  eax,BYTE PTR [eax]
 31003db:	3c 22                	cmp    al,0x22
 31003dd:	75 09                	jne    31003e8 <buildargv+0x18a>
/home/yogi/src/os/kshell/kshell.c:189
			{
			  dquote = 1;
 31003df:	c7 45 e8 01 00 00 00 	mov    DWORD PTR [ebp-0x18],0x1
 31003e6:	eb 11                	jmp    31003f9 <buildargv+0x19b>
/home/yogi/src/os/kshell/kshell.c:193
			}
		      else
			{
			  *arg++ = *input;
 31003e8:	8b 45 f4             	mov    eax,DWORD PTR [ebp-0xc]
 31003eb:	8d 50 01             	lea    edx,[eax+0x1]
 31003ee:	89 55 f4             	mov    DWORD PTR [ebp-0xc],edx
 31003f1:	8b 55 08             	mov    edx,DWORD PTR [ebp+0x8]
 31003f4:	0f b6 12             	movzx  edx,BYTE PTR [edx]
 31003f7:	88 10                	mov    BYTE PTR [eax],dl
/home/yogi/src/os/kshell/kshell.c:197
                          //print("Incremented input to %u, char=%u,value='%c'\n",input,*input,*input);
			}
		    }
		  input++;
 31003f9:	83 45 08 01          	add    DWORD PTR [ebp+0x8],0x1
/home/yogi/src/os/kshell/kshell.c:142
	      argv = nargv;
	      argv[argc] = NULL;
	    }
	  /* Begin scanning arg */
	  arg = copybuf;
	  while (*input != EOS)
 31003fd:	8b 45 08             	mov    eax,DWORD PTR [ebp+0x8]
 3100400:	0f b6 00             	movzx  eax,BYTE PTR [eax]
 3100403:	84 c0                	test   al,al
 3100405:	0f 85 06 ff ff ff    	jne    3100311 <buildargv+0xb3>
/home/yogi/src/os/kshell/kshell.c:200
			}
		    }
		  input++;
		}
	    }
	  *arg = EOS;
 310040b:	8b 45 f4             	mov    eax,DWORD PTR [ebp-0xc]
 310040e:	c6 00 00             	mov    BYTE PTR [eax],0x0
/home/yogi/src/os/kshell/kshell.c:202
          //print("Found an EOS\n");
          if (copybuf[0]!='\0')
 3100411:	8b 45 f0             	mov    eax,DWORD PTR [ebp-0x10]
 3100414:	0f b6 00             	movzx  eax,BYTE PTR [eax]
 3100417:	84 c0                	test   al,al
 3100419:	0f 84 9e 00 00 00    	je     31004bd <buildargv+0x25f>
/home/yogi/src/os/kshell/kshell.c:204
          {
            char* temp=malloc(strlen(copybuf)+1);
 310041f:	83 ec 0c             	sub    esp,0xc
 3100422:	ff 75 f0             	push   DWORD PTR [ebp-0x10]
 3100425:	e8 66 05 00 00       	call   3100990 <kShell+0x2c9>
 310042a:	83 c4 10             	add    esp,0x10
 310042d:	83 c0 01             	add    eax,0x1
 3100430:	83 ec 0c             	sub    esp,0xc
 3100433:	50                   	push   eax
 3100434:	e8 e7 04 00 00       	call   3100920 <kShell+0x259>
 3100439:	83 c4 10             	add    esp,0x10
 310043c:	89 45 d0             	mov    DWORD PTR [ebp-0x30],eax
/home/yogi/src/os/kshell/kshell.c:207
            //print("*malloc'd temp to 0x%08X for %u characters\n",temp,strlen(copybuf));
            //print("Copied copybuf @ 0x%08X to temp @ 0x%08X\n",copybuf,temp);
            strcpy(temp,copybuf);
 310043f:	83 ec 08             	sub    esp,0x8
 3100442:	ff 75 f0             	push   DWORD PTR [ebp-0x10]
 3100445:	ff 75 d0             	push   DWORD PTR [ebp-0x30]
 3100448:	e8 83 04 00 00       	call   31008d0 <kShell+0x209>
 310044d:	83 c4 10             	add    esp,0x10
/home/yogi/src/os/kshell/kshell.c:208
            free(copybuf);
 3100450:	83 ec 0c             	sub    esp,0xc
 3100453:	ff 75 f0             	push   DWORD PTR [ebp-0x10]
 3100456:	e8 45 05 00 00       	call   31009a0 <kShell+0x2d9>
 310045b:	83 c4 10             	add    esp,0x10
/home/yogi/src/os/kshell/kshell.c:209
            copybuf = (char *) malloc (strlen (input) + 1);
 310045e:	83 ec 0c             	sub    esp,0xc
 3100461:	ff 75 08             	push   DWORD PTR [ebp+0x8]
 3100464:	e8 27 05 00 00       	call   3100990 <kShell+0x2c9>
 3100469:	83 c4 10             	add    esp,0x10
 310046c:	83 c0 01             	add    eax,0x1
 310046f:	83 ec 0c             	sub    esp,0xc
 3100472:	50                   	push   eax
 3100473:	e8 a8 04 00 00       	call   3100920 <kShell+0x259>
 3100478:	83 c4 10             	add    esp,0x10
 310047b:	89 45 f0             	mov    DWORD PTR [ebp-0x10],eax
/home/yogi/src/os/kshell/kshell.c:210
            argv[argc] = temp;
 310047e:	8b 45 e0             	mov    eax,DWORD PTR [ebp-0x20]
 3100481:	8d 14 85 00 00 00 00 	lea    edx,[eax*4+0x0]
 3100488:	8b 45 d8             	mov    eax,DWORD PTR [ebp-0x28]
 310048b:	01 c2                	add    edx,eax
 310048d:	8b 45 d0             	mov    eax,DWORD PTR [ebp-0x30]
 3100490:	89 02                	mov    DWORD PTR [edx],eax
/home/yogi/src/os/kshell/kshell.c:212
            //print("set argv[%u] to 0x%08X\n",argc,temp);
            argc++;
 3100492:	83 45 e0 01          	add    DWORD PTR [ebp-0x20],0x1
/home/yogi/src/os/kshell/kshell.c:213
            argv[argc] = NULL;
 3100496:	8b 45 e0             	mov    eax,DWORD PTR [ebp-0x20]
 3100499:	8d 14 85 00 00 00 00 	lea    edx,[eax*4+0x0]
 31004a0:	8b 45 d8             	mov    eax,DWORD PTR [ebp-0x28]
 31004a3:	01 d0                	add    eax,edx
 31004a5:	c7 00 00 00 00 00    	mov    DWORD PTR [eax],0x0
/home/yogi/src/os/kshell/kshell.c:214
            input++;
 31004ab:	83 45 08 01          	add    DWORD PTR [ebp+0x8],0x1
/home/yogi/src/os/kshell/kshell.c:215
            free(temp);
 31004af:	83 ec 0c             	sub    esp,0xc
 31004b2:	ff 75 d0             	push   DWORD PTR [ebp-0x30]
 31004b5:	e8 e6 04 00 00       	call   31009a0 <kShell+0x2d9>
 31004ba:	83 c4 10             	add    esp,0x10
/home/yogi/src/os/kshell/kshell.c:218
          }
	}
      while (*input != EOS);
 31004bd:	8b 45 08             	mov    eax,DWORD PTR [ebp+0x8]
 31004c0:	0f b6 00             	movzx  eax,BYTE PTR [eax]
 31004c3:	84 c0                	test   al,al
 31004c5:	0f 85 ed fd ff ff    	jne    31002b8 <buildargv+0x5a>
/home/yogi/src/os/kshell/kshell.c:221
    }
  //print("buildargv: exiting\n");
  free(copybuf);
 31004cb:	83 ec 0c             	sub    esp,0xc
 31004ce:	ff 75 f0             	push   DWORD PTR [ebp-0x10]
 31004d1:	e8 ca 04 00 00       	call   31009a0 <kShell+0x2d9>
 31004d6:	83 c4 10             	add    esp,0x10
/home/yogi/src/os/kshell/kshell.c:222
  free(nargv);
 31004d9:	83 ec 0c             	sub    esp,0xc
 31004dc:	ff 75 d4             	push   DWORD PTR [ebp-0x2c]
 31004df:	e8 bc 04 00 00       	call   31009a0 <kShell+0x2d9>
 31004e4:	83 c4 10             	add    esp,0x10
/home/yogi/src/os/kshell/kshell.c:223
  return (argv);
 31004e7:	8b 45 d8             	mov    eax,DWORD PTR [ebp-0x28]
/home/yogi/src/os/kshell/kshell.c:224
}
 31004ea:	c9                   	leave  
 31004eb:	c3                   	ret    

031004ec <helpMe>:
helpMe():
/home/yogi/src/os/kshell/kshell.c:227

void helpMe()
{
 31004ec:	55                   	push   ebp
 31004ed:	89 e5                	mov    ebp,esp
 31004ef:	83 ec 18             	sub    esp,0x18
/home/yogi/src/os/kshell/kshell.c:228
    print("Help:\n");
 31004f2:	83 ec 0c             	sub    esp,0xc
 31004f5:	68 34 0a 10 03       	push   0x3100a34
 31004fa:	e8 f1 03 00 00       	call   31008f0 <kShell+0x229>
 31004ff:	83 c4 10             	add    esp,0x10
/home/yogi/src/os/kshell/kshell.c:229
    for (unsigned cnt=0;cnt<sizeof(cmds)/sizeof(command_table_t);cnt++)
 3100502:	c7 45 f4 00 00 00 00 	mov    DWORD PTR [ebp-0xc],0x0
 3100509:	eb 30                	jmp    310053b <helpMe+0x4f>
/home/yogi/src/os/kshell/kshell.c:230 (discriminator 3)
        print("\t%s: %s\n", cmds[cnt].name, cmds[cnt].description);
 310050b:	8b 45 f4             	mov    eax,DWORD PTR [ebp-0xc]
 310050e:	c1 e0 04             	shl    eax,0x4
 3100511:	05 64 0f 10 03       	add    eax,0x3100f64
 3100516:	8b 10                	mov    edx,DWORD PTR [eax]
 3100518:	8b 45 f4             	mov    eax,DWORD PTR [ebp-0xc]
 310051b:	c1 e0 04             	shl    eax,0x4
 310051e:	05 60 0f 10 03       	add    eax,0x3100f60
 3100523:	8b 00                	mov    eax,DWORD PTR [eax]
 3100525:	83 ec 04             	sub    esp,0x4
 3100528:	52                   	push   edx
 3100529:	50                   	push   eax
 310052a:	68 3b 0a 10 03       	push   0x3100a3b
 310052f:	e8 bc 03 00 00       	call   31008f0 <kShell+0x229>
 3100534:	83 c4 10             	add    esp,0x10
/home/yogi/src/os/kshell/kshell.c:229 (discriminator 3)
}

void helpMe()
{
    print("Help:\n");
    for (unsigned cnt=0;cnt<sizeof(cmds)/sizeof(command_table_t);cnt++)
 3100537:	83 45 f4 01          	add    DWORD PTR [ebp-0xc],0x1
/home/yogi/src/os/kshell/kshell.c:229 (discriminator 1)
 310053b:	83 7d f4 03          	cmp    DWORD PTR [ebp-0xc],0x3
 310053f:	76 ca                	jbe    310050b <helpMe+0x1f>
/home/yogi/src/os/kshell/kshell.c:231
        print("\t%s: %s\n", cmds[cnt].name, cmds[cnt].description);
}
 3100541:	90                   	nop
 3100542:	c9                   	leave  
 3100543:	c3                   	ret    

03100544 <execp>:
execp():
/home/yogi/src/os/kshell/kshell.c:234

void execp(char* cmdline)
{
 3100544:	55                   	push   ebp
 3100545:	89 e5                	mov    ebp,esp
 3100547:	53                   	push   ebx
 3100548:	81 ec 14 14 00 00    	sub    esp,0x1414
/home/yogi/src/os/kshell/kshell.c:236
    char params[MAX_PARAM_COUNT][MAX_PARAM_WIDTH];
    int paramCount=parseParamsShell(cmdline, params, MAX_PARAM_WIDTH*MAX_PARAM_COUNT);
 310054e:	83 ec 04             	sub    esp,0x4
 3100551:	68 00 14 00 00       	push   0x1400
 3100556:	8d 85 f0 eb ff ff    	lea    eax,[ebp-0x1410]
 310055c:	50                   	push   eax
 310055d:	ff 75 08             	push   DWORD PTR [ebp+0x8]
 3100560:	e8 46 fb ff ff       	call   31000ab <parseParamsShell>
 3100565:	83 c4 10             	add    esp,0x10
 3100568:	89 45 f4             	mov    DWORD PTR [ebp-0xc],eax
/home/yogi/src/os/kshell/kshell.c:237
    uint32_t pid=0;
 310056b:	c7 45 f0 00 00 00 00 	mov    DWORD PTR [ebp-0x10],0x0
/home/yogi/src/os/kshell/kshell.c:239

    print("Executing %s\n",params[0]);
 3100572:	83 ec 08             	sub    esp,0x8
 3100575:	8d 85 f0 eb ff ff    	lea    eax,[ebp-0x1410]
 310057b:	50                   	push   eax
 310057c:	68 44 0a 10 03       	push   0x3100a44
 3100581:	e8 6a 03 00 00       	call   31008f0 <kShell+0x229>
 3100586:	83 c4 10             	add    esp,0x10
/home/yogi/src/os/kshell/kshell.c:240
    __asm__("push eax\n"
 3100589:	b8 59 00 00 00       	mov    eax,0x59
 310058e:	8d 9d f0 eb ff ff    	lea    ebx,[ebp-0x1410]
 3100594:	b9 00 00 00 00       	mov    ecx,0x0
 3100599:	ba 00 00 00 00       	mov    edx,0x0
 310059e:	50                   	push   eax
 310059f:	53                   	push   ebx
 31005a0:	51                   	push   ecx
 31005a1:	52                   	push   edx
 31005a2:	cd 80                	int    0x80
 31005a4:	89 45 f0             	mov    DWORD PTR [ebp-0x10],eax
/home/yogi/src/os/kshell/kshell.c:247
            "push ecx\n"
            "push edx\n"
            "int 0x80\n"
            :"=a" (pid)
            :"a" (0x59),"b" (params[0]),"c" (0),"d" (0));
    print("Waiting on pid=0x%08X\n",pid);
 31005a7:	83 ec 08             	sub    esp,0x8
 31005aa:	ff 75 f0             	push   DWORD PTR [ebp-0x10]
 31005ad:	68 52 0a 10 03       	push   0x3100a52
 31005b2:	e8 39 03 00 00       	call   31008f0 <kShell+0x229>
 31005b7:	83 c4 10             	add    esp,0x10
/home/yogi/src/os/kshell/kshell.c:248
    waitpid(pid);
 31005ba:	83 ec 0c             	sub    esp,0xc
 31005bd:	ff 75 f0             	push   DWORD PTR [ebp-0x10]
 31005c0:	e8 1b 03 00 00       	call   31008e0 <kShell+0x219>
 31005c5:	83 c4 10             	add    esp,0x10
/home/yogi/src/os/kshell/kshell.c:249
    print("pid=0x%08X returned\n",pid);
 31005c8:	83 ec 08             	sub    esp,0x8
 31005cb:	ff 75 f0             	push   DWORD PTR [ebp-0x10]
 31005ce:	68 69 0a 10 03       	push   0x3100a69
 31005d3:	e8 18 03 00 00       	call   31008f0 <kShell+0x229>
 31005d8:	83 c4 10             	add    esp,0x10
/home/yogi/src/os/kshell/kshell.c:252
    //exec(params[0],0,0);
    //strcpy(sExecutingProgram,params[0]+1);
}
 31005db:	90                   	nop
 31005dc:	8b 5d fc             	mov    ebx,DWORD PTR [ebp-0x4]
 31005df:	c9                   	leave  
 31005e0:	c3                   	ret    

031005e1 <kSleep>:
kSleep():
/home/yogi/src/os/kshell/kshell.c:255

void kSleep(char *cmdline)
{
 31005e1:	55                   	push   ebp
 31005e2:	89 e5                	mov    ebp,esp
 31005e4:	81 ec 18 14 00 00    	sub    esp,0x1418
/home/yogi/src/os/kshell/kshell.c:257
    char params[MAX_PARAM_COUNT][MAX_PARAM_WIDTH];
    int paramCount=parseParamsShell(cmdline, params, MAX_PARAM_WIDTH*MAX_PARAM_COUNT);
 31005ea:	83 ec 04             	sub    esp,0x4
 31005ed:	68 00 14 00 00       	push   0x1400
 31005f2:	8d 85 f4 eb ff ff    	lea    eax,[ebp-0x140c]
 31005f8:	50                   	push   eax
 31005f9:	ff 75 08             	push   DWORD PTR [ebp+0x8]
 31005fc:	e8 aa fa ff ff       	call   31000ab <parseParamsShell>
 3100601:	83 c4 10             	add    esp,0x10
 3100604:	89 45 f4             	mov    DWORD PTR [ebp-0xc],eax
/home/yogi/src/os/kshell/kshell.c:259

    if (params[0][0]==0)
 3100607:	0f b6 85 f4 eb ff ff 	movzx  eax,BYTE PTR [ebp-0x140c]
 310060e:	84 c0                	test   al,al
 3100610:	75 12                	jne    3100624 <kSleep+0x43>
/home/yogi/src/os/kshell/kshell.c:261
    {
        print("Requires 1 parameter which is the number of seconds to sleep\n");
 3100612:	83 ec 0c             	sub    esp,0xc
 3100615:	68 80 0a 10 03       	push   0x3100a80
 310061a:	e8 d1 02 00 00       	call   31008f0 <kShell+0x229>
 310061f:	83 c4 10             	add    esp,0x10
 3100622:	eb 49                	jmp    310066d <kSleep+0x8c>
/home/yogi/src/os/kshell/kshell.c:264
        return;
    }
    print("Sleeping for %u seconds\n",strtoul(params[0],0,10));
 3100624:	83 ec 04             	sub    esp,0x4
 3100627:	6a 0a                	push   0xa
 3100629:	6a 00                	push   0x0
 310062b:	8d 85 f4 eb ff ff    	lea    eax,[ebp-0x140c]
 3100631:	50                   	push   eax
 3100632:	e8 09 03 00 00       	call   3100940 <kShell+0x279>
 3100637:	83 c4 10             	add    esp,0x10
 310063a:	83 ec 08             	sub    esp,0x8
 310063d:	50                   	push   eax
 310063e:	68 be 0a 10 03       	push   0x3100abe
 3100643:	e8 a8 02 00 00       	call   31008f0 <kShell+0x229>
 3100648:	83 c4 10             	add    esp,0x10
/home/yogi/src/os/kshell/kshell.c:265
    sleep(strtoul(params[0],0,10));
 310064b:	83 ec 04             	sub    esp,0x4
 310064e:	6a 0a                	push   0xa
 3100650:	6a 00                	push   0x0
 3100652:	8d 85 f4 eb ff ff    	lea    eax,[ebp-0x140c]
 3100658:	50                   	push   eax
 3100659:	e8 e2 02 00 00       	call   3100940 <kShell+0x279>
 310065e:	83 c4 10             	add    esp,0x10
 3100661:	83 ec 0c             	sub    esp,0xc
 3100664:	50                   	push   eax
 3100665:	e8 c6 02 00 00       	call   3100930 <kShell+0x269>
 310066a:	83 c4 10             	add    esp,0x10
/home/yogi/src/os/kshell/kshell.c:266
}
 310066d:	c9                   	leave  
 310066e:	c3                   	ret    

0310066f <kExit>:
kExit():
/home/yogi/src/os/kshell/kshell.c:269

void kExit(char *cmdline)
{
 310066f:	55                   	push   ebp
 3100670:	89 e5                	mov    ebp,esp
 3100672:	81 ec 08 14 00 00    	sub    esp,0x1408
/home/yogi/src/os/kshell/kshell.c:272
    char params[MAX_PARAM_COUNT][MAX_PARAM_WIDTH];

    if (parseParamsShell(cmdline, params, MAX_PARAM_WIDTH*MAX_PARAM_COUNT))
 3100678:	83 ec 04             	sub    esp,0x4
 310067b:	68 00 14 00 00       	push   0x1400
 3100680:	8d 85 f8 eb ff ff    	lea    eax,[ebp-0x1408]
 3100686:	50                   	push   eax
 3100687:	ff 75 08             	push   DWORD PTR [ebp+0x8]
 310068a:	e8 1c fa ff ff       	call   31000ab <parseParamsShell>
 310068f:	83 c4 10             	add    esp,0x10
 3100692:	85 c0                	test   eax,eax
 3100694:	74 1d                	je     31006b3 <kExit+0x44>
/home/yogi/src/os/kshell/kshell.c:274
    {
        exitCode = strtoul(params[0],0,10);
 3100696:	83 ec 04             	sub    esp,0x4
 3100699:	6a 0a                	push   0xa
 310069b:	6a 00                	push   0x0
 310069d:	8d 85 f8 eb ff ff    	lea    eax,[ebp-0x1408]
 31006a3:	50                   	push   eax
 31006a4:	e8 97 02 00 00       	call   3100940 <kShell+0x279>
 31006a9:	83 c4 10             	add    esp,0x10
 31006ac:	a3 84 10 10 03       	mov    ds:0x3101084,eax
 31006b1:	eb 0a                	jmp    31006bd <kExit+0x4e>
/home/yogi/src/os/kshell/kshell.c:277
    }
    else
        exitCode = 0;
 31006b3:	c7 05 84 10 10 03 00 	mov    DWORD PTR ds:0x3101084,0x0
 31006ba:	00 00 00 
/home/yogi/src/os/kshell/kshell.c:278
    timeToExit=true;
 31006bd:	c6 05 80 10 10 03 01 	mov    BYTE PTR ds:0x3101080,0x1
/home/yogi/src/os/kshell/kshell.c:279
}
 31006c4:	90                   	nop
 31006c5:	c9                   	leave  
 31006c6:	c3                   	ret    

031006c7 <kShell>:
kShell():
/home/yogi/src/os/kshell/kshell.c:282

int kShell(int argc, char** argv)
{
 31006c7:	55                   	push   ebp
 31006c8:	89 e5                	mov    ebp,esp
 31006ca:	81 ec f8 0a 00 00    	sub    esp,0xaf8
/home/yogi/src/os/kshell/kshell.c:284
    char lCommand[256];
    uint8_t lCurrKey=0;
 31006d0:	c6 85 e3 fe ff ff 00 	mov    BYTE PTR [ebp-0x11d],0x0
/home/yogi/src/os/kshell/kshell.c:285
    int lCurrKeyCount=0;
 31006d7:	c7 45 f4 00 00 00 00 	mov    DWORD PTR [ebp-0xc],0x0
/home/yogi/src/os/kshell/kshell.c:287
    char commands[50][50];
    int commandsPtr=0;
 31006de:	c7 45 f0 00 00 00 00 	mov    DWORD PTR [ebp-0x10],0x0
/home/yogi/src/os/kshell/kshell.c:288
    int commandBuffPtr=0;
 31006e5:	c7 45 ec 00 00 00 00 	mov    DWORD PTR [ebp-0x14],0x0
/home/yogi/src/os/kshell/kshell.c:289
    int commandWasFromThisBufferPtr=0;
 31006ec:	c7 45 e8 00 00 00 00 	mov    DWORD PTR [ebp-0x18],0x0
/home/yogi/src/os/kshell/kshell.c:292
    char ansiSeq[20];

    libc_init();
 31006f3:	e8 58 02 00 00       	call   3100950 <kShell+0x289>
/home/yogi/src/os/kshell/kshell.c:293
    ansiSeq[0]=0x1b;
 31006f8:	c6 85 0b f5 ff ff 1b 	mov    BYTE PTR [ebp-0xaf5],0x1b
/home/yogi/src/os/kshell/kshell.c:294
    sKShellProgramName=malloc(1024);
 31006ff:	83 ec 0c             	sub    esp,0xc
 3100702:	68 00 04 00 00       	push   0x400
 3100707:	e8 14 02 00 00       	call   3100920 <kShell+0x259>
 310070c:	83 c4 10             	add    esp,0x10
 310070f:	a3 c0 12 10 03       	mov    ds:0x31012c0,eax
/home/yogi/src/os/kshell/kshell.c:295
    strcpy(sKShellProgramName,"kShell");
 3100714:	a1 c0 12 10 03       	mov    eax,ds:0x31012c0
 3100719:	83 ec 08             	sub    esp,0x8
 310071c:	68 d7 0a 10 03       	push   0x3100ad7
 3100721:	50                   	push   eax
 3100722:	e8 a9 01 00 00       	call   31008d0 <kShell+0x209>
 3100727:	83 c4 10             	add    esp,0x10
/home/yogi/src/os/kshell/kshell.c:296
    strcpy(sExecutingProgram,sKShellProgramName);
 310072a:	a1 c0 12 10 03       	mov    eax,ds:0x31012c0
 310072f:	83 ec 08             	sub    esp,0x8
 3100732:	50                   	push   eax
 3100733:	68 a0 10 10 03       	push   0x31010a0
 3100738:	e8 93 01 00 00       	call   31008d0 <kShell+0x209>
 310073d:	83 c4 10             	add    esp,0x10
/home/yogi/src/os/kshell/kshell.c:297
    puts("\nWelcome to kShell ... hang a while!\n");
 3100740:	83 ec 0c             	sub    esp,0xc
 3100743:	68 e0 0a 10 03       	push   0x3100ae0
 3100748:	e8 c3 01 00 00       	call   3100910 <kShell+0x249>
 310074d:	83 c4 10             	add    esp,0x10
/home/yogi/src/os/kshell/kshell.c:299

    while (!timeToExit)
 3100750:	e9 51 01 00 00       	jmp    31008a6 <kShell+0x1df>
/home/yogi/src/os/kshell/kshell.c:302
    {
getACommand:
        lCurrKey=0;
 3100755:	c6 85 e3 fe ff ff 00 	mov    BYTE PTR [ebp-0x11d],0x0
/home/yogi/src/os/kshell/kshell.c:303
        lCurrKeyCount=0;
 310075c:	c7 45 f4 00 00 00 00 	mov    DWORD PTR [ebp-0xc],0x0
/home/yogi/src/os/kshell/kshell.c:304
        memset(lCommand,0,256);
 3100763:	83 ec 04             	sub    esp,0x4
 3100766:	68 00 01 00 00       	push   0x100
 310076b:	6a 00                	push   0x0
 310076d:	8d 85 e4 fe ff ff    	lea    eax,[ebp-0x11c]
 3100773:	50                   	push   eax
 3100774:	e8 f7 01 00 00       	call   3100970 <kShell+0x2a9>
 3100779:	83 c4 10             	add    esp,0x10
/home/yogi/src/os/kshell/kshell.c:305
        print("%s> ",sExecutingProgram);
 310077c:	83 ec 08             	sub    esp,0x8
 310077f:	68 a0 10 10 03       	push   0x31010a0
 3100784:	68 06 0b 10 03       	push   0x3100b06
 3100789:	e8 62 01 00 00       	call   31008f0 <kShell+0x229>
 310078e:	83 c4 10             	add    esp,0x10
/home/yogi/src/os/kshell/kshell.c:307
getAKey:
        lCurrKey=0;
 3100791:	c6 85 e3 fe ff ff 00 	mov    BYTE PTR [ebp-0x11d],0x0
/home/yogi/src/os/kshell/kshell.c:308
        while(lCurrKey==0)
 3100798:	eb 16                	jmp    31007b0 <kShell+0xe9>
/home/yogi/src/os/kshell/kshell.c:310
        {
            gets(&lCurrKey,1,1);
 310079a:	83 ec 04             	sub    esp,0x4
 310079d:	6a 01                	push   0x1
 310079f:	6a 01                	push   0x1
 31007a1:	8d 85 e3 fe ff ff    	lea    eax,[ebp-0x11d]
 31007a7:	50                   	push   eax
 31007a8:	e8 53 01 00 00       	call   3100900 <kShell+0x239>
 31007ad:	83 c4 10             	add    esp,0x10
/home/yogi/src/os/kshell/kshell.c:308
        lCurrKeyCount=0;
        memset(lCommand,0,256);
        print("%s> ",sExecutingProgram);
getAKey:
        lCurrKey=0;
        while(lCurrKey==0)
 31007b0:	0f b6 85 e3 fe ff ff 	movzx  eax,BYTE PTR [ebp-0x11d]
 31007b7:	84 c0                	test   al,al
 31007b9:	74 df                	je     310079a <kShell+0xd3>
/home/yogi/src/os/kshell/kshell.c:313
        {
            gets(&lCurrKey,1,1);
        }
        //print("key='%08X'",lCurrKey);
        if((byte)lCurrKey==0xc8) //up
 31007bb:	0f b6 85 e3 fe ff ff 	movzx  eax,BYTE PTR [ebp-0x11d]
 31007c2:	3c c8                	cmp    al,0xc8
 31007c4:	75 08                	jne    31007ce <kShell+0x107>
/home/yogi/src/os/kshell/kshell.c:315
        {
            if (commandBuffPtr>=0)
 31007c6:	83 7d ec 00          	cmp    DWORD PTR [ebp-0x14],0x0
 31007ca:	79 02                	jns    31007ce <kShell+0x107>
/home/yogi/src/os/kshell/kshell.c:328
                lCurrKeyCount=strlen(lCommand);
                cursorMoveTo(4+lCurrKeyCount,lTemp);
                goto getAKey;*/
            }
            else
                goto getAKey;
 31007cc:	eb c3                	jmp    3100791 <kShell+0xca>
/home/yogi/src/os/kshell/kshell.c:330
        }
        if (lCurrKey==0xD0)  //down
 31007ce:	0f b6 85 e3 fe ff ff 	movzx  eax,BYTE PTR [ebp-0x11d]
 31007d5:	3c d0                	cmp    al,0xd0
 31007d7:	75 0a                	jne    31007e3 <kShell+0x11c>
/home/yogi/src/os/kshell/kshell.c:332
        {
            if (commandBuffPtr<=commandsPtr)
 31007d9:	8b 45 ec             	mov    eax,DWORD PTR [ebp-0x14]
 31007dc:	3b 45 f0             	cmp    eax,DWORD PTR [ebp-0x10]
 31007df:	7e 02                	jle    31007e3 <kShell+0x11c>
/home/yogi/src/os/kshell/kshell.c:345
                lCurrKeyCount=strlen(lCommand);
                cursorMoveTo(4+lCurrKeyCount,lTemp);
                goto getAKey;*/
            }
            else
                goto getAKey;
 31007e1:	eb ae                	jmp    3100791 <kShell+0xca>
/home/yogi/src/os/kshell/kshell.c:348
            
        }   
        if (lCurrKey==0xcb) //left
 31007e3:	0f b6 85 e3 fe ff ff 	movzx  eax,BYTE PTR [ebp-0x11d]
 31007ea:	3c cb                	cmp    al,0xcb
 31007ec:	75 02                	jne    31007f0 <kShell+0x129>
/home/yogi/src/os/kshell/kshell.c:357
            {
                cursorMoveTo(cursorGetPosX()-1,cursorGetPosY());
                lCurrKeyCount--;
            }
             */
            goto getAKey;
 31007ee:	eb a1                	jmp    3100791 <kShell+0xca>
/home/yogi/src/os/kshell/kshell.c:359
        }
        if (lCurrKey=='\b')
 31007f0:	0f b6 85 e3 fe ff ff 	movzx  eax,BYTE PTR [ebp-0x11d]
 31007f7:	3c 08                	cmp    al,0x8
 31007f9:	75 15                	jne    3100810 <kShell+0x149>
/home/yogi/src/os/kshell/kshell.c:361
        {
            if (lCurrKeyCount>0)
 31007fb:	83 7d f4 00          	cmp    DWORD PTR [ebp-0xc],0x0
 31007ff:	7e 90                	jle    3100791 <kShell+0xca>
/home/yogi/src/os/kshell/kshell.c:363
            {
                putc('\b');
 3100801:	83 ec 0c             	sub    esp,0xc
 3100804:	6a 08                	push   0x8
 3100806:	e8 75 01 00 00       	call   3100980 <kShell+0x2b9>
 310080b:	83 c4 10             	add    esp,0x10
 310080e:	eb 81                	jmp    3100791 <kShell+0xca>
/home/yogi/src/os/kshell/kshell.c:375
                cursorMoveTo(cursorGetPosX()-1,lTemp);*/
            }
            else
                goto getAKey;
        }
        else if (lCurrKey==0xa)
 3100810:	0f b6 85 e3 fe ff ff 	movzx  eax,BYTE PTR [ebp-0x11d]
 3100817:	3c 0a                	cmp    al,0xa
 3100819:	74 1c                	je     3100837 <kShell+0x170>
/home/yogi/src/os/kshell/kshell.c:381
        {
            goto doneGettingKeys;
        }
        else
        {
            lCommand[lCurrKeyCount++]=lCurrKey;
 310081b:	8b 45 f4             	mov    eax,DWORD PTR [ebp-0xc]
 310081e:	8d 50 01             	lea    edx,[eax+0x1]
 3100821:	89 55 f4             	mov    DWORD PTR [ebp-0xc],edx
 3100824:	0f b6 95 e3 fe ff ff 	movzx  edx,BYTE PTR [ebp-0x11d]
 310082b:	88 94 05 e4 fe ff ff 	mov    BYTE PTR [ebp+eax*1-0x11c],dl
/home/yogi/src/os/kshell/kshell.c:383
        }
        goto getAKey;
 3100832:	e9 5a ff ff ff       	jmp    3100791 <kShell+0xca>
/home/yogi/src/os/kshell/kshell.c:377
            else
                goto getAKey;
        }
        else if (lCurrKey==0xa)
        {
            goto doneGettingKeys;
 3100837:	90                   	nop
/home/yogi/src/os/kshell/kshell.c:386
            lCommand[lCurrKeyCount++]=lCurrKey;
        }
        goto getAKey;
//        gets(lCommand,50);
doneGettingKeys:
        if (lCommand[0]==0x0)
 3100838:	0f b6 85 e4 fe ff ff 	movzx  eax,BYTE PTR [ebp-0x11c]
 310083f:	84 c0                	test   al,al
 3100841:	75 05                	jne    3100848 <kShell+0x181>
/home/yogi/src/os/kshell/kshell.c:387
            goto getACommand;
 3100843:	e9 0d ff ff ff       	jmp    3100755 <kShell+0x8e>
/home/yogi/src/os/kshell/kshell.c:388
        int i = findCommand(lCommand);
 3100848:	83 ec 0c             	sub    esp,0xc
 310084b:	8d 85 e4 fe ff ff    	lea    eax,[ebp-0x11c]
 3100851:	50                   	push   eax
 3100852:	e8 9e f9 ff ff       	call   31001f5 <findCommand>
 3100857:	83 c4 10             	add    esp,0x10
 310085a:	89 45 e4             	mov    DWORD PTR [ebp-0x1c],eax
/home/yogi/src/os/kshell/kshell.c:390

        execInternalCommand(lCommand);
 310085d:	83 ec 0c             	sub    esp,0xc
 3100860:	8d 85 e4 fe ff ff    	lea    eax,[ebp-0x11c]
 3100866:	50                   	push   eax
 3100867:	e8 94 f7 ff ff       	call   3100000 <execInternalCommand>
 310086c:	83 c4 10             	add    esp,0x10
/home/yogi/src/os/kshell/kshell.c:391
        if(i>0)
 310086f:	83 7d e4 00          	cmp    DWORD PTR [ebp-0x1c],0x0
 3100873:	7e 31                	jle    31008a6 <kShell+0x1df>
/home/yogi/src/os/kshell/kshell.c:393
        {
            i--;
 3100875:	83 6d e4 01          	sub    DWORD PTR [ebp-0x1c],0x1
/home/yogi/src/os/kshell/kshell.c:402
//                for (int cnt=commandWasFromThisBufferPtr;cnt<=commandsPtr;cnt++)
//                    strcpy(commands[cnt],commands[cnt+1]);
//                commandWasFromThisBufferPtr=0;
//                commandsPtr--;
            }
            strcpy(commands[commandsPtr++],lCommand);
 3100879:	8b 45 f0             	mov    eax,DWORD PTR [ebp-0x10]
 310087c:	8d 50 01             	lea    edx,[eax+0x1]
 310087f:	89 55 f0             	mov    DWORD PTR [ebp-0x10],edx
 3100882:	8d 95 1f f5 ff ff    	lea    edx,[ebp-0xae1]
 3100888:	6b c0 32             	imul   eax,eax,0x32
 310088b:	01 c2                	add    edx,eax
 310088d:	83 ec 08             	sub    esp,0x8
 3100890:	8d 85 e4 fe ff ff    	lea    eax,[ebp-0x11c]
 3100896:	50                   	push   eax
 3100897:	52                   	push   edx
 3100898:	e8 33 00 00 00       	call   31008d0 <kShell+0x209>
 310089d:	83 c4 10             	add    esp,0x10
/home/yogi/src/os/kshell/kshell.c:403
            commandBuffPtr=commandsPtr;
 31008a0:	8b 45 f0             	mov    eax,DWORD PTR [ebp-0x10]
 31008a3:	89 45 ec             	mov    DWORD PTR [ebp-0x14],eax
/home/yogi/src/os/kshell/kshell.c:299
    sKShellProgramName=malloc(1024);
    strcpy(sKShellProgramName,"kShell");
    strcpy(sExecutingProgram,sKShellProgramName);
    puts("\nWelcome to kShell ... hang a while!\n");

    while (!timeToExit)
 31008a6:	0f b6 05 80 10 10 03 	movzx  eax,BYTE PTR ds:0x3101080
 31008ad:	83 f0 01             	xor    eax,0x1
 31008b0:	84 c0                	test   al,al
 31008b2:	0f 85 9d fe ff ff    	jne    3100755 <kShell+0x8e>
/home/yogi/src/os/kshell/kshell.c:406
            }
            strcpy(commands[commandsPtr++],lCommand);
            commandBuffPtr=commandsPtr;
        }
    }
    return exitCode;
 31008b8:	a1 84 10 10 03       	mov    eax,ds:0x3101084
/home/yogi/src/os/kshell/kshell.c:407
}
 31008bd:	c9                   	leave  
 31008be:	c3                   	ret    

Disassembly of section .plt:

031008c0 <.plt>:
 31008c0:	ff 35 34 10 10 03    	push   DWORD PTR ds:0x3101034
 31008c6:	ff 25 38 10 10 03    	jmp    DWORD PTR ds:0x3101038
 31008cc:	00 00                	add    BYTE PTR [eax],al
 31008ce:	00 00                	add    BYTE PTR [eax],al
 31008d0:	ff 25 3c 10 10 03    	jmp    DWORD PTR ds:0x310103c
 31008d6:	68 00 00 00 00       	push   0x0
 31008db:	e9 e0 ff ff ff       	jmp    31008c0 <kShell+0x1f9>
 31008e0:	ff 25 40 10 10 03    	jmp    DWORD PTR ds:0x3101040
 31008e6:	68 08 00 00 00       	push   0x8
 31008eb:	e9 d0 ff ff ff       	jmp    31008c0 <kShell+0x1f9>
 31008f0:	ff 25 44 10 10 03    	jmp    DWORD PTR ds:0x3101044
 31008f6:	68 10 00 00 00       	push   0x10
 31008fb:	e9 c0 ff ff ff       	jmp    31008c0 <kShell+0x1f9>
 3100900:	ff 25 48 10 10 03    	jmp    DWORD PTR ds:0x3101048
 3100906:	68 18 00 00 00       	push   0x18
 310090b:	e9 b0 ff ff ff       	jmp    31008c0 <kShell+0x1f9>
 3100910:	ff 25 4c 10 10 03    	jmp    DWORD PTR ds:0x310104c
 3100916:	68 20 00 00 00       	push   0x20
 310091b:	e9 a0 ff ff ff       	jmp    31008c0 <kShell+0x1f9>
 3100920:	ff 25 50 10 10 03    	jmp    DWORD PTR ds:0x3101050
 3100926:	68 28 00 00 00       	push   0x28
 310092b:	e9 90 ff ff ff       	jmp    31008c0 <kShell+0x1f9>
 3100930:	ff 25 54 10 10 03    	jmp    DWORD PTR ds:0x3101054
 3100936:	68 30 00 00 00       	push   0x30
 310093b:	e9 80 ff ff ff       	jmp    31008c0 <kShell+0x1f9>
 3100940:	ff 25 58 10 10 03    	jmp    DWORD PTR ds:0x3101058
 3100946:	68 38 00 00 00       	push   0x38
 310094b:	e9 70 ff ff ff       	jmp    31008c0 <kShell+0x1f9>
 3100950:	ff 25 5c 10 10 03    	jmp    DWORD PTR ds:0x310105c
 3100956:	68 40 00 00 00       	push   0x40
 310095b:	e9 60 ff ff ff       	jmp    31008c0 <kShell+0x1f9>
 3100960:	ff 25 60 10 10 03    	jmp    DWORD PTR ds:0x3101060
 3100966:	68 48 00 00 00       	push   0x48
 310096b:	e9 50 ff ff ff       	jmp    31008c0 <kShell+0x1f9>
 3100970:	ff 25 64 10 10 03    	jmp    DWORD PTR ds:0x3101064
 3100976:	68 50 00 00 00       	push   0x50
 310097b:	e9 40 ff ff ff       	jmp    31008c0 <kShell+0x1f9>
 3100980:	ff 25 68 10 10 03    	jmp    DWORD PTR ds:0x3101068
 3100986:	68 58 00 00 00       	push   0x58
 310098b:	e9 30 ff ff ff       	jmp    31008c0 <kShell+0x1f9>
 3100990:	ff 25 6c 10 10 03    	jmp    DWORD PTR ds:0x310106c
 3100996:	68 60 00 00 00       	push   0x60
 310099b:	e9 20 ff ff ff       	jmp    31008c0 <kShell+0x1f9>
 31009a0:	ff 25 70 10 10 03    	jmp    DWORD PTR ds:0x3101070
 31009a6:	68 68 00 00 00       	push   0x68
 31009ab:	e9 10 ff ff ff       	jmp    31008c0 <kShell+0x1f9>
