
Debug/cross-Linux/kshell:     file format elf32-i386


Disassembly of section .text:

03100000 <execInternalCommand>:
execInternalCommand():
/home/yogi/src/os/aproj/kshell/kshell.c:27
void execInternalCommand(char lCommand[256]);
int findCommand(char* command);
char **buildargv (const char *input);

void execInternalCommand(char lCommand[256])
{
 3100000:	55                   	push   ebp
 3100001:	89 e5                	mov    ebp,esp
 3100003:	53                   	push   ebx
 3100004:	83 ec 14             	sub    esp,0x14
/home/yogi/src/os/aproj/kshell/kshell.c:28
    int i = findCommand(lCommand);
 3100007:	83 ec 0c             	sub    esp,0xc
 310000a:	ff 75 08             	push   DWORD PTR [ebp+0x8]
 310000d:	e8 38 02 00 00       	call   310024a <findCommand>
 3100012:	83 c4 10             	add    esp,0x10
 3100015:	89 45 f4             	mov    DWORD PTR [ebp-0xc],eax
/home/yogi/src/os/aproj/kshell/kshell.c:30

    if(i>0)
 3100018:	83 7d f4 00          	cmp    DWORD PTR [ebp-0xc],0x0
 310001c:	7e 74                	jle    3100092 <execInternalCommand+0x92>
/home/yogi/src/os/aproj/kshell/kshell.c:32
    {
        i--;
 310001e:	83 6d f4 01          	sub    DWORD PTR [ebp-0xc],0x1
/home/yogi/src/os/aproj/kshell/kshell.c:34
        //print("Executing command # %u (%s)\n", i, cmds[i].name);
        command_function = cmds[i].function;
 3100022:	8b 45 f4             	mov    eax,DWORD PTR [ebp-0xc]
 3100025:	c1 e0 04             	shl    eax,0x4
 3100028:	05 c8 12 10 03       	add    eax,0x31012c8
 310002d:	8b 00                	mov    eax,DWORD PTR [eax]
 310002f:	a3 30 16 10 03       	mov    ds:0x3101630,eax
/home/yogi/src/os/aproj/kshell/kshell.c:35
        command_function_p = cmds[i].function;
 3100034:	8b 45 f4             	mov    eax,DWORD PTR [ebp-0xc]
 3100037:	c1 e0 04             	shl    eax,0x4
 310003a:	05 c8 12 10 03       	add    eax,0x31012c8
 310003f:	8b 00                	mov    eax,DWORD PTR [eax]
 3100041:	a3 20 16 10 03       	mov    ds:0x3101620,eax
/home/yogi/src/os/aproj/kshell/kshell.c:36
        if (cmds[i].paramCount==0)
 3100046:	8b 45 f4             	mov    eax,DWORD PTR [ebp-0xc]
 3100049:	c1 e0 04             	shl    eax,0x4
 310004c:	05 cc 12 10 03       	add    eax,0x31012cc
 3100051:	8b 00                	mov    eax,DWORD PTR [eax]
 3100053:	85 c0                	test   eax,eax
 3100055:	75 09                	jne    3100060 <execInternalCommand+0x60>
/home/yogi/src/os/aproj/kshell/kshell.c:37
            command_function();
 3100057:	a1 30 16 10 03       	mov    eax,ds:0x3101630
 310005c:	ff d0                	call   eax
/home/yogi/src/os/aproj/kshell/kshell.c:47
    }
    else
    {
        print("Invalid command '%s' ya dummy!\n",lCommand);
    }
}
 310005e:	eb 45                	jmp    31000a5 <execInternalCommand+0xa5>
/home/yogi/src/os/aproj/kshell/kshell.c:40
        command_function_p = cmds[i].function;
        if (cmds[i].paramCount==0)
            command_function();
        else
        {
            command_function_p(&lCommand[strlen(cmds[i].name)+1]);  //NOTE: Remove & and "[strlen(cmds[i].name)+1]" to add command to the parameters
 3100060:	8b 1d 20 16 10 03    	mov    ebx,DWORD PTR ds:0x3101620
 3100066:	8b 45 f4             	mov    eax,DWORD PTR [ebp-0xc]
 3100069:	c1 e0 04             	shl    eax,0x4
 310006c:	05 c0 12 10 03       	add    eax,0x31012c0
 3100071:	8b 00                	mov    eax,DWORD PTR [eax]
 3100073:	83 ec 0c             	sub    esp,0xc
 3100076:	50                   	push   eax
 3100077:	e8 f4 0b 00 00       	call   3100c70 <kShell+0x311>
 310007c:	83 c4 10             	add    esp,0x10
 310007f:	8d 50 01             	lea    edx,[eax+0x1]
 3100082:	8b 45 08             	mov    eax,DWORD PTR [ebp+0x8]
 3100085:	01 d0                	add    eax,edx
 3100087:	83 ec 0c             	sub    esp,0xc
 310008a:	50                   	push   eax
 310008b:	ff d3                	call   ebx
 310008d:	83 c4 10             	add    esp,0x10
/home/yogi/src/os/aproj/kshell/kshell.c:47
    }
    else
    {
        print("Invalid command '%s' ya dummy!\n",lCommand);
    }
}
 3100090:	eb 13                	jmp    31000a5 <execInternalCommand+0xa5>
/home/yogi/src/os/aproj/kshell/kshell.c:45
            command_function_p(&lCommand[strlen(cmds[i].name)+1]);  //NOTE: Remove & and "[strlen(cmds[i].name)+1]" to add command to the parameters
        }
    }
    else
    {
        print("Invalid command '%s' ya dummy!\n",lCommand);
 3100092:	83 ec 08             	sub    esp,0x8
 3100095:	ff 75 08             	push   DWORD PTR [ebp+0x8]
 3100098:	68 10 0d 10 03       	push   0x3100d10
 310009d:	e8 0e 0b 00 00       	call   3100bb0 <kShell+0x251>
 31000a2:	83 c4 10             	add    esp,0x10
/home/yogi/src/os/aproj/kshell/kshell.c:47
    }
}
 31000a5:	90                   	nop
 31000a6:	8b 5d fc             	mov    ebx,DWORD PTR [ebp-0x4]
 31000a9:	c9                   	leave  
 31000aa:	c3                   	ret    

031000ab <parseParamsShell>:
parseParamsShell():
/home/yogi/src/os/aproj/kshell/kshell.c:50

int parseParamsShell(char* cmdLine, char params[MAX_PARAM_COUNT][MAX_PARAM_WIDTH], int size)
    {
 31000ab:	55                   	push   ebp
 31000ac:	89 e5                	mov    ebp,esp
 31000ae:	53                   	push   ebx
 31000af:	83 ec 24             	sub    esp,0x24
/home/yogi/src/os/aproj/kshell/kshell.c:51
    int x=0,y=0;
 31000b2:	c7 45 f4 00 00 00 00 	mov    DWORD PTR [ebp-0xc],0x0
 31000b9:	c7 45 f0 00 00 00 00 	mov    DWORD PTR [ebp-0x10],0x0
/home/yogi/src/os/aproj/kshell/kshell.c:52
    int lRetVal=0,parsedChars=0;
 31000c0:	c7 45 ec 00 00 00 00 	mov    DWORD PTR [ebp-0x14],0x0
 31000c7:	c7 45 e8 00 00 00 00 	mov    DWORD PTR [ebp-0x18],0x0
/home/yogi/src/os/aproj/kshell/kshell.c:53
    bool needDoubleQuotetoEndParam=0;
 31000ce:	c6 45 e7 00          	mov    BYTE PTR [ebp-0x19],0x0
/home/yogi/src/os/aproj/kshell/kshell.c:55
    
    memset(params,0, size);
 31000d2:	8b 45 10             	mov    eax,DWORD PTR [ebp+0x10]
 31000d5:	83 ec 04             	sub    esp,0x4
 31000d8:	50                   	push   eax
 31000d9:	6a 00                	push   0x0
 31000db:	ff 75 0c             	push   DWORD PTR [ebp+0xc]
 31000de:	e8 6d 0b 00 00       	call   3100c50 <kShell+0x2f1>
 31000e3:	83 c4 10             	add    esp,0x10
/home/yogi/src/os/aproj/kshell/kshell.c:57
    //print("commandLine=%s\n",cmdLine);
    for (unsigned cnt=0;cnt<strlen(cmdLine);cnt++)
 31000e6:	c7 45 e0 00 00 00 00 	mov    DWORD PTR [ebp-0x20],0x0
 31000ed:	e9 1c 01 00 00       	jmp    310020e <parseParamsShell+0x163>
/home/yogi/src/os/aproj/kshell/kshell.c:59
    {
        if(cmdLine[cnt]=='"')
 31000f2:	8b 55 08             	mov    edx,DWORD PTR [ebp+0x8]
 31000f5:	8b 45 e0             	mov    eax,DWORD PTR [ebp-0x20]
 31000f8:	01 d0                	add    eax,edx
 31000fa:	0f b6 00             	movzx  eax,BYTE PTR [eax]
 31000fd:	3c 22                	cmp    al,0x22
 31000ff:	75 3f                	jne    3100140 <parseParamsShell+0x95>
/home/yogi/src/os/aproj/kshell/kshell.c:61
        {
            if (!needDoubleQuotetoEndParam)
 3100101:	0f b6 45 e7          	movzx  eax,BYTE PTR [ebp-0x19]
 3100105:	83 f0 01             	xor    eax,0x1
 3100108:	84 c0                	test   al,al
 310010a:	74 09                	je     3100115 <parseParamsShell+0x6a>
/home/yogi/src/os/aproj/kshell/kshell.c:63
            {
                needDoubleQuotetoEndParam=true;
 310010c:	c6 45 e7 01          	mov    BYTE PTR [ebp-0x19],0x1
 3100110:	e9 f1 00 00 00       	jmp    3100206 <parseParamsShell+0x15b>
/home/yogi/src/os/aproj/kshell/kshell.c:67
            }
            else
            {
                params[y][x]='\0';
 3100115:	8b 45 f0             	mov    eax,DWORD PTR [ebp-0x10]
 3100118:	6b d0 32             	imul   edx,eax,0x32
 310011b:	8b 45 0c             	mov    eax,DWORD PTR [ebp+0xc]
 310011e:	01 c2                	add    edx,eax
 3100120:	8b 45 f4             	mov    eax,DWORD PTR [ebp-0xc]
 3100123:	01 d0                	add    eax,edx
 3100125:	c6 00 00             	mov    BYTE PTR [eax],0x0
/home/yogi/src/os/aproj/kshell/kshell.c:68
                {x=0;y++;lRetVal++;}
 3100128:	c7 45 f4 00 00 00 00 	mov    DWORD PTR [ebp-0xc],0x0
 310012f:	83 45 f0 01          	add    DWORD PTR [ebp-0x10],0x1
 3100133:	83 45 ec 01          	add    DWORD PTR [ebp-0x14],0x1
/home/yogi/src/os/aproj/kshell/kshell.c:69
                needDoubleQuotetoEndParam=false;
 3100137:	c6 45 e7 00          	mov    BYTE PTR [ebp-0x19],0x0
 310013b:	e9 c6 00 00 00       	jmp    3100206 <parseParamsShell+0x15b>
/home/yogi/src/os/aproj/kshell/kshell.c:72
            }
        }
        else if ( ((cmdLine[cnt]==' ' || cmdLine[cnt]=='-') || cmdLine[cnt]==',') && !needDoubleQuotetoEndParam)
 3100140:	8b 55 08             	mov    edx,DWORD PTR [ebp+0x8]
 3100143:	8b 45 e0             	mov    eax,DWORD PTR [ebp-0x20]
 3100146:	01 d0                	add    eax,edx
 3100148:	0f b6 00             	movzx  eax,BYTE PTR [eax]
 310014b:	3c 20                	cmp    al,0x20
 310014d:	74 1e                	je     310016d <parseParamsShell+0xc2>
/home/yogi/src/os/aproj/kshell/kshell.c:72 (discriminator 2)
 310014f:	8b 55 08             	mov    edx,DWORD PTR [ebp+0x8]
 3100152:	8b 45 e0             	mov    eax,DWORD PTR [ebp-0x20]
 3100155:	01 d0                	add    eax,edx
 3100157:	0f b6 00             	movzx  eax,BYTE PTR [eax]
 310015a:	3c 2d                	cmp    al,0x2d
 310015c:	74 0f                	je     310016d <parseParamsShell+0xc2>
/home/yogi/src/os/aproj/kshell/kshell.c:72 (discriminator 4)
 310015e:	8b 55 08             	mov    edx,DWORD PTR [ebp+0x8]
 3100161:	8b 45 e0             	mov    eax,DWORD PTR [ebp-0x20]
 3100164:	01 d0                	add    eax,edx
 3100166:	0f b6 00             	movzx  eax,BYTE PTR [eax]
 3100169:	3c 2c                	cmp    al,0x2c
 310016b:	75 76                	jne    31001e3 <parseParamsShell+0x138>
/home/yogi/src/os/aproj/kshell/kshell.c:72 (discriminator 5)
 310016d:	0f b6 45 e7          	movzx  eax,BYTE PTR [ebp-0x19]
 3100171:	83 f0 01             	xor    eax,0x1
 3100174:	84 c0                	test   al,al
 3100176:	74 6b                	je     31001e3 <parseParamsShell+0x138>
/home/yogi/src/os/aproj/kshell/kshell.c:75
        {
            //print("Found a delimiter (%c), incrementing y to %u, setting x to 0\n",cmdLine[cnt],y+1);
            if (cmdLine[cnt]=='-' || cmdLine[cnt]=='/')
 3100178:	8b 55 08             	mov    edx,DWORD PTR [ebp+0x8]
 310017b:	8b 45 e0             	mov    eax,DWORD PTR [ebp-0x20]
 310017e:	01 d0                	add    eax,edx
 3100180:	0f b6 00             	movzx  eax,BYTE PTR [eax]
 3100183:	3c 2d                	cmp    al,0x2d
 3100185:	74 0f                	je     3100196 <parseParamsShell+0xeb>
/home/yogi/src/os/aproj/kshell/kshell.c:75 (discriminator 1)
 3100187:	8b 55 08             	mov    edx,DWORD PTR [ebp+0x8]
 310018a:	8b 45 e0             	mov    eax,DWORD PTR [ebp-0x20]
 310018d:	01 d0                	add    eax,edx
 310018f:	0f b6 00             	movzx  eax,BYTE PTR [eax]
 3100192:	3c 2f                	cmp    al,0x2f
 3100194:	75 23                	jne    31001b9 <parseParamsShell+0x10e>
/home/yogi/src/os/aproj/kshell/kshell.c:76
                params[y][x++]=cmdLine[cnt];
 3100196:	8b 45 f0             	mov    eax,DWORD PTR [ebp-0x10]
 3100199:	6b d0 32             	imul   edx,eax,0x32
 310019c:	8b 45 0c             	mov    eax,DWORD PTR [ebp+0xc]
 310019f:	8d 0c 02             	lea    ecx,[edx+eax*1]
 31001a2:	8b 45 f4             	mov    eax,DWORD PTR [ebp-0xc]
 31001a5:	8d 50 01             	lea    edx,[eax+0x1]
 31001a8:	89 55 f4             	mov    DWORD PTR [ebp-0xc],edx
 31001ab:	8b 5d 08             	mov    ebx,DWORD PTR [ebp+0x8]
 31001ae:	8b 55 e0             	mov    edx,DWORD PTR [ebp-0x20]
 31001b1:	01 da                	add    edx,ebx
 31001b3:	0f b6 12             	movzx  edx,BYTE PTR [edx]
 31001b6:	88 14 01             	mov    BYTE PTR [ecx+eax*1],dl
/home/yogi/src/os/aproj/kshell/kshell.c:77
            params[y][x]='\0';
 31001b9:	8b 45 f0             	mov    eax,DWORD PTR [ebp-0x10]
 31001bc:	6b d0 32             	imul   edx,eax,0x32
 31001bf:	8b 45 0c             	mov    eax,DWORD PTR [ebp+0xc]
 31001c2:	01 c2                	add    edx,eax
 31001c4:	8b 45 f4             	mov    eax,DWORD PTR [ebp-0xc]
 31001c7:	01 d0                	add    eax,edx
 31001c9:	c6 00 00             	mov    BYTE PTR [eax],0x0
/home/yogi/src/os/aproj/kshell/kshell.c:78
            if (cnt>0)
 31001cc:	83 7d e0 00          	cmp    DWORD PTR [ebp-0x20],0x0
 31001d0:	74 34                	je     3100206 <parseParamsShell+0x15b>
/home/yogi/src/os/aproj/kshell/kshell.c:79
                {x=0;y++;lRetVal++;}
 31001d2:	c7 45 f4 00 00 00 00 	mov    DWORD PTR [ebp-0xc],0x0
 31001d9:	83 45 f0 01          	add    DWORD PTR [ebp-0x10],0x1
 31001dd:	83 45 ec 01          	add    DWORD PTR [ebp-0x14],0x1
/home/yogi/src/os/aproj/kshell/kshell.c:78
        {
            //print("Found a delimiter (%c), incrementing y to %u, setting x to 0\n",cmdLine[cnt],y+1);
            if (cmdLine[cnt]=='-' || cmdLine[cnt]=='/')
                params[y][x++]=cmdLine[cnt];
            params[y][x]='\0';
            if (cnt>0)
 31001e1:	eb 23                	jmp    3100206 <parseParamsShell+0x15b>
/home/yogi/src/os/aproj/kshell/kshell.c:84
                {x=0;y++;lRetVal++;}
        }
        else
        {
            //print("Found a character to put at position %u,%u\n",y,x);
            params[y][x++]=cmdLine[cnt];
 31001e3:	8b 45 f0             	mov    eax,DWORD PTR [ebp-0x10]
 31001e6:	6b d0 32             	imul   edx,eax,0x32
 31001e9:	8b 45 0c             	mov    eax,DWORD PTR [ebp+0xc]
 31001ec:	8d 0c 02             	lea    ecx,[edx+eax*1]
 31001ef:	8b 45 f4             	mov    eax,DWORD PTR [ebp-0xc]
 31001f2:	8d 50 01             	lea    edx,[eax+0x1]
 31001f5:	89 55 f4             	mov    DWORD PTR [ebp-0xc],edx
 31001f8:	8b 5d 08             	mov    ebx,DWORD PTR [ebp+0x8]
 31001fb:	8b 55 e0             	mov    edx,DWORD PTR [ebp-0x20]
 31001fe:	01 da                	add    edx,ebx
 3100200:	0f b6 12             	movzx  edx,BYTE PTR [edx]
 3100203:	88 14 01             	mov    BYTE PTR [ecx+eax*1],dl
/home/yogi/src/os/aproj/kshell/kshell.c:86 (discriminator 2)
        }
        parsedChars++;
 3100206:	83 45 e8 01          	add    DWORD PTR [ebp-0x18],0x1
/home/yogi/src/os/aproj/kshell/kshell.c:57 (discriminator 2)
    int lRetVal=0,parsedChars=0;
    bool needDoubleQuotetoEndParam=0;
    
    memset(params,0, size);
    //print("commandLine=%s\n",cmdLine);
    for (unsigned cnt=0;cnt<strlen(cmdLine);cnt++)
 310020a:	83 45 e0 01          	add    DWORD PTR [ebp-0x20],0x1
/home/yogi/src/os/aproj/kshell/kshell.c:57 (discriminator 1)
 310020e:	83 ec 0c             	sub    esp,0xc
 3100211:	ff 75 08             	push   DWORD PTR [ebp+0x8]
 3100214:	e8 57 0a 00 00       	call   3100c70 <kShell+0x311>
 3100219:	83 c4 10             	add    esp,0x10
 310021c:	3b 45 e0             	cmp    eax,DWORD PTR [ebp-0x20]
 310021f:	0f 87 cd fe ff ff    	ja     31000f2 <parseParamsShell+0x47>
/home/yogi/src/os/aproj/kshell/kshell.c:88
            //print("Found a character to put at position %u,%u\n",y,x);
            params[y][x++]=cmdLine[cnt];
        }
        parsedChars++;
    }
    if (parsedChars)
 3100225:	83 7d e8 00          	cmp    DWORD PTR [ebp-0x18],0x0
 3100229:	74 17                	je     3100242 <parseParamsShell+0x197>
/home/yogi/src/os/aproj/kshell/kshell.c:90
    {
        lRetVal++;
 310022b:	83 45 ec 01          	add    DWORD PTR [ebp-0x14],0x1
/home/yogi/src/os/aproj/kshell/kshell.c:91
        params[y][x]='\0';
 310022f:	8b 45 f0             	mov    eax,DWORD PTR [ebp-0x10]
 3100232:	6b d0 32             	imul   edx,eax,0x32
 3100235:	8b 45 0c             	mov    eax,DWORD PTR [ebp+0xc]
 3100238:	01 c2                	add    edx,eax
 310023a:	8b 45 f4             	mov    eax,DWORD PTR [ebp-0xc]
 310023d:	01 d0                	add    eax,edx
 310023f:	c6 00 00             	mov    BYTE PTR [eax],0x0
/home/yogi/src/os/aproj/kshell/kshell.c:96
    }
    //print("Returning %u parameters:\n", lRetVal);
    //for (int cnt=0;cnt<lRetVal;cnt++)
        //print("\tParameter %u: '%s'\n", cnt, params[cnt]);
    return lRetVal;
 3100242:	8b 45 ec             	mov    eax,DWORD PTR [ebp-0x14]
/home/yogi/src/os/aproj/kshell/kshell.c:97
}
 3100245:	8b 5d fc             	mov    ebx,DWORD PTR [ebp-0x4]
 3100248:	c9                   	leave  
 3100249:	c3                   	ret    

0310024a <findCommand>:
findCommand():
/home/yogi/src/os/aproj/kshell/kshell.c:100

int findCommand(char* command)
{
 310024a:	55                   	push   ebp
 310024b:	89 e5                	mov    ebp,esp
 310024d:	83 ec 18             	sub    esp,0x18
/home/yogi/src/os/aproj/kshell/kshell.c:104
    unsigned i;
    int ret;
    
    for(i = 0; i < NUMBER_OF_COMMANDS; i++)
 3100250:	c7 45 f4 00 00 00 00 	mov    DWORD PTR [ebp-0xc],0x0
 3100257:	eb 4d                	jmp    31002a6 <findCommand+0x5c>
/home/yogi/src/os/aproj/kshell/kshell.c:106
    {
        ret = strncmp(command, cmds[i].name,strlen(cmds[i].name));
 3100259:	8b 45 f4             	mov    eax,DWORD PTR [ebp-0xc]
 310025c:	c1 e0 04             	shl    eax,0x4
 310025f:	05 c0 12 10 03       	add    eax,0x31012c0
 3100264:	8b 00                	mov    eax,DWORD PTR [eax]
 3100266:	83 ec 0c             	sub    esp,0xc
 3100269:	50                   	push   eax
 310026a:	e8 01 0a 00 00       	call   3100c70 <kShell+0x311>
 310026f:	83 c4 10             	add    esp,0x10
 3100272:	89 c2                	mov    edx,eax
 3100274:	8b 45 f4             	mov    eax,DWORD PTR [ebp-0xc]
 3100277:	c1 e0 04             	shl    eax,0x4
 310027a:	05 c0 12 10 03       	add    eax,0x31012c0
 310027f:	8b 00                	mov    eax,DWORD PTR [eax]
 3100281:	83 ec 04             	sub    esp,0x4
 3100284:	52                   	push   edx
 3100285:	50                   	push   eax
 3100286:	ff 75 08             	push   DWORD PTR [ebp+0x8]
 3100289:	e8 a2 09 00 00       	call   3100c30 <kShell+0x2d1>
 310028e:	83 c4 10             	add    esp,0x10
 3100291:	89 45 f0             	mov    DWORD PTR [ebp-0x10],eax
/home/yogi/src/os/aproj/kshell/kshell.c:108
        //print("findCommand compared %s and %s for %u, returned %u\n", command, cmds[i].name, strlen(cmds[i].name), ret);
        if(ret==0)
 3100294:	83 7d f0 00          	cmp    DWORD PTR [ebp-0x10],0x0
 3100298:	75 08                	jne    31002a2 <findCommand+0x58>
/home/yogi/src/os/aproj/kshell/kshell.c:111
        {
            //print("findCommand returning %u", i+1);
            return i+1;
 310029a:	8b 45 f4             	mov    eax,DWORD PTR [ebp-0xc]
 310029d:	83 c0 01             	add    eax,0x1
 31002a0:	eb 0f                	jmp    31002b1 <findCommand+0x67>
/home/yogi/src/os/aproj/kshell/kshell.c:104 (discriminator 2)
int findCommand(char* command)
{
    unsigned i;
    int ret;
    
    for(i = 0; i < NUMBER_OF_COMMANDS; i++)
 31002a2:	83 45 f4 01          	add    DWORD PTR [ebp-0xc],0x1
/home/yogi/src/os/aproj/kshell/kshell.c:104 (discriminator 1)
 31002a6:	83 7d f4 04          	cmp    DWORD PTR [ebp-0xc],0x4
 31002aa:	76 ad                	jbe    3100259 <findCommand+0xf>
/home/yogi/src/os/aproj/kshell/kshell.c:115
            //print("findCommand returning %u", i+1);
            return i+1;
        }
    }
    //print("findCommand returning -1");
            return -1;
 31002ac:	b8 ff ff ff ff       	mov    eax,0xffffffff
/home/yogi/src/os/aproj/kshell/kshell.c:116
}
 31002b1:	c9                   	leave  
 31002b2:	c3                   	ret    

031002b3 <buildargv>:
buildargv():
/home/yogi/src/os/aproj/kshell/kshell.c:120

/*parts from http://*/
char **buildargv (const char *input)
{
 31002b3:	55                   	push   ebp
 31002b4:	89 e5                	mov    ebp,esp
 31002b6:	83 ec 38             	sub    esp,0x38
/home/yogi/src/os/aproj/kshell/kshell.c:123
  char *arg;
  char *copybuf;
  int squote = 0;
 31002b9:	c7 45 ec 00 00 00 00 	mov    DWORD PTR [ebp-0x14],0x0
/home/yogi/src/os/aproj/kshell/kshell.c:124
  int dquote = 0;
 31002c0:	c7 45 e8 00 00 00 00 	mov    DWORD PTR [ebp-0x18],0x0
/home/yogi/src/os/aproj/kshell/kshell.c:125
  int bsquote = 0;
 31002c7:	c7 45 e4 00 00 00 00 	mov    DWORD PTR [ebp-0x1c],0x0
/home/yogi/src/os/aproj/kshell/kshell.c:126
  int argc = 0;
 31002ce:	c7 45 e0 00 00 00 00 	mov    DWORD PTR [ebp-0x20],0x0
/home/yogi/src/os/aproj/kshell/kshell.c:127
  int maxargc = 0;
 31002d5:	c7 45 dc 00 00 00 00 	mov    DWORD PTR [ebp-0x24],0x0
/home/yogi/src/os/aproj/kshell/kshell.c:128
  char **argv = NULL;
 31002dc:	c7 45 d8 00 00 00 00 	mov    DWORD PTR [ebp-0x28],0x0
/home/yogi/src/os/aproj/kshell/kshell.c:132
  char **nargv;
  //print("buildargv: entering\n");
  
  if (input != NULL)
 31002e3:	83 7d 08 00          	cmp    DWORD PTR [ebp+0x8],0x0
 31002e7:	0f 84 33 02 00 00    	je     3100520 <buildargv+0x26d>
/home/yogi/src/os/aproj/kshell/kshell.c:135
    {
      //print("buildargv: command to parse (%u chars) is: '%s'\n",strlen (input) + 1,input);
      copybuf = (char *) malloc (strlen (input) + 1);
 31002ed:	83 ec 0c             	sub    esp,0xc
 31002f0:	ff 75 08             	push   DWORD PTR [ebp+0x8]
 31002f3:	e8 78 09 00 00       	call   3100c70 <kShell+0x311>
 31002f8:	83 c4 10             	add    esp,0x10
 31002fb:	83 c0 01             	add    eax,0x1
 31002fe:	83 ec 0c             	sub    esp,0xc
 3100301:	50                   	push   eax
 3100302:	e8 d9 08 00 00       	call   3100be0 <kShell+0x281>
 3100307:	83 c4 10             	add    esp,0x10
 310030a:	89 45 f0             	mov    DWORD PTR [ebp-0x10],eax
/home/yogi/src/os/aproj/kshell/kshell.c:143
	 argv, even for null strings.  See NOTES above, test case below. */
      do
	{
	  /* Pick off argv[argc] */

	  if ((maxargc == 0) || (argc >= (maxargc - 1)))
 310030d:	83 7d dc 00          	cmp    DWORD PTR [ebp-0x24],0x0
 3100311:	74 0b                	je     310031e <buildargv+0x6b>
/home/yogi/src/os/aproj/kshell/kshell.c:143 (discriminator 1)
 3100313:	8b 45 dc             	mov    eax,DWORD PTR [ebp-0x24]
 3100316:	83 e8 01             	sub    eax,0x1
 3100319:	3b 45 e0             	cmp    eax,DWORD PTR [ebp-0x20]
 310031c:	7f 3d                	jg     310035b <buildargv+0xa8>
/home/yogi/src/os/aproj/kshell/kshell.c:146
	    {
	      /* argv needs initialization, or expansion */
	      if (argv == NULL)
 310031e:	83 7d d8 00          	cmp    DWORD PTR [ebp-0x28],0x0
 3100322:	75 1c                	jne    3100340 <buildargv+0x8d>
/home/yogi/src/os/aproj/kshell/kshell.c:148
		{
		  maxargc = INITIAL_MAXARGC;
 3100324:	c7 45 dc 14 00 00 00 	mov    DWORD PTR [ebp-0x24],0x14
/home/yogi/src/os/aproj/kshell/kshell.c:149
		  nargv = (char **) malloc (maxargc * sizeof (char *));
 310032b:	8b 45 dc             	mov    eax,DWORD PTR [ebp-0x24]
 310032e:	c1 e0 02             	shl    eax,0x2
 3100331:	83 ec 0c             	sub    esp,0xc
 3100334:	50                   	push   eax
 3100335:	e8 a6 08 00 00       	call   3100be0 <kShell+0x281>
 310033a:	83 c4 10             	add    esp,0x10
 310033d:	89 45 d4             	mov    DWORD PTR [ebp-0x2c],eax
/home/yogi/src/os/aproj/kshell/kshell.c:151
		}
	      argv = nargv;
 3100340:	8b 45 d4             	mov    eax,DWORD PTR [ebp-0x2c]
 3100343:	89 45 d8             	mov    DWORD PTR [ebp-0x28],eax
/home/yogi/src/os/aproj/kshell/kshell.c:152
	      argv[argc] = NULL;
 3100346:	8b 45 e0             	mov    eax,DWORD PTR [ebp-0x20]
 3100349:	8d 14 85 00 00 00 00 	lea    edx,[eax*4+0x0]
 3100350:	8b 45 d8             	mov    eax,DWORD PTR [ebp-0x28]
 3100353:	01 d0                	add    eax,edx
 3100355:	c7 00 00 00 00 00    	mov    DWORD PTR [eax],0x0
/home/yogi/src/os/aproj/kshell/kshell.c:155
	    }
	  /* Begin scanning arg */
	  arg = copybuf;
 310035b:	8b 45 f0             	mov    eax,DWORD PTR [ebp-0x10]
 310035e:	89 45 f4             	mov    DWORD PTR [ebp-0xc],eax
/home/yogi/src/os/aproj/kshell/kshell.c:156
	  while (*input != EOS)
 3100361:	e9 ec 00 00 00       	jmp    3100452 <buildargv+0x19f>
/home/yogi/src/os/aproj/kshell/kshell.c:158
	    {
	      if ((*input)==' ' && !squote && !dquote && !bsquote)
 3100366:	8b 45 08             	mov    eax,DWORD PTR [ebp+0x8]
 3100369:	0f b6 00             	movzx  eax,BYTE PTR [eax]
 310036c:	3c 20                	cmp    al,0x20
 310036e:	75 16                	jne    3100386 <buildargv+0xd3>
/home/yogi/src/os/aproj/kshell/kshell.c:158 (discriminator 1)
 3100370:	83 7d ec 00          	cmp    DWORD PTR [ebp-0x14],0x0
 3100374:	75 10                	jne    3100386 <buildargv+0xd3>
/home/yogi/src/os/aproj/kshell/kshell.c:158 (discriminator 2)
 3100376:	83 7d e8 00          	cmp    DWORD PTR [ebp-0x18],0x0
 310037a:	75 0a                	jne    3100386 <buildargv+0xd3>
/home/yogi/src/os/aproj/kshell/kshell.c:158 (discriminator 3)
 310037c:	83 7d e4 00          	cmp    DWORD PTR [ebp-0x1c],0x0
 3100380:	0f 84 da 00 00 00    	je     3100460 <buildargv+0x1ad>
/home/yogi/src/os/aproj/kshell/kshell.c:164
		{
		  break;
		}
	      else
		{
		  if (bsquote)
 3100386:	83 7d e4 00          	cmp    DWORD PTR [ebp-0x1c],0x0
 310038a:	74 1d                	je     31003a9 <buildargv+0xf6>
/home/yogi/src/os/aproj/kshell/kshell.c:166
		    {
		      bsquote = 0;
 310038c:	c7 45 e4 00 00 00 00 	mov    DWORD PTR [ebp-0x1c],0x0
/home/yogi/src/os/aproj/kshell/kshell.c:167
		      *arg++ = *input;
 3100393:	8b 45 f4             	mov    eax,DWORD PTR [ebp-0xc]
 3100396:	8d 50 01             	lea    edx,[eax+0x1]
 3100399:	89 55 f4             	mov    DWORD PTR [ebp-0xc],edx
 310039c:	8b 55 08             	mov    edx,DWORD PTR [ebp+0x8]
 310039f:	0f b6 12             	movzx  edx,BYTE PTR [edx]
 31003a2:	88 10                	mov    BYTE PTR [eax],dl
 31003a4:	e9 a5 00 00 00       	jmp    310044e <buildargv+0x19b>
/home/yogi/src/os/aproj/kshell/kshell.c:169
		    }
		  else if (*input == '\\')
 31003a9:	8b 45 08             	mov    eax,DWORD PTR [ebp+0x8]
 31003ac:	0f b6 00             	movzx  eax,BYTE PTR [eax]
 31003af:	3c 5c                	cmp    al,0x5c
 31003b1:	75 0c                	jne    31003bf <buildargv+0x10c>
/home/yogi/src/os/aproj/kshell/kshell.c:171
		    {
		      bsquote = 1;
 31003b3:	c7 45 e4 01 00 00 00 	mov    DWORD PTR [ebp-0x1c],0x1
 31003ba:	e9 8f 00 00 00       	jmp    310044e <buildargv+0x19b>
/home/yogi/src/os/aproj/kshell/kshell.c:173
		    }
		  else if (squote)
 31003bf:	83 7d ec 00          	cmp    DWORD PTR [ebp-0x14],0x0
 31003c3:	74 26                	je     31003eb <buildargv+0x138>
/home/yogi/src/os/aproj/kshell/kshell.c:175
		    {
		      if (*input == '\'')
 31003c5:	8b 45 08             	mov    eax,DWORD PTR [ebp+0x8]
 31003c8:	0f b6 00             	movzx  eax,BYTE PTR [eax]
 31003cb:	3c 27                	cmp    al,0x27
 31003cd:	75 09                	jne    31003d8 <buildargv+0x125>
/home/yogi/src/os/aproj/kshell/kshell.c:177
			{
			  squote = 0;
 31003cf:	c7 45 ec 00 00 00 00 	mov    DWORD PTR [ebp-0x14],0x0
 31003d6:	eb 76                	jmp    310044e <buildargv+0x19b>
/home/yogi/src/os/aproj/kshell/kshell.c:181
			}
		      else
			{
			  *arg++ = *input;
 31003d8:	8b 45 f4             	mov    eax,DWORD PTR [ebp-0xc]
 31003db:	8d 50 01             	lea    edx,[eax+0x1]
 31003de:	89 55 f4             	mov    DWORD PTR [ebp-0xc],edx
 31003e1:	8b 55 08             	mov    edx,DWORD PTR [ebp+0x8]
 31003e4:	0f b6 12             	movzx  edx,BYTE PTR [edx]
 31003e7:	88 10                	mov    BYTE PTR [eax],dl
 31003e9:	eb 63                	jmp    310044e <buildargv+0x19b>
/home/yogi/src/os/aproj/kshell/kshell.c:184
			}
		    }
		  else if (dquote)
 31003eb:	83 7d e8 00          	cmp    DWORD PTR [ebp-0x18],0x0
 31003ef:	74 26                	je     3100417 <buildargv+0x164>
/home/yogi/src/os/aproj/kshell/kshell.c:186
		    {
		      if (*input == '"')
 31003f1:	8b 45 08             	mov    eax,DWORD PTR [ebp+0x8]
 31003f4:	0f b6 00             	movzx  eax,BYTE PTR [eax]
 31003f7:	3c 22                	cmp    al,0x22
 31003f9:	75 09                	jne    3100404 <buildargv+0x151>
/home/yogi/src/os/aproj/kshell/kshell.c:188
			{
			  dquote = 0;
 31003fb:	c7 45 e8 00 00 00 00 	mov    DWORD PTR [ebp-0x18],0x0
 3100402:	eb 4a                	jmp    310044e <buildargv+0x19b>
/home/yogi/src/os/aproj/kshell/kshell.c:192
			}
		      else
			{
			  *arg++ = *input;
 3100404:	8b 45 f4             	mov    eax,DWORD PTR [ebp-0xc]
 3100407:	8d 50 01             	lea    edx,[eax+0x1]
 310040a:	89 55 f4             	mov    DWORD PTR [ebp-0xc],edx
 310040d:	8b 55 08             	mov    edx,DWORD PTR [ebp+0x8]
 3100410:	0f b6 12             	movzx  edx,BYTE PTR [edx]
 3100413:	88 10                	mov    BYTE PTR [eax],dl
 3100415:	eb 37                	jmp    310044e <buildargv+0x19b>
/home/yogi/src/os/aproj/kshell/kshell.c:197
			}
		    }
		  else
		    {
		      if (*input == '\'')
 3100417:	8b 45 08             	mov    eax,DWORD PTR [ebp+0x8]
 310041a:	0f b6 00             	movzx  eax,BYTE PTR [eax]
 310041d:	3c 27                	cmp    al,0x27
 310041f:	75 09                	jne    310042a <buildargv+0x177>
/home/yogi/src/os/aproj/kshell/kshell.c:199
			{
			  squote = 1;
 3100421:	c7 45 ec 01 00 00 00 	mov    DWORD PTR [ebp-0x14],0x1
 3100428:	eb 24                	jmp    310044e <buildargv+0x19b>
/home/yogi/src/os/aproj/kshell/kshell.c:201
			}
		      else if (*input == '"')
 310042a:	8b 45 08             	mov    eax,DWORD PTR [ebp+0x8]
 310042d:	0f b6 00             	movzx  eax,BYTE PTR [eax]
 3100430:	3c 22                	cmp    al,0x22
 3100432:	75 09                	jne    310043d <buildargv+0x18a>
/home/yogi/src/os/aproj/kshell/kshell.c:203
			{
			  dquote = 1;
 3100434:	c7 45 e8 01 00 00 00 	mov    DWORD PTR [ebp-0x18],0x1
 310043b:	eb 11                	jmp    310044e <buildargv+0x19b>
/home/yogi/src/os/aproj/kshell/kshell.c:207
			}
		      else
			{
			  *arg++ = *input;
 310043d:	8b 45 f4             	mov    eax,DWORD PTR [ebp-0xc]
 3100440:	8d 50 01             	lea    edx,[eax+0x1]
 3100443:	89 55 f4             	mov    DWORD PTR [ebp-0xc],edx
 3100446:	8b 55 08             	mov    edx,DWORD PTR [ebp+0x8]
 3100449:	0f b6 12             	movzx  edx,BYTE PTR [edx]
 310044c:	88 10                	mov    BYTE PTR [eax],dl
/home/yogi/src/os/aproj/kshell/kshell.c:211
                          //print("Incremented input to %u, char=%u,value='%c'\n",input,*input,*input);
			}
		    }
		  input++;
 310044e:	83 45 08 01          	add    DWORD PTR [ebp+0x8],0x1
/home/yogi/src/os/aproj/kshell/kshell.c:156
	      argv = nargv;
	      argv[argc] = NULL;
	    }
	  /* Begin scanning arg */
	  arg = copybuf;
	  while (*input != EOS)
 3100452:	8b 45 08             	mov    eax,DWORD PTR [ebp+0x8]
 3100455:	0f b6 00             	movzx  eax,BYTE PTR [eax]
 3100458:	84 c0                	test   al,al
 310045a:	0f 85 06 ff ff ff    	jne    3100366 <buildargv+0xb3>
/home/yogi/src/os/aproj/kshell/kshell.c:214
			}
		    }
		  input++;
		}
	    }
	  *arg = EOS;
 3100460:	8b 45 f4             	mov    eax,DWORD PTR [ebp-0xc]
 3100463:	c6 00 00             	mov    BYTE PTR [eax],0x0
/home/yogi/src/os/aproj/kshell/kshell.c:216
          //print("Found an EOS\n");
          if (copybuf[0]!='\0')
 3100466:	8b 45 f0             	mov    eax,DWORD PTR [ebp-0x10]
 3100469:	0f b6 00             	movzx  eax,BYTE PTR [eax]
 310046c:	84 c0                	test   al,al
 310046e:	0f 84 9e 00 00 00    	je     3100512 <buildargv+0x25f>
/home/yogi/src/os/aproj/kshell/kshell.c:218
          {
            char* temp=malloc(strlen(copybuf)+1);
 3100474:	83 ec 0c             	sub    esp,0xc
 3100477:	ff 75 f0             	push   DWORD PTR [ebp-0x10]
 310047a:	e8 f1 07 00 00       	call   3100c70 <kShell+0x311>
 310047f:	83 c4 10             	add    esp,0x10
 3100482:	83 c0 01             	add    eax,0x1
 3100485:	83 ec 0c             	sub    esp,0xc
 3100488:	50                   	push   eax
 3100489:	e8 52 07 00 00       	call   3100be0 <kShell+0x281>
 310048e:	83 c4 10             	add    esp,0x10
 3100491:	89 45 d0             	mov    DWORD PTR [ebp-0x30],eax
/home/yogi/src/os/aproj/kshell/kshell.c:221
            //print("*malloc'd temp to 0x%08X for %u characters\n",temp,strlen(copybuf));
            //print("Copied copybuf @ 0x%08X to temp @ 0x%08X\n",copybuf,temp);
            strcpy(temp,copybuf);
 3100494:	83 ec 08             	sub    esp,0x8
 3100497:	ff 75 f0             	push   DWORD PTR [ebp-0x10]
 310049a:	ff 75 d0             	push   DWORD PTR [ebp-0x30]
 310049d:	e8 ee 06 00 00       	call   3100b90 <kShell+0x231>
 31004a2:	83 c4 10             	add    esp,0x10
/home/yogi/src/os/aproj/kshell/kshell.c:222
            free(copybuf);
 31004a5:	83 ec 0c             	sub    esp,0xc
 31004a8:	ff 75 f0             	push   DWORD PTR [ebp-0x10]
 31004ab:	e8 d0 07 00 00       	call   3100c80 <kShell+0x321>
 31004b0:	83 c4 10             	add    esp,0x10
/home/yogi/src/os/aproj/kshell/kshell.c:223
            copybuf = (char *) malloc (strlen (input) + 1);
 31004b3:	83 ec 0c             	sub    esp,0xc
 31004b6:	ff 75 08             	push   DWORD PTR [ebp+0x8]
 31004b9:	e8 b2 07 00 00       	call   3100c70 <kShell+0x311>
 31004be:	83 c4 10             	add    esp,0x10
 31004c1:	83 c0 01             	add    eax,0x1
 31004c4:	83 ec 0c             	sub    esp,0xc
 31004c7:	50                   	push   eax
 31004c8:	e8 13 07 00 00       	call   3100be0 <kShell+0x281>
 31004cd:	83 c4 10             	add    esp,0x10
 31004d0:	89 45 f0             	mov    DWORD PTR [ebp-0x10],eax
/home/yogi/src/os/aproj/kshell/kshell.c:224
            argv[argc] = temp;
 31004d3:	8b 45 e0             	mov    eax,DWORD PTR [ebp-0x20]
 31004d6:	8d 14 85 00 00 00 00 	lea    edx,[eax*4+0x0]
 31004dd:	8b 45 d8             	mov    eax,DWORD PTR [ebp-0x28]
 31004e0:	01 c2                	add    edx,eax
 31004e2:	8b 45 d0             	mov    eax,DWORD PTR [ebp-0x30]
 31004e5:	89 02                	mov    DWORD PTR [edx],eax
/home/yogi/src/os/aproj/kshell/kshell.c:226
            //print("set argv[%u] to 0x%08X\n",argc,temp);
            argc++;
 31004e7:	83 45 e0 01          	add    DWORD PTR [ebp-0x20],0x1
/home/yogi/src/os/aproj/kshell/kshell.c:227
            argv[argc] = NULL;
 31004eb:	8b 45 e0             	mov    eax,DWORD PTR [ebp-0x20]
 31004ee:	8d 14 85 00 00 00 00 	lea    edx,[eax*4+0x0]
 31004f5:	8b 45 d8             	mov    eax,DWORD PTR [ebp-0x28]
 31004f8:	01 d0                	add    eax,edx
 31004fa:	c7 00 00 00 00 00    	mov    DWORD PTR [eax],0x0
/home/yogi/src/os/aproj/kshell/kshell.c:228
            input++;
 3100500:	83 45 08 01          	add    DWORD PTR [ebp+0x8],0x1
/home/yogi/src/os/aproj/kshell/kshell.c:229
            free(temp);
 3100504:	83 ec 0c             	sub    esp,0xc
 3100507:	ff 75 d0             	push   DWORD PTR [ebp-0x30]
 310050a:	e8 71 07 00 00       	call   3100c80 <kShell+0x321>
 310050f:	83 c4 10             	add    esp,0x10
/home/yogi/src/os/aproj/kshell/kshell.c:232
          }
	}
      while (*input != EOS);
 3100512:	8b 45 08             	mov    eax,DWORD PTR [ebp+0x8]
 3100515:	0f b6 00             	movzx  eax,BYTE PTR [eax]
 3100518:	84 c0                	test   al,al
 310051a:	0f 85 ed fd ff ff    	jne    310030d <buildargv+0x5a>
/home/yogi/src/os/aproj/kshell/kshell.c:235
    }
  //print("buildargv: exiting\n");
  free(copybuf);
 3100520:	83 ec 0c             	sub    esp,0xc
 3100523:	ff 75 f0             	push   DWORD PTR [ebp-0x10]
 3100526:	e8 55 07 00 00       	call   3100c80 <kShell+0x321>
 310052b:	83 c4 10             	add    esp,0x10
/home/yogi/src/os/aproj/kshell/kshell.c:236
  free(nargv);
 310052e:	83 ec 0c             	sub    esp,0xc
 3100531:	ff 75 d4             	push   DWORD PTR [ebp-0x2c]
 3100534:	e8 47 07 00 00       	call   3100c80 <kShell+0x321>
 3100539:	83 c4 10             	add    esp,0x10
/home/yogi/src/os/aproj/kshell/kshell.c:237
  return (argv);
 310053c:	8b 45 d8             	mov    eax,DWORD PTR [ebp-0x28]
/home/yogi/src/os/aproj/kshell/kshell.c:238
}
 310053f:	c9                   	leave  
 3100540:	c3                   	ret    

03100541 <helpMe>:
helpMe():
/home/yogi/src/os/aproj/kshell/kshell.c:241

void helpMe(char *cmdline)
{
 3100541:	55                   	push   ebp
 3100542:	89 e5                	mov    ebp,esp
 3100544:	83 ec 18             	sub    esp,0x18
/home/yogi/src/os/aproj/kshell/kshell.c:244
    char* tok;
    
    tok=strtok(cmdline,delim);
 3100547:	83 ec 08             	sub    esp,0x8
 310054a:	68 10 13 10 03       	push   0x3101310
 310054f:	ff 75 08             	push   DWORD PTR [ebp+0x8]
 3100552:	e8 e9 06 00 00       	call   3100c40 <kShell+0x2e1>
 3100557:	83 c4 10             	add    esp,0x10
 310055a:	89 45 f0             	mov    DWORD PTR [ebp-0x10],eax
/home/yogi/src/os/aproj/kshell/kshell.c:251
    {
        print("\t%s",tok);
        tok=strtok(0,delim);
    }
*/    
    print("Help: %s\n",tok);
 310055d:	83 ec 08             	sub    esp,0x8
 3100560:	ff 75 f0             	push   DWORD PTR [ebp-0x10]
 3100563:	68 30 0d 10 03       	push   0x3100d30
 3100568:	e8 43 06 00 00       	call   3100bb0 <kShell+0x251>
 310056d:	83 c4 10             	add    esp,0x10
/home/yogi/src/os/aproj/kshell/kshell.c:252
    for (unsigned cnt=0;cnt<sizeof(cmds)/sizeof(command_table_t);cnt++)
 3100570:	c7 45 f4 00 00 00 00 	mov    DWORD PTR [ebp-0xc],0x0
 3100577:	e9 86 00 00 00       	jmp    3100602 <helpMe+0xc1>
/home/yogi/src/os/aproj/kshell/kshell.c:253
        if (tok!=NULL)
 310057c:	83 7d f0 00          	cmp    DWORD PTR [ebp-0x10],0x0
 3100580:	74 50                	je     31005d2 <helpMe+0x91>
/home/yogi/src/os/aproj/kshell/kshell.c:255
        {
            if (strncmp(tok,cmds[cnt].name,100)==0)
 3100582:	8b 45 f4             	mov    eax,DWORD PTR [ebp-0xc]
 3100585:	c1 e0 04             	shl    eax,0x4
 3100588:	05 c0 12 10 03       	add    eax,0x31012c0
 310058d:	8b 00                	mov    eax,DWORD PTR [eax]
 310058f:	83 ec 04             	sub    esp,0x4
 3100592:	6a 64                	push   0x64
 3100594:	50                   	push   eax
 3100595:	ff 75 f0             	push   DWORD PTR [ebp-0x10]
 3100598:	e8 93 06 00 00       	call   3100c30 <kShell+0x2d1>
 310059d:	83 c4 10             	add    esp,0x10
 31005a0:	85 c0                	test   eax,eax
 31005a2:	75 5a                	jne    31005fe <helpMe+0xbd>
/home/yogi/src/os/aproj/kshell/kshell.c:256
                print("\t%s: %s\n", cmds[cnt].name, cmds[cnt].description);
 31005a4:	8b 45 f4             	mov    eax,DWORD PTR [ebp-0xc]
 31005a7:	c1 e0 04             	shl    eax,0x4
 31005aa:	05 c4 12 10 03       	add    eax,0x31012c4
 31005af:	8b 10                	mov    edx,DWORD PTR [eax]
 31005b1:	8b 45 f4             	mov    eax,DWORD PTR [ebp-0xc]
 31005b4:	c1 e0 04             	shl    eax,0x4
 31005b7:	05 c0 12 10 03       	add    eax,0x31012c0
 31005bc:	8b 00                	mov    eax,DWORD PTR [eax]
 31005be:	83 ec 04             	sub    esp,0x4
 31005c1:	52                   	push   edx
 31005c2:	50                   	push   eax
 31005c3:	68 3a 0d 10 03       	push   0x3100d3a
 31005c8:	e8 e3 05 00 00       	call   3100bb0 <kShell+0x251>
 31005cd:	83 c4 10             	add    esp,0x10
 31005d0:	eb 2c                	jmp    31005fe <helpMe+0xbd>
/home/yogi/src/os/aproj/kshell/kshell.c:259
        }
        else
            print("\t%s: %s\n", cmds[cnt].name, cmds[cnt].description);
 31005d2:	8b 45 f4             	mov    eax,DWORD PTR [ebp-0xc]
 31005d5:	c1 e0 04             	shl    eax,0x4
 31005d8:	05 c4 12 10 03       	add    eax,0x31012c4
 31005dd:	8b 10                	mov    edx,DWORD PTR [eax]
 31005df:	8b 45 f4             	mov    eax,DWORD PTR [ebp-0xc]
 31005e2:	c1 e0 04             	shl    eax,0x4
 31005e5:	05 c0 12 10 03       	add    eax,0x31012c0
 31005ea:	8b 00                	mov    eax,DWORD PTR [eax]
 31005ec:	83 ec 04             	sub    esp,0x4
 31005ef:	52                   	push   edx
 31005f0:	50                   	push   eax
 31005f1:	68 3a 0d 10 03       	push   0x3100d3a
 31005f6:	e8 b5 05 00 00       	call   3100bb0 <kShell+0x251>
 31005fb:	83 c4 10             	add    esp,0x10
/home/yogi/src/os/aproj/kshell/kshell.c:252 (discriminator 2)
        print("\t%s",tok);
        tok=strtok(0,delim);
    }
*/    
    print("Help: %s\n",tok);
    for (unsigned cnt=0;cnt<sizeof(cmds)/sizeof(command_table_t);cnt++)
 31005fe:	83 45 f4 01          	add    DWORD PTR [ebp-0xc],0x1
/home/yogi/src/os/aproj/kshell/kshell.c:252 (discriminator 1)
 3100602:	83 7d f4 04          	cmp    DWORD PTR [ebp-0xc],0x4
 3100606:	0f 86 70 ff ff ff    	jbe    310057c <helpMe+0x3b>
/home/yogi/src/os/aproj/kshell/kshell.c:261
                print("\t%s: %s\n", cmds[cnt].name, cmds[cnt].description);
        }
        else
            print("\t%s: %s\n", cmds[cnt].name, cmds[cnt].description);
        
}
 310060c:	90                   	nop
 310060d:	c9                   	leave  
 310060e:	c3                   	ret    

0310060f <paramsToArgv>:
paramsToArgv():
/home/yogi/src/os/aproj/kshell/kshell.c:264

char** paramsToArgv(int pcount, char params[MAX_PARAM_COUNT][MAX_PARAM_WIDTH])
{
 310060f:	55                   	push   ebp
 3100610:	89 e5                	mov    ebp,esp
 3100612:	53                   	push   ebx
 3100613:	83 ec 14             	sub    esp,0x14
/home/yogi/src/os/aproj/kshell/kshell.c:265
    char** pptr=malloc(sizeof(char*)*pcount);
 3100616:	8b 45 08             	mov    eax,DWORD PTR [ebp+0x8]
 3100619:	c1 e0 02             	shl    eax,0x2
 310061c:	83 ec 0c             	sub    esp,0xc
 310061f:	50                   	push   eax
 3100620:	e8 bb 05 00 00       	call   3100be0 <kShell+0x281>
 3100625:	83 c4 10             	add    esp,0x10
 3100628:	89 45 f0             	mov    DWORD PTR [ebp-0x10],eax
/home/yogi/src/os/aproj/kshell/kshell.c:267
    
    for (int cnt=0;cnt<pcount;cnt++)
 310062b:	c7 45 f4 00 00 00 00 	mov    DWORD PTR [ebp-0xc],0x0
 3100632:	eb 4e                	jmp    3100682 <paramsToArgv+0x73>
/home/yogi/src/os/aproj/kshell/kshell.c:269 (discriminator 3)
    {
        pptr[cnt]=malloc(MAX_PARAM_WIDTH);
 3100634:	8b 45 f4             	mov    eax,DWORD PTR [ebp-0xc]
 3100637:	8d 14 85 00 00 00 00 	lea    edx,[eax*4+0x0]
 310063e:	8b 45 f0             	mov    eax,DWORD PTR [ebp-0x10]
 3100641:	8d 1c 02             	lea    ebx,[edx+eax*1]
 3100644:	83 ec 0c             	sub    esp,0xc
 3100647:	6a 32                	push   0x32
 3100649:	e8 92 05 00 00       	call   3100be0 <kShell+0x281>
 310064e:	83 c4 10             	add    esp,0x10
 3100651:	89 03                	mov    DWORD PTR [ebx],eax
/home/yogi/src/os/aproj/kshell/kshell.c:270 (discriminator 3)
        memcpy(pptr[cnt],&params[cnt],MAX_PARAM_WIDTH);
 3100653:	8b 45 f4             	mov    eax,DWORD PTR [ebp-0xc]
 3100656:	6b d0 32             	imul   edx,eax,0x32
 3100659:	8b 45 0c             	mov    eax,DWORD PTR [ebp+0xc]
 310065c:	01 c2                	add    edx,eax
 310065e:	8b 45 f4             	mov    eax,DWORD PTR [ebp-0xc]
 3100661:	8d 0c 85 00 00 00 00 	lea    ecx,[eax*4+0x0]
 3100668:	8b 45 f0             	mov    eax,DWORD PTR [ebp-0x10]
 310066b:	01 c8                	add    eax,ecx
 310066d:	8b 00                	mov    eax,DWORD PTR [eax]
 310066f:	83 ec 04             	sub    esp,0x4
 3100672:	6a 32                	push   0x32
 3100674:	52                   	push   edx
 3100675:	50                   	push   eax
 3100676:	e8 55 05 00 00       	call   3100bd0 <kShell+0x271>
 310067b:	83 c4 10             	add    esp,0x10
/home/yogi/src/os/aproj/kshell/kshell.c:267 (discriminator 3)

char** paramsToArgv(int pcount, char params[MAX_PARAM_COUNT][MAX_PARAM_WIDTH])
{
    char** pptr=malloc(sizeof(char*)*pcount);
    
    for (int cnt=0;cnt<pcount;cnt++)
 310067e:	83 45 f4 01          	add    DWORD PTR [ebp-0xc],0x1
/home/yogi/src/os/aproj/kshell/kshell.c:267 (discriminator 1)
 3100682:	8b 45 f4             	mov    eax,DWORD PTR [ebp-0xc]
 3100685:	3b 45 08             	cmp    eax,DWORD PTR [ebp+0x8]
 3100688:	7c aa                	jl     3100634 <paramsToArgv+0x25>
/home/yogi/src/os/aproj/kshell/kshell.c:272
    {
        pptr[cnt]=malloc(MAX_PARAM_WIDTH);
        memcpy(pptr[cnt],&params[cnt],MAX_PARAM_WIDTH);
    }
    return pptr;
 310068a:	8b 45 f0             	mov    eax,DWORD PTR [ebp-0x10]
/home/yogi/src/os/aproj/kshell/kshell.c:273
}
 310068d:	8b 5d fc             	mov    ebx,DWORD PTR [ebp-0x4]
 3100690:	c9                   	leave  
 3100691:	c3                   	ret    

03100692 <freeArgV>:
freeArgV():
/home/yogi/src/os/aproj/kshell/kshell.c:276

void freeArgV(int pcount, char **params)
{
 3100692:	55                   	push   ebp
 3100693:	89 e5                	mov    ebp,esp
 3100695:	83 ec 18             	sub    esp,0x18
/home/yogi/src/os/aproj/kshell/kshell.c:277
    for (int cnt=0;cnt<pcount;cnt++)
 3100698:	c7 45 f4 00 00 00 00 	mov    DWORD PTR [ebp-0xc],0x0
 310069f:	eb 15                	jmp    31006b6 <freeArgV+0x24>
/home/yogi/src/os/aproj/kshell/kshell.c:278 (discriminator 3)
        free(*params);
 31006a1:	8b 45 0c             	mov    eax,DWORD PTR [ebp+0xc]
 31006a4:	8b 00                	mov    eax,DWORD PTR [eax]
 31006a6:	83 ec 0c             	sub    esp,0xc
 31006a9:	50                   	push   eax
 31006aa:	e8 d1 05 00 00       	call   3100c80 <kShell+0x321>
 31006af:	83 c4 10             	add    esp,0x10
/home/yogi/src/os/aproj/kshell/kshell.c:277 (discriminator 3)
    return pptr;
}

void freeArgV(int pcount, char **params)
{
    for (int cnt=0;cnt<pcount;cnt++)
 31006b2:	83 45 f4 01          	add    DWORD PTR [ebp-0xc],0x1
/home/yogi/src/os/aproj/kshell/kshell.c:277 (discriminator 1)
 31006b6:	8b 45 f4             	mov    eax,DWORD PTR [ebp-0xc]
 31006b9:	3b 45 08             	cmp    eax,DWORD PTR [ebp+0x8]
 31006bc:	7c e3                	jl     31006a1 <freeArgV+0xf>
/home/yogi/src/os/aproj/kshell/kshell.c:279
        free(*params);
    free(params);
 31006be:	83 ec 0c             	sub    esp,0xc
 31006c1:	ff 75 0c             	push   DWORD PTR [ebp+0xc]
 31006c4:	e8 b7 05 00 00       	call   3100c80 <kShell+0x321>
 31006c9:	83 c4 10             	add    esp,0x10
/home/yogi/src/os/aproj/kshell/kshell.c:280
}
 31006cc:	90                   	nop
 31006cd:	c9                   	leave  
 31006ce:	c3                   	ret    

031006cf <execp>:
execp():
/home/yogi/src/os/aproj/kshell/kshell.c:283

void execp(char* cmdline)
{
 31006cf:	55                   	push   ebp
 31006d0:	89 e5                	mov    ebp,esp
 31006d2:	81 ec 28 02 00 00    	sub    esp,0x228
/home/yogi/src/os/aproj/kshell/kshell.c:284
    bool background=false;
 31006d8:	c6 45 f7 00          	mov    BYTE PTR [ebp-0x9],0x0
/home/yogi/src/os/aproj/kshell/kshell.c:285
    uint32_t pid=0;
 31006dc:	c7 45 e0 00 00 00 00 	mov    DWORD PTR [ebp-0x20],0x0
/home/yogi/src/os/aproj/kshell/kshell.c:287
    char* tok;
    char* pgm=NULL;
 31006e3:	c7 45 ec 00 00 00 00 	mov    DWORD PTR [ebp-0x14],0x0
/home/yogi/src/os/aproj/kshell/kshell.c:290

    char params[MAX_PARAM_COUNT][MAX_PARAM_WIDTH];
    int paramCount=parseParamsShell(cmdline, params, MAX_PARAM_WIDTH*MAX_PARAM_COUNT);
 31006ea:	83 ec 04             	sub    esp,0x4
 31006ed:	68 f4 01 00 00       	push   0x1f4
 31006f2:	8d 85 e4 fd ff ff    	lea    eax,[ebp-0x21c]
 31006f8:	50                   	push   eax
 31006f9:	ff 75 08             	push   DWORD PTR [ebp+0x8]
 31006fc:	e8 aa f9 ff ff       	call   31000ab <parseParamsShell>
 3100701:	83 c4 10             	add    esp,0x10
 3100704:	89 45 dc             	mov    DWORD PTR [ebp-0x24],eax
/home/yogi/src/os/aproj/kshell/kshell.c:291
    int execParamCount=0;
 3100707:	c7 45 e8 00 00 00 00 	mov    DWORD PTR [ebp-0x18],0x0
/home/yogi/src/os/aproj/kshell/kshell.c:292
    int pcount=1;
 310070e:	c7 45 e4 01 00 00 00 	mov    DWORD PTR [ebp-0x1c],0x1
/home/yogi/src/os/aproj/kshell/kshell.c:294
    
    tok=strtok(cmdline,delim);
 3100715:	83 ec 08             	sub    esp,0x8
 3100718:	68 10 13 10 03       	push   0x3101310
 310071d:	ff 75 08             	push   DWORD PTR [ebp+0x8]
 3100720:	e8 1b 05 00 00       	call   3100c40 <kShell+0x2e1>
 3100725:	83 c4 10             	add    esp,0x10
 3100728:	89 45 f0             	mov    DWORD PTR [ebp-0x10],eax
/home/yogi/src/os/aproj/kshell/kshell.c:295
    while (tok!=NULL)
 310072b:	eb 73                	jmp    31007a0 <execp+0xd1>
/home/yogi/src/os/aproj/kshell/kshell.c:297
    {
        if (strncmp(tok,"b",2)==0)
 310072d:	83 ec 04             	sub    esp,0x4
 3100730:	6a 02                	push   0x2
 3100732:	68 43 0d 10 03       	push   0x3100d43
 3100737:	ff 75 f0             	push   DWORD PTR [ebp-0x10]
 310073a:	e8 f1 04 00 00       	call   3100c30 <kShell+0x2d1>
 310073f:	83 c4 10             	add    esp,0x10
 3100742:	85 c0                	test   eax,eax
 3100744:	75 0a                	jne    3100750 <execp+0x81>
/home/yogi/src/os/aproj/kshell/kshell.c:299
        {
            background=true;
 3100746:	c6 45 f7 01          	mov    BYTE PTR [ebp-0x9],0x1
/home/yogi/src/os/aproj/kshell/kshell.c:300
            execParamCount++;
 310074a:	83 45 e8 01          	add    DWORD PTR [ebp-0x18],0x1
 310074e:	eb 37                	jmp    3100787 <execp+0xb8>
/home/yogi/src/os/aproj/kshell/kshell.c:302
        }
        else if (pgm==NULL)
 3100750:	83 7d ec 00          	cmp    DWORD PTR [ebp-0x14],0x0
 3100754:	75 31                	jne    3100787 <execp+0xb8>
/home/yogi/src/os/aproj/kshell/kshell.c:304
        {
            pgm=malloc(strlen(tok)+1);  //NOTE: +1 is for the terminating \0
 3100756:	83 ec 0c             	sub    esp,0xc
 3100759:	ff 75 f0             	push   DWORD PTR [ebp-0x10]
 310075c:	e8 0f 05 00 00       	call   3100c70 <kShell+0x311>
 3100761:	83 c4 10             	add    esp,0x10
 3100764:	83 c0 01             	add    eax,0x1
 3100767:	83 ec 0c             	sub    esp,0xc
 310076a:	50                   	push   eax
 310076b:	e8 70 04 00 00       	call   3100be0 <kShell+0x281>
 3100770:	83 c4 10             	add    esp,0x10
 3100773:	89 45 ec             	mov    DWORD PTR [ebp-0x14],eax
/home/yogi/src/os/aproj/kshell/kshell.c:305
            strcpy(pgm,tok);
 3100776:	83 ec 08             	sub    esp,0x8
 3100779:	ff 75 f0             	push   DWORD PTR [ebp-0x10]
 310077c:	ff 75 ec             	push   DWORD PTR [ebp-0x14]
 310077f:	e8 0c 04 00 00       	call   3100b90 <kShell+0x231>
 3100784:	83 c4 10             	add    esp,0x10
/home/yogi/src/os/aproj/kshell/kshell.c:307
        }
        pcount++;
 3100787:	83 45 e4 01          	add    DWORD PTR [ebp-0x1c],0x1
/home/yogi/src/os/aproj/kshell/kshell.c:308
        tok=strtok(0,delim);
 310078b:	83 ec 08             	sub    esp,0x8
 310078e:	68 10 13 10 03       	push   0x3101310
 3100793:	6a 00                	push   0x0
 3100795:	e8 a6 04 00 00       	call   3100c40 <kShell+0x2e1>
 310079a:	83 c4 10             	add    esp,0x10
 310079d:	89 45 f0             	mov    DWORD PTR [ebp-0x10],eax
/home/yogi/src/os/aproj/kshell/kshell.c:295
    int paramCount=parseParamsShell(cmdline, params, MAX_PARAM_WIDTH*MAX_PARAM_COUNT);
    int execParamCount=0;
    int pcount=1;
    
    tok=strtok(cmdline,delim);
    while (tok!=NULL)
 31007a0:	83 7d f0 00          	cmp    DWORD PTR [ebp-0x10],0x0
 31007a4:	75 87                	jne    310072d <execp+0x5e>
/home/yogi/src/os/aproj/kshell/kshell.c:311
        }
        pcount++;
        tok=strtok(0,delim);
    }
    
    char** prms=paramsToArgv(paramCount-execParamCount,&params[execParamCount][0]);
 31007a6:	8d 95 e4 fd ff ff    	lea    edx,[ebp-0x21c]
 31007ac:	8b 45 e8             	mov    eax,DWORD PTR [ebp-0x18]
 31007af:	6b c0 32             	imul   eax,eax,0x32
 31007b2:	01 c2                	add    edx,eax
 31007b4:	8b 45 dc             	mov    eax,DWORD PTR [ebp-0x24]
 31007b7:	2b 45 e8             	sub    eax,DWORD PTR [ebp-0x18]
 31007ba:	83 ec 08             	sub    esp,0x8
 31007bd:	52                   	push   edx
 31007be:	50                   	push   eax
 31007bf:	e8 4b fe ff ff       	call   310060f <paramsToArgv>
 31007c4:	83 c4 10             	add    esp,0x10
 31007c7:	89 45 d8             	mov    DWORD PTR [ebp-0x28],eax
/home/yogi/src/os/aproj/kshell/kshell.c:313

    print ("Executing %s\n",pgm);
 31007ca:	83 ec 08             	sub    esp,0x8
 31007cd:	ff 75 ec             	push   DWORD PTR [ebp-0x14]
 31007d0:	68 45 0d 10 03       	push   0x3100d45
 31007d5:	e8 d6 03 00 00       	call   3100bb0 <kShell+0x251>
 31007da:	83 c4 10             	add    esp,0x10
/home/yogi/src/os/aproj/kshell/kshell.c:314
    pid=exec(pgm,paramCount-execParamCount,prms);
 31007dd:	8b 45 dc             	mov    eax,DWORD PTR [ebp-0x24]
 31007e0:	2b 45 e8             	sub    eax,DWORD PTR [ebp-0x18]
 31007e3:	83 ec 04             	sub    esp,0x4
 31007e6:	ff 75 d8             	push   DWORD PTR [ebp-0x28]
 31007e9:	50                   	push   eax
 31007ea:	ff 75 ec             	push   DWORD PTR [ebp-0x14]
 31007ed:	e8 2e 04 00 00       	call   3100c20 <kShell+0x2c1>
 31007f2:	83 c4 10             	add    esp,0x10
 31007f5:	89 45 e0             	mov    DWORD PTR [ebp-0x20],eax
/home/yogi/src/os/aproj/kshell/kshell.c:315
    if (pid>0)
 31007f8:	83 7d e0 00          	cmp    DWORD PTR [ebp-0x20],0x0
 31007fc:	74 1b                	je     3100819 <execp+0x14a>
/home/yogi/src/os/aproj/kshell/kshell.c:317
    {
        if (!background)
 31007fe:	0f b6 45 f7          	movzx  eax,BYTE PTR [ebp-0x9]
 3100802:	83 f0 01             	xor    eax,0x1
 3100805:	84 c0                	test   al,al
 3100807:	74 23                	je     310082c <execp+0x15d>
/home/yogi/src/os/aproj/kshell/kshell.c:320
        {
            //print("DEBUG1: waitpid = %08X\n",&waitpid);
            waitpid(pid);
 3100809:	83 ec 0c             	sub    esp,0xc
 310080c:	ff 75 e0             	push   DWORD PTR [ebp-0x20]
 310080f:	e8 8c 03 00 00       	call   3100ba0 <kShell+0x241>
 3100814:	83 c4 10             	add    esp,0x10
 3100817:	eb 13                	jmp    310082c <execp+0x15d>
/home/yogi/src/os/aproj/kshell/kshell.c:324
        }
    }
    else
        print("Error executing %s\n",pgm);
 3100819:	83 ec 08             	sub    esp,0x8
 310081c:	ff 75 ec             	push   DWORD PTR [ebp-0x14]
 310081f:	68 53 0d 10 03       	push   0x3100d53
 3100824:	e8 87 03 00 00       	call   3100bb0 <kShell+0x251>
 3100829:	83 c4 10             	add    esp,0x10
/home/yogi/src/os/aproj/kshell/kshell.c:326
    //Its ok to free arguments now because they are copied by the kernel to pgm's memory
    freeArgV(paramCount-1, (char**)prms);       
 310082c:	8b 45 dc             	mov    eax,DWORD PTR [ebp-0x24]
 310082f:	83 e8 01             	sub    eax,0x1
 3100832:	83 ec 08             	sub    esp,0x8
 3100835:	ff 75 d8             	push   DWORD PTR [ebp-0x28]
 3100838:	50                   	push   eax
 3100839:	e8 54 fe ff ff       	call   3100692 <freeArgV>
 310083e:	83 c4 10             	add    esp,0x10
/home/yogi/src/os/aproj/kshell/kshell.c:327
    free(pgm);
 3100841:	83 ec 0c             	sub    esp,0xc
 3100844:	ff 75 ec             	push   DWORD PTR [ebp-0x14]
 3100847:	e8 34 04 00 00       	call   3100c80 <kShell+0x321>
 310084c:	83 c4 10             	add    esp,0x10
/home/yogi/src/os/aproj/kshell/kshell.c:328
}
 310084f:	90                   	nop
 3100850:	c9                   	leave  
 3100851:	c3                   	ret    

03100852 <kSleep>:
kSleep():
/home/yogi/src/os/aproj/kshell/kshell.c:331

void kSleep(char *cmdline)
{
 3100852:	55                   	push   ebp
 3100853:	89 e5                	mov    ebp,esp
 3100855:	81 ec 08 02 00 00    	sub    esp,0x208
/home/yogi/src/os/aproj/kshell/kshell.c:333
    char params[MAX_PARAM_COUNT][MAX_PARAM_WIDTH];
    int paramCount=parseParamsShell(cmdline, params, MAX_PARAM_WIDTH*MAX_PARAM_COUNT);
 310085b:	83 ec 04             	sub    esp,0x4
 310085e:	68 f4 01 00 00       	push   0x1f4
 3100863:	8d 85 00 fe ff ff    	lea    eax,[ebp-0x200]
 3100869:	50                   	push   eax
 310086a:	ff 75 08             	push   DWORD PTR [ebp+0x8]
 310086d:	e8 39 f8 ff ff       	call   31000ab <parseParamsShell>
 3100872:	83 c4 10             	add    esp,0x10
 3100875:	89 45 f4             	mov    DWORD PTR [ebp-0xc],eax
/home/yogi/src/os/aproj/kshell/kshell.c:335

    if (params[0][0]==0)
 3100878:	0f b6 85 00 fe ff ff 	movzx  eax,BYTE PTR [ebp-0x200]
 310087f:	84 c0                	test   al,al
 3100881:	75 12                	jne    3100895 <kSleep+0x43>
/home/yogi/src/os/aproj/kshell/kshell.c:337
    {
        print("Requires 1 parameter which is the number of seconds to sleep\n");
 3100883:	83 ec 0c             	sub    esp,0xc
 3100886:	68 68 0d 10 03       	push   0x3100d68
 310088b:	e8 20 03 00 00       	call   3100bb0 <kShell+0x251>
 3100890:	83 c4 10             	add    esp,0x10
 3100893:	eb 22                	jmp    31008b7 <kSleep+0x65>
/home/yogi/src/os/aproj/kshell/kshell.c:341
        return;
    }
    //print("Sleeping for %u seconds\n",strtoul(params[0],0,10));
    sleep(strtoul(params[0],0,10));
 3100895:	83 ec 04             	sub    esp,0x4
 3100898:	6a 0a                	push   0xa
 310089a:	6a 00                	push   0x0
 310089c:	8d 85 00 fe ff ff    	lea    eax,[ebp-0x200]
 31008a2:	50                   	push   eax
 31008a3:	e8 58 03 00 00       	call   3100c00 <kShell+0x2a1>
 31008a8:	83 c4 10             	add    esp,0x10
 31008ab:	83 ec 0c             	sub    esp,0xc
 31008ae:	50                   	push   eax
 31008af:	e8 3c 03 00 00       	call   3100bf0 <kShell+0x291>
 31008b4:	83 c4 10             	add    esp,0x10
/home/yogi/src/os/aproj/kshell/kshell.c:342
}
 31008b7:	c9                   	leave  
 31008b8:	c3                   	ret    

031008b9 <kExit>:
kExit():
/home/yogi/src/os/aproj/kshell/kshell.c:345

void kExit(char *cmdline)
{
 31008b9:	55                   	push   ebp
 31008ba:	89 e5                	mov    ebp,esp
 31008bc:	81 ec 08 02 00 00    	sub    esp,0x208
/home/yogi/src/os/aproj/kshell/kshell.c:348
    char params[MAX_PARAM_COUNT][MAX_PARAM_WIDTH];

    if (parseParamsShell(cmdline, params, MAX_PARAM_WIDTH*MAX_PARAM_COUNT))
 31008c2:	83 ec 04             	sub    esp,0x4
 31008c5:	68 f4 01 00 00       	push   0x1f4
 31008ca:	8d 85 04 fe ff ff    	lea    eax,[ebp-0x1fc]
 31008d0:	50                   	push   eax
 31008d1:	ff 75 08             	push   DWORD PTR [ebp+0x8]
 31008d4:	e8 d2 f7 ff ff       	call   31000ab <parseParamsShell>
 31008d9:	83 c4 10             	add    esp,0x10
 31008dc:	85 c0                	test   eax,eax
 31008de:	74 1d                	je     31008fd <kExit+0x44>
/home/yogi/src/os/aproj/kshell/kshell.c:350
    {
        exitCode = strtoul(params[0],0,10);
 31008e0:	83 ec 04             	sub    esp,0x4
 31008e3:	6a 0a                	push   0xa
 31008e5:	6a 00                	push   0x0
 31008e7:	8d 85 04 fe ff ff    	lea    eax,[ebp-0x1fc]
 31008ed:	50                   	push   eax
 31008ee:	e8 0d 03 00 00       	call   3100c00 <kShell+0x2a1>
 31008f3:	83 c4 10             	add    esp,0x10
 31008f6:	a3 04 14 10 03       	mov    ds:0x3101404,eax
 31008fb:	eb 0a                	jmp    3100907 <kExit+0x4e>
/home/yogi/src/os/aproj/kshell/kshell.c:353
    }
    else
        exitCode = 0;
 31008fd:	c7 05 04 14 10 03 00 	mov    DWORD PTR ds:0x3101404,0x0
 3100904:	00 00 00 
/home/yogi/src/os/aproj/kshell/kshell.c:354
    timeToExit=true;
 3100907:	c6 05 00 14 10 03 01 	mov    BYTE PTR ds:0x3101400,0x1
/home/yogi/src/os/aproj/kshell/kshell.c:355
}
 310090e:	90                   	nop
 310090f:	c9                   	leave  
 3100910:	c3                   	ret    

03100911 <pwd>:
pwd():
/home/yogi/src/os/aproj/kshell/kshell.c:358

void pwd()
{
 3100911:	55                   	push   ebp
 3100912:	89 e5                	mov    ebp,esp
 3100914:	83 ec 18             	sub    esp,0x18
/home/yogi/src/os/aproj/kshell/kshell.c:359
    char* buf=malloc(512);
 3100917:	83 ec 0c             	sub    esp,0xc
 310091a:	68 00 02 00 00       	push   0x200
 310091f:	e8 bc 02 00 00       	call   3100be0 <kShell+0x281>
 3100924:	83 c4 10             	add    esp,0x10
 3100927:	89 45 f4             	mov    DWORD PTR [ebp-0xc],eax
/home/yogi/src/os/aproj/kshell/kshell.c:360
    print("%s\n",getcwd(buf,512));
 310092a:	83 ec 08             	sub    esp,0x8
 310092d:	68 00 02 00 00       	push   0x200
 3100932:	ff 75 f4             	push   DWORD PTR [ebp-0xc]
 3100935:	e8 26 03 00 00       	call   3100c60 <kShell+0x301>
 310093a:	83 c4 10             	add    esp,0x10
 310093d:	83 ec 08             	sub    esp,0x8
 3100940:	50                   	push   eax
 3100941:	68 a6 0d 10 03       	push   0x3100da6
 3100946:	e8 65 02 00 00       	call   3100bb0 <kShell+0x251>
 310094b:	83 c4 10             	add    esp,0x10
/home/yogi/src/os/aproj/kshell/kshell.c:361
    free(buf);
 310094e:	83 ec 0c             	sub    esp,0xc
 3100951:	ff 75 f4             	push   DWORD PTR [ebp-0xc]
 3100954:	e8 27 03 00 00       	call   3100c80 <kShell+0x321>
 3100959:	83 c4 10             	add    esp,0x10
/home/yogi/src/os/aproj/kshell/kshell.c:362
}
 310095c:	90                   	nop
 310095d:	c9                   	leave  
 310095e:	c3                   	ret    

0310095f <kShell>:
kShell():
/home/yogi/src/os/aproj/kshell/kshell.c:365

int kShell(int argc, char** argv)
{
 310095f:	55                   	push   ebp
 3100960:	89 e5                	mov    ebp,esp
 3100962:	81 ec f8 0a 00 00    	sub    esp,0xaf8
/home/yogi/src/os/aproj/kshell/kshell.c:367
    char lCommand[256];
    uint8_t lCurrKey=0;
 3100968:	c6 85 e3 fe ff ff 00 	mov    BYTE PTR [ebp-0x11d],0x0
/home/yogi/src/os/aproj/kshell/kshell.c:368
    int lCurrKeyCount=0;
 310096f:	c7 45 f4 00 00 00 00 	mov    DWORD PTR [ebp-0xc],0x0
/home/yogi/src/os/aproj/kshell/kshell.c:370
    char commands[50][50];
    int commandsPtr=0;
 3100976:	c7 45 f0 00 00 00 00 	mov    DWORD PTR [ebp-0x10],0x0
/home/yogi/src/os/aproj/kshell/kshell.c:371
    int commandBuffPtr=0;
 310097d:	c7 45 ec 00 00 00 00 	mov    DWORD PTR [ebp-0x14],0x0
/home/yogi/src/os/aproj/kshell/kshell.c:372
    int commandWasFromThisBufferPtr=0;
 3100984:	c7 45 e8 00 00 00 00 	mov    DWORD PTR [ebp-0x18],0x0
/home/yogi/src/os/aproj/kshell/kshell.c:375
    char ansiSeq[20];

    libc_init();
 310098b:	e8 80 02 00 00       	call   3100c10 <kShell+0x2b1>
/home/yogi/src/os/aproj/kshell/kshell.c:376
    ansiSeq[0]=0x1b;
 3100990:	c6 85 0b f5 ff ff 1b 	mov    BYTE PTR [ebp-0xaf5],0x1b
/home/yogi/src/os/aproj/kshell/kshell.c:377
    sKShellProgramName=malloc(1024);
 3100997:	83 ec 0c             	sub    esp,0xc
 310099a:	68 00 04 00 00       	push   0x400
 310099f:	e8 3c 02 00 00       	call   3100be0 <kShell+0x281>
 31009a4:	83 c4 10             	add    esp,0x10
 31009a7:	a3 34 16 10 03       	mov    ds:0x3101634,eax
/home/yogi/src/os/aproj/kshell/kshell.c:378
    strcpy(sKShellProgramName,"kShell");
 31009ac:	a1 34 16 10 03       	mov    eax,ds:0x3101634
 31009b1:	83 ec 08             	sub    esp,0x8
 31009b4:	68 aa 0d 10 03       	push   0x3100daa
 31009b9:	50                   	push   eax
 31009ba:	e8 d1 01 00 00       	call   3100b90 <kShell+0x231>
 31009bf:	83 c4 10             	add    esp,0x10
/home/yogi/src/os/aproj/kshell/kshell.c:379
    strcpy(sExecutingProgram,sKShellProgramName);
 31009c2:	a1 34 16 10 03       	mov    eax,ds:0x3101634
 31009c7:	83 ec 08             	sub    esp,0x8
 31009ca:	50                   	push   eax
 31009cb:	68 20 14 10 03       	push   0x3101420
 31009d0:	e8 bb 01 00 00       	call   3100b90 <kShell+0x231>
 31009d5:	83 c4 10             	add    esp,0x10
/home/yogi/src/os/aproj/kshell/kshell.c:382
    //puts("\nWelcome to kShell ... hang a while!\n");

    while (!timeToExit)
 31009d8:	e9 78 01 00 00       	jmp    3100b55 <kShell+0x1f6>
/home/yogi/src/os/aproj/kshell/kshell.c:385
    {
getACommand:
        lCurrKey=0;
 31009dd:	c6 85 e3 fe ff ff 00 	mov    BYTE PTR [ebp-0x11d],0x0
/home/yogi/src/os/aproj/kshell/kshell.c:386
        lCurrKeyCount=0;
 31009e4:	c7 45 f4 00 00 00 00 	mov    DWORD PTR [ebp-0xc],0x0
/home/yogi/src/os/aproj/kshell/kshell.c:387
        memset(lCommand,0,256);
 31009eb:	83 ec 04             	sub    esp,0x4
 31009ee:	68 00 01 00 00       	push   0x100
 31009f3:	6a 00                	push   0x0
 31009f5:	8d 85 e4 fe ff ff    	lea    eax,[ebp-0x11c]
 31009fb:	50                   	push   eax
 31009fc:	e8 4f 02 00 00       	call   3100c50 <kShell+0x2f1>
 3100a01:	83 c4 10             	add    esp,0x10
/home/yogi/src/os/aproj/kshell/kshell.c:388
        print("%s> ",sExecutingProgram);
 3100a04:	83 ec 08             	sub    esp,0x8
 3100a07:	68 20 14 10 03       	push   0x3101420
 3100a0c:	68 b1 0d 10 03       	push   0x3100db1
 3100a11:	e8 9a 01 00 00       	call   3100bb0 <kShell+0x251>
 3100a16:	83 c4 10             	add    esp,0x10
/home/yogi/src/os/aproj/kshell/kshell.c:390
getAKey:
        lCurrKey=0;
 3100a19:	c6 85 e3 fe ff ff 00 	mov    BYTE PTR [ebp-0x11d],0x0
/home/yogi/src/os/aproj/kshell/kshell.c:391
        while(lCurrKey==0)
 3100a20:	eb 16                	jmp    3100a38 <kShell+0xd9>
/home/yogi/src/os/aproj/kshell/kshell.c:393
        {
            gets(&lCurrKey,1,1);
 3100a22:	83 ec 04             	sub    esp,0x4
 3100a25:	6a 01                	push   0x1
 3100a27:	6a 01                	push   0x1
 3100a29:	8d 85 e3 fe ff ff    	lea    eax,[ebp-0x11d]
 3100a2f:	50                   	push   eax
 3100a30:	e8 8b 01 00 00       	call   3100bc0 <kShell+0x261>
 3100a35:	83 c4 10             	add    esp,0x10
/home/yogi/src/os/aproj/kshell/kshell.c:391
        lCurrKeyCount=0;
        memset(lCommand,0,256);
        print("%s> ",sExecutingProgram);
getAKey:
        lCurrKey=0;
        while(lCurrKey==0)
 3100a38:	0f b6 85 e3 fe ff ff 	movzx  eax,BYTE PTR [ebp-0x11d]
 3100a3f:	84 c0                	test   al,al
 3100a41:	74 df                	je     3100a22 <kShell+0xc3>
/home/yogi/src/os/aproj/kshell/kshell.c:396
        {
            gets(&lCurrKey,1,1);
        }
        //print("key='%08X'",lCurrKey);
        if((unsigned short)lCurrKey==0xc8) //up
 3100a43:	0f b6 85 e3 fe ff ff 	movzx  eax,BYTE PTR [ebp-0x11d]
 3100a4a:	3c c8                	cmp    al,0xc8
 3100a4c:	75 06                	jne    3100a54 <kShell+0xf5>
/home/yogi/src/os/aproj/kshell/kshell.c:398
        {
            if (commandBuffPtr>=0)
 3100a4e:	83 7d ec 00          	cmp    DWORD PTR [ebp-0x14],0x0
 3100a52:	eb c5                	jmp    3100a19 <kShell+0xba>
/home/yogi/src/os/aproj/kshell/kshell.c:413
                goto getAKey;*/
            }
            else
                goto getAKey;
        }
        else if (lCurrKey==0xD0)  //down
 3100a54:	0f b6 85 e3 fe ff ff 	movzx  eax,BYTE PTR [ebp-0x11d]
 3100a5b:	3c d0                	cmp    al,0xd0
 3100a5d:	75 08                	jne    3100a67 <kShell+0x108>
/home/yogi/src/os/aproj/kshell/kshell.c:415
        {
            if (commandBuffPtr<=commandsPtr)
 3100a5f:	8b 45 ec             	mov    eax,DWORD PTR [ebp-0x14]
 3100a62:	3b 45 f0             	cmp    eax,DWORD PTR [ebp-0x10]
 3100a65:	eb b2                	jmp    3100a19 <kShell+0xba>
/home/yogi/src/os/aproj/kshell/kshell.c:431
            }
            else
                goto getAKey;
            
        }   
        else if (lCurrKey==0xcb) //left
 3100a67:	0f b6 85 e3 fe ff ff 	movzx  eax,BYTE PTR [ebp-0x11d]
 3100a6e:	3c cb                	cmp    al,0xcb
 3100a70:	75 1c                	jne    3100a8e <kShell+0x12f>
/home/yogi/src/os/aproj/kshell/kshell.c:433
        {
            if (lCurrKeyCount>0)
 3100a72:	83 7d f4 00          	cmp    DWORD PTR [ebp-0xc],0x0
 3100a76:	7e a1                	jle    3100a19 <kShell+0xba>
/home/yogi/src/os/aproj/kshell/kshell.c:435
            {
                print("\033[1D");
 3100a78:	83 ec 0c             	sub    esp,0xc
 3100a7b:	68 b6 0d 10 03       	push   0x3100db6
 3100a80:	e8 2b 01 00 00       	call   3100bb0 <kShell+0x251>
 3100a85:	83 c4 10             	add    esp,0x10
/home/yogi/src/os/aproj/kshell/kshell.c:436
                lCurrKeyCount--;
 3100a88:	83 6d f4 01          	sub    DWORD PTR [ebp-0xc],0x1
/home/yogi/src/os/aproj/kshell/kshell.c:439
            }
             
            goto getAKey;
 3100a8c:	eb 8b                	jmp    3100a19 <kShell+0xba>
/home/yogi/src/os/aproj/kshell/kshell.c:441
        }
        else if (lCurrKey==0xcd) //right
 3100a8e:	0f b6 85 e3 fe ff ff 	movzx  eax,BYTE PTR [ebp-0x11d]
 3100a95:	3c cd                	cmp    al,0xcd
 3100a97:	74 80                	je     3100a19 <kShell+0xba>
/home/yogi/src/os/aproj/kshell/kshell.c:444
        {
        }
        else if (lCurrKey=='\b') //backspace
 3100a99:	0f b6 85 e3 fe ff ff 	movzx  eax,BYTE PTR [ebp-0x11d]
 3100aa0:	3c 08                	cmp    al,0x8
 3100aa2:	75 1b                	jne    3100abf <kShell+0x160>
/home/yogi/src/os/aproj/kshell/kshell.c:446
        {
            lCurrKeyCount--;
 3100aa4:	83 6d f4 01          	sub    DWORD PTR [ebp-0xc],0x1
/home/yogi/src/os/aproj/kshell/kshell.c:447
            lCommand[lCurrKeyCount]='\0';
 3100aa8:	8d 95 e4 fe ff ff    	lea    edx,[ebp-0x11c]
 3100aae:	8b 45 f4             	mov    eax,DWORD PTR [ebp-0xc]
 3100ab1:	01 d0                	add    eax,edx
 3100ab3:	c6 00 00             	mov    BYTE PTR [eax],0x0
/home/yogi/src/os/aproj/kshell/kshell.c:448
            if (lCurrKeyCount>0)
 3100ab6:	83 7d f4 00          	cmp    DWORD PTR [ebp-0xc],0x0
 3100aba:	e9 5a ff ff ff       	jmp    3100a19 <kShell+0xba>
/home/yogi/src/os/aproj/kshell/kshell.c:460
                cursorMoveTo(cursorGetPosX()-1,lTemp);*/
            }
            else
                goto getAKey;
        }
        else if (lCurrKey==0xa) //Enter
 3100abf:	0f b6 85 e3 fe ff ff 	movzx  eax,BYTE PTR [ebp-0x11d]
 3100ac6:	3c 0a                	cmp    al,0xa
 3100ac8:	74 1c                	je     3100ae6 <kShell+0x187>
/home/yogi/src/os/aproj/kshell/kshell.c:466
        {
            goto doneGettingKeys;
        }
        else
        {
            lCommand[lCurrKeyCount++]=lCurrKey;
 3100aca:	8b 45 f4             	mov    eax,DWORD PTR [ebp-0xc]
 3100acd:	8d 50 01             	lea    edx,[eax+0x1]
 3100ad0:	89 55 f4             	mov    DWORD PTR [ebp-0xc],edx
 3100ad3:	0f b6 95 e3 fe ff ff 	movzx  edx,BYTE PTR [ebp-0x11d]
 3100ada:	88 94 05 e4 fe ff ff 	mov    BYTE PTR [ebp+eax*1-0x11c],dl
/home/yogi/src/os/aproj/kshell/kshell.c:468
        }
        goto getAKey;
 3100ae1:	e9 33 ff ff ff       	jmp    3100a19 <kShell+0xba>
/home/yogi/src/os/aproj/kshell/kshell.c:462
            else
                goto getAKey;
        }
        else if (lCurrKey==0xa) //Enter
        {
            goto doneGettingKeys;
 3100ae6:	90                   	nop
/home/yogi/src/os/aproj/kshell/kshell.c:471
            lCommand[lCurrKeyCount++]=lCurrKey;
        }
        goto getAKey;
//        gets(lCommand,50);
doneGettingKeys:
        if (lCommand[0]==0x0)
 3100ae7:	0f b6 85 e4 fe ff ff 	movzx  eax,BYTE PTR [ebp-0x11c]
 3100aee:	84 c0                	test   al,al
 3100af0:	75 05                	jne    3100af7 <kShell+0x198>
/home/yogi/src/os/aproj/kshell/kshell.c:472
            goto getACommand;
 3100af2:	e9 e6 fe ff ff       	jmp    31009dd <kShell+0x7e>
/home/yogi/src/os/aproj/kshell/kshell.c:473
        int i = findCommand(lCommand);
 3100af7:	83 ec 0c             	sub    esp,0xc
 3100afa:	8d 85 e4 fe ff ff    	lea    eax,[ebp-0x11c]
 3100b00:	50                   	push   eax
 3100b01:	e8 44 f7 ff ff       	call   310024a <findCommand>
 3100b06:	83 c4 10             	add    esp,0x10
 3100b09:	89 45 e4             	mov    DWORD PTR [ebp-0x1c],eax
/home/yogi/src/os/aproj/kshell/kshell.c:475

        execInternalCommand(lCommand);
 3100b0c:	83 ec 0c             	sub    esp,0xc
 3100b0f:	8d 85 e4 fe ff ff    	lea    eax,[ebp-0x11c]
 3100b15:	50                   	push   eax
 3100b16:	e8 e5 f4 ff ff       	call   3100000 <execInternalCommand>
 3100b1b:	83 c4 10             	add    esp,0x10
/home/yogi/src/os/aproj/kshell/kshell.c:476
        if(i>0)
 3100b1e:	83 7d e4 00          	cmp    DWORD PTR [ebp-0x1c],0x0
 3100b22:	7e 31                	jle    3100b55 <kShell+0x1f6>
/home/yogi/src/os/aproj/kshell/kshell.c:478
        {
            i--;
 3100b24:	83 6d e4 01          	sub    DWORD PTR [ebp-0x1c],0x1
/home/yogi/src/os/aproj/kshell/kshell.c:487
//                for (int cnt=commandWasFromThisBufferPtr;cnt<=commandsPtr;cnt++)
//                    strcpy(commands[cnt],commands[cnt+1]);
//                commandWasFromThisBufferPtr=0;
//                commandsPtr--;
            }
            strcpy(commands[commandsPtr++],lCommand);
 3100b28:	8b 45 f0             	mov    eax,DWORD PTR [ebp-0x10]
 3100b2b:	8d 50 01             	lea    edx,[eax+0x1]
 3100b2e:	89 55 f0             	mov    DWORD PTR [ebp-0x10],edx
 3100b31:	8d 95 1f f5 ff ff    	lea    edx,[ebp-0xae1]
 3100b37:	6b c0 32             	imul   eax,eax,0x32
 3100b3a:	01 c2                	add    edx,eax
 3100b3c:	83 ec 08             	sub    esp,0x8
 3100b3f:	8d 85 e4 fe ff ff    	lea    eax,[ebp-0x11c]
 3100b45:	50                   	push   eax
 3100b46:	52                   	push   edx
 3100b47:	e8 44 00 00 00       	call   3100b90 <kShell+0x231>
 3100b4c:	83 c4 10             	add    esp,0x10
/home/yogi/src/os/aproj/kshell/kshell.c:488
            commandBuffPtr=commandsPtr;
 3100b4f:	8b 45 f0             	mov    eax,DWORD PTR [ebp-0x10]
 3100b52:	89 45 ec             	mov    DWORD PTR [ebp-0x14],eax
/home/yogi/src/os/aproj/kshell/kshell.c:382
    sKShellProgramName=malloc(1024);
    strcpy(sKShellProgramName,"kShell");
    strcpy(sExecutingProgram,sKShellProgramName);
    //puts("\nWelcome to kShell ... hang a while!\n");

    while (!timeToExit)
 3100b55:	0f b6 05 00 14 10 03 	movzx  eax,BYTE PTR ds:0x3101400
 3100b5c:	83 f0 01             	xor    eax,0x1
 3100b5f:	84 c0                	test   al,al
 3100b61:	0f 85 76 fe ff ff    	jne    31009dd <kShell+0x7e>
/home/yogi/src/os/aproj/kshell/kshell.c:491
            }
            strcpy(commands[commandsPtr++],lCommand);
            commandBuffPtr=commandsPtr;
        }
    }
    free(sKShellProgramName);
 3100b67:	a1 34 16 10 03       	mov    eax,ds:0x3101634
 3100b6c:	83 ec 0c             	sub    esp,0xc
 3100b6f:	50                   	push   eax
 3100b70:	e8 0b 01 00 00       	call   3100c80 <kShell+0x321>
 3100b75:	83 c4 10             	add    esp,0x10
/home/yogi/src/os/aproj/kshell/kshell.c:492
    return exitCode;
 3100b78:	a1 04 14 10 03       	mov    eax,ds:0x3101404
/home/yogi/src/os/aproj/kshell/kshell.c:493
}
 3100b7d:	c9                   	leave  
 3100b7e:	c3                   	ret    

Disassembly of section .plt:

03100b80 <.plt>:
 3100b80:	ff 35 ac 13 10 03    	push   DWORD PTR ds:0x31013ac
 3100b86:	ff 25 b0 13 10 03    	jmp    DWORD PTR ds:0x31013b0
 3100b8c:	00 00                	add    BYTE PTR [eax],al
 3100b8e:	00 00                	add    BYTE PTR [eax],al
 3100b90:	ff 25 b4 13 10 03    	jmp    DWORD PTR ds:0x31013b4
 3100b96:	68 00 00 00 00       	push   0x0
 3100b9b:	e9 e0 ff ff ff       	jmp    3100b80 <kShell+0x221>
 3100ba0:	ff 25 b8 13 10 03    	jmp    DWORD PTR ds:0x31013b8
 3100ba6:	68 08 00 00 00       	push   0x8
 3100bab:	e9 d0 ff ff ff       	jmp    3100b80 <kShell+0x221>
 3100bb0:	ff 25 bc 13 10 03    	jmp    DWORD PTR ds:0x31013bc
 3100bb6:	68 10 00 00 00       	push   0x10
 3100bbb:	e9 c0 ff ff ff       	jmp    3100b80 <kShell+0x221>
 3100bc0:	ff 25 c0 13 10 03    	jmp    DWORD PTR ds:0x31013c0
 3100bc6:	68 18 00 00 00       	push   0x18
 3100bcb:	e9 b0 ff ff ff       	jmp    3100b80 <kShell+0x221>
 3100bd0:	ff 25 c4 13 10 03    	jmp    DWORD PTR ds:0x31013c4
 3100bd6:	68 20 00 00 00       	push   0x20
 3100bdb:	e9 a0 ff ff ff       	jmp    3100b80 <kShell+0x221>
 3100be0:	ff 25 c8 13 10 03    	jmp    DWORD PTR ds:0x31013c8
 3100be6:	68 28 00 00 00       	push   0x28
 3100beb:	e9 90 ff ff ff       	jmp    3100b80 <kShell+0x221>
 3100bf0:	ff 25 cc 13 10 03    	jmp    DWORD PTR ds:0x31013cc
 3100bf6:	68 30 00 00 00       	push   0x30
 3100bfb:	e9 80 ff ff ff       	jmp    3100b80 <kShell+0x221>
 3100c00:	ff 25 d0 13 10 03    	jmp    DWORD PTR ds:0x31013d0
 3100c06:	68 38 00 00 00       	push   0x38
 3100c0b:	e9 70 ff ff ff       	jmp    3100b80 <kShell+0x221>
 3100c10:	ff 25 d4 13 10 03    	jmp    DWORD PTR ds:0x31013d4
 3100c16:	68 40 00 00 00       	push   0x40
 3100c1b:	e9 60 ff ff ff       	jmp    3100b80 <kShell+0x221>
 3100c20:	ff 25 d8 13 10 03    	jmp    DWORD PTR ds:0x31013d8
 3100c26:	68 48 00 00 00       	push   0x48
 3100c2b:	e9 50 ff ff ff       	jmp    3100b80 <kShell+0x221>
 3100c30:	ff 25 dc 13 10 03    	jmp    DWORD PTR ds:0x31013dc
 3100c36:	68 50 00 00 00       	push   0x50
 3100c3b:	e9 40 ff ff ff       	jmp    3100b80 <kShell+0x221>
 3100c40:	ff 25 e0 13 10 03    	jmp    DWORD PTR ds:0x31013e0
 3100c46:	68 58 00 00 00       	push   0x58
 3100c4b:	e9 30 ff ff ff       	jmp    3100b80 <kShell+0x221>
 3100c50:	ff 25 e4 13 10 03    	jmp    DWORD PTR ds:0x31013e4
 3100c56:	68 60 00 00 00       	push   0x60
 3100c5b:	e9 20 ff ff ff       	jmp    3100b80 <kShell+0x221>
 3100c60:	ff 25 e8 13 10 03    	jmp    DWORD PTR ds:0x31013e8
 3100c66:	68 68 00 00 00       	push   0x68
 3100c6b:	e9 10 ff ff ff       	jmp    3100b80 <kShell+0x221>
 3100c70:	ff 25 ec 13 10 03    	jmp    DWORD PTR ds:0x31013ec
 3100c76:	68 70 00 00 00       	push   0x70
 3100c7b:	e9 00 ff ff ff       	jmp    3100b80 <kShell+0x221>
 3100c80:	ff 25 f0 13 10 03    	jmp    DWORD PTR ds:0x31013f0
 3100c86:	68 78 00 00 00       	push   0x78
 3100c8b:	e9 f0 fe ff ff       	jmp    3100b80 <kShell+0x221>
