
Debug/cross-Linux/time:     file format elf32-i386


Disassembly of section .text:

03200000 <main>:
main():
/home/yogi/src/os/time/testtime.c:19
#include "libChrisOS.h"

/*
 * 
 */
int main(int argc, char** argv) {
 3200000:	8d 4c 24 04          	lea    ecx,[esp+0x4]
 3200004:	83 e4 f0             	and    esp,0xfffffff0
 3200007:	ff 71 fc             	push   DWORD PTR [ecx-0x4]
 320000a:	55                   	push   ebp
 320000b:	89 e5                	mov    ebp,esp
 320000d:	53                   	push   ebx
 320000e:	51                   	push   ecx
 320000f:	83 ec 30             	sub    esp,0x30
 3200012:	89 cb                	mov    ebx,ecx
/home/yogi/src/os/time/testtime.c:21

    int pid=0;
 3200014:	c7 45 ec 00 00 00 00 	mov    DWORD PTR [ebp-0x14],0x0
/home/yogi/src/os/time/testtime.c:24
    struct tm *totalTime;
    time_t startTime, endTime, elapsed;
    int retVal=0;
 320001b:	c7 45 f4 00 00 00 00 	mov    DWORD PTR [ebp-0xc],0x0
/home/yogi/src/os/time/testtime.c:27
    
#ifdef DEBUG
    print("Param count=%u\n",argc);
 3200022:	83 ec 08             	sub    esp,0x8
 3200025:	ff 33                	push   DWORD PTR [ebx]
 3200027:	68 00 10 20 03       	push   0x3201000
 320002c:	e8 df 01 00 00       	call   3200210 <main+0x210>
 3200031:	83 c4 10             	add    esp,0x10
/home/yogi/src/os/time/testtime.c:28
    for (int cnt=0;cnt<argc;cnt++)
 3200034:	c7 45 f0 00 00 00 00 	mov    DWORD PTR [ebp-0x10],0x0
 320003b:	eb 29                	jmp    3200066 <main+0x66>
/home/yogi/src/os/time/testtime.c:29 (discriminator 3)
        print("Param %u=%s\n",cnt,argv[cnt]);
 320003d:	8b 45 f0             	mov    eax,DWORD PTR [ebp-0x10]
 3200040:	8d 14 85 00 00 00 00 	lea    edx,[eax*4+0x0]
 3200047:	8b 43 04             	mov    eax,DWORD PTR [ebx+0x4]
 320004a:	01 d0                	add    eax,edx
 320004c:	8b 00                	mov    eax,DWORD PTR [eax]
 320004e:	83 ec 04             	sub    esp,0x4
 3200051:	50                   	push   eax
 3200052:	ff 75 f0             	push   DWORD PTR [ebp-0x10]
 3200055:	68 10 10 20 03       	push   0x3201010
 320005a:	e8 b1 01 00 00       	call   3200210 <main+0x210>
 320005f:	83 c4 10             	add    esp,0x10
/home/yogi/src/os/time/testtime.c:28 (discriminator 3)
    time_t startTime, endTime, elapsed;
    int retVal=0;
    
#ifdef DEBUG
    print("Param count=%u\n",argc);
    for (int cnt=0;cnt<argc;cnt++)
 3200062:	83 45 f0 01          	add    DWORD PTR [ebp-0x10],0x1
/home/yogi/src/os/time/testtime.c:28 (discriminator 1)
 3200066:	8b 45 f0             	mov    eax,DWORD PTR [ebp-0x10]
 3200069:	3b 03                	cmp    eax,DWORD PTR [ebx]
 320006b:	7c d0                	jl     320003d <main+0x3d>
/home/yogi/src/os/time/testtime.c:31
        print("Param %u=%s\n",cnt,argv[cnt]);
#endif
    if (argc<2)
 320006d:	83 3b 01             	cmp    DWORD PTR [ebx],0x1
 3200070:	7f 17                	jg     3200089 <main+0x89>
/home/yogi/src/os/time/testtime.c:33
    {
        print("Error: Not enough parameters supplied, must pass path to program to be run\n");
 3200072:	83 ec 0c             	sub    esp,0xc
 3200075:	68 20 10 20 03       	push   0x3201020
 320007a:	e8 91 01 00 00       	call   3200210 <main+0x210>
 320007f:	83 c4 10             	add    esp,0x10
/home/yogi/src/os/time/testtime.c:34
        retVal=-1;
 3200082:	c7 45 f4 ff ff ff ff 	mov    DWORD PTR [ebp-0xc],0xffffffff
/home/yogi/src/os/time/testtime.c:36
    }
    char* execpgm=malloc(512);
 3200089:	83 ec 0c             	sub    esp,0xc
 320008c:	68 00 02 00 00       	push   0x200
 3200091:	e8 8a 01 00 00       	call   3200220 <main+0x220>
 3200096:	83 c4 10             	add    esp,0x10
 3200099:	89 45 e8             	mov    DWORD PTR [ebp-0x18],eax
/home/yogi/src/os/time/testtime.c:37
    strcpy(execpgm,argv[1]);
 320009c:	8b 43 04             	mov    eax,DWORD PTR [ebx+0x4]
 320009f:	83 c0 04             	add    eax,0x4
 32000a2:	8b 00                	mov    eax,DWORD PTR [eax]
 32000a4:	83 ec 08             	sub    esp,0x8
 32000a7:	50                   	push   eax
 32000a8:	ff 75 e8             	push   DWORD PTR [ebp-0x18]
 32000ab:	e8 40 01 00 00       	call   32001f0 <main+0x1f0>
 32000b0:	83 c4 10             	add    esp,0x10
/home/yogi/src/os/time/testtime.c:38
    startTime=time();
 32000b3:	e8 98 01 00 00       	call   3200250 <main+0x250>
 32000b8:	89 45 e4             	mov    DWORD PTR [ebp-0x1c],eax
/home/yogi/src/os/time/testtime.c:39
    pid=exec(execpgm,0,NULL);
 32000bb:	83 ec 04             	sub    esp,0x4
 32000be:	6a 00                	push   0x0
 32000c0:	6a 00                	push   0x0
 32000c2:	ff 75 e8             	push   DWORD PTR [ebp-0x18]
 32000c5:	e8 76 01 00 00       	call   3200240 <main+0x240>
 32000ca:	83 c4 10             	add    esp,0x10
 32000cd:	89 45 ec             	mov    DWORD PTR [ebp-0x14],eax
/home/yogi/src/os/time/testtime.c:40
    if (pid==0)
 32000d0:	83 7d ec 00          	cmp    DWORD PTR [ebp-0x14],0x0
 32000d4:	75 25                	jne    32000fb <main+0xfb>
/home/yogi/src/os/time/testtime.c:42
    {
        print("Error executing %s\n",argv[1]);
 32000d6:	8b 43 04             	mov    eax,DWORD PTR [ebx+0x4]
 32000d9:	83 c0 04             	add    eax,0x4
 32000dc:	8b 00                	mov    eax,DWORD PTR [eax]
 32000de:	83 ec 08             	sub    esp,0x8
 32000e1:	50                   	push   eax
 32000e2:	68 6c 10 20 03       	push   0x320106c
 32000e7:	e8 24 01 00 00       	call   3200210 <main+0x210>
 32000ec:	83 c4 10             	add    esp,0x10
/home/yogi/src/os/time/testtime.c:43
        retVal=-2;
 32000ef:	c7 45 f4 fe ff ff ff 	mov    DWORD PTR [ebp-0xc],0xfffffffe
 32000f6:	e9 c0 00 00 00       	jmp    32001bb <main+0x1bb>
/home/yogi/src/os/time/testtime.c:47
    }
    else
    {
        waitpid(pid);
 32000fb:	8b 45 ec             	mov    eax,DWORD PTR [ebp-0x14]
 32000fe:	83 ec 0c             	sub    esp,0xc
 3200101:	50                   	push   eax
 3200102:	e8 f9 00 00 00       	call   3200200 <main+0x200>
 3200107:	83 c4 10             	add    esp,0x10
/home/yogi/src/os/time/testtime.c:48
        endTime=time();
 320010a:	e8 41 01 00 00       	call   3200250 <main+0x250>
 320010f:	89 45 e0             	mov    DWORD PTR [ebp-0x20],eax
/home/yogi/src/os/time/testtime.c:49
        elapsed=(endTime-startTime);
 3200112:	8b 45 e0             	mov    eax,DWORD PTR [ebp-0x20]
 3200115:	2b 45 e4             	sub    eax,DWORD PTR [ebp-0x1c]
 3200118:	89 45 d4             	mov    DWORD PTR [ebp-0x2c],eax
/home/yogi/src/os/time/testtime.c:50
        totalTime=malloc(sizeof(totalTime));    
 320011b:	83 ec 0c             	sub    esp,0xc
 320011e:	6a 04                	push   0x4
 3200120:	e8 fb 00 00 00       	call   3200220 <main+0x220>
 3200125:	83 c4 10             	add    esp,0x10
 3200128:	89 45 dc             	mov    DWORD PTR [ebp-0x24],eax
/home/yogi/src/os/time/testtime.c:51
        print("Elapsed ticks = %u\n",elapsed);
 320012b:	8b 45 d4             	mov    eax,DWORD PTR [ebp-0x2c]
 320012e:	83 ec 08             	sub    esp,0x8
 3200131:	50                   	push   eax
 3200132:	68 80 10 20 03       	push   0x3201080
 3200137:	e8 d4 00 00 00       	call   3200210 <main+0x210>
 320013c:	83 c4 10             	add    esp,0x10
/home/yogi/src/os/time/testtime.c:52
        int ms=elapsed%TICKS_PER_SECOND;
 320013f:	8b 4d d4             	mov    ecx,DWORD PTR [ebp-0x2c]
 3200142:	ba 1f 85 eb 51       	mov    edx,0x51eb851f
 3200147:	89 c8                	mov    eax,ecx
 3200149:	f7 ea                	imul   edx
 320014b:	c1 fa 05             	sar    edx,0x5
 320014e:	89 c8                	mov    eax,ecx
 3200150:	c1 f8 1f             	sar    eax,0x1f
 3200153:	29 c2                	sub    edx,eax
 3200155:	89 d0                	mov    eax,edx
 3200157:	89 45 d8             	mov    DWORD PTR [ebp-0x28],eax
 320015a:	8b 45 d8             	mov    eax,DWORD PTR [ebp-0x28]
 320015d:	6b c0 64             	imul   eax,eax,0x64
 3200160:	29 c1                	sub    ecx,eax
 3200162:	89 c8                	mov    eax,ecx
 3200164:	89 45 d8             	mov    DWORD PTR [ebp-0x28],eax
/home/yogi/src/os/time/testtime.c:53
        elapsed/= TICKS_PER_SECOND;
 3200167:	8b 4d d4             	mov    ecx,DWORD PTR [ebp-0x2c]
 320016a:	ba 1f 85 eb 51       	mov    edx,0x51eb851f
 320016f:	89 c8                	mov    eax,ecx
 3200171:	f7 ea                	imul   edx
 3200173:	c1 fa 05             	sar    edx,0x5
 3200176:	89 c8                	mov    eax,ecx
 3200178:	c1 f8 1f             	sar    eax,0x1f
 320017b:	29 c2                	sub    edx,eax
 320017d:	89 d0                	mov    eax,edx
 320017f:	89 45 d4             	mov    DWORD PTR [ebp-0x2c],eax
/home/yogi/src/os/time/testtime.c:54
        gmtime_r(&elapsed,totalTime);
 3200182:	83 ec 08             	sub    esp,0x8
 3200185:	ff 75 dc             	push   DWORD PTR [ebp-0x24]
 3200188:	8d 45 d4             	lea    eax,[ebp-0x2c]
 320018b:	50                   	push   eax
 320018c:	e8 9f 00 00 00       	call   3200230 <main+0x230>
 3200191:	83 c4 10             	add    esp,0x10
/home/yogi/src/os/time/testtime.c:55
        print("Elapsed time = %02u:%02u:%02u.%03u\n",totalTime->tm_hour,totalTime->tm_min,totalTime->tm_sec,ms);
 3200194:	8b 45 dc             	mov    eax,DWORD PTR [ebp-0x24]
 3200197:	8b 08                	mov    ecx,DWORD PTR [eax]
 3200199:	8b 45 dc             	mov    eax,DWORD PTR [ebp-0x24]
 320019c:	8b 50 04             	mov    edx,DWORD PTR [eax+0x4]
 320019f:	8b 45 dc             	mov    eax,DWORD PTR [ebp-0x24]
 32001a2:	8b 40 08             	mov    eax,DWORD PTR [eax+0x8]
 32001a5:	83 ec 0c             	sub    esp,0xc
 32001a8:	ff 75 d8             	push   DWORD PTR [ebp-0x28]
 32001ab:	51                   	push   ecx
 32001ac:	52                   	push   edx
 32001ad:	50                   	push   eax
 32001ae:	68 94 10 20 03       	push   0x3201094
 32001b3:	e8 58 00 00 00       	call   3200210 <main+0x210>
 32001b8:	83 c4 20             	add    esp,0x20
/home/yogi/src/os/time/testtime.c:57
    }
    free(execpgm);
 32001bb:	83 ec 0c             	sub    esp,0xc
 32001be:	ff 75 e8             	push   DWORD PTR [ebp-0x18]
 32001c1:	e8 9a 00 00 00       	call   3200260 <main+0x260>
 32001c6:	83 c4 10             	add    esp,0x10
/home/yogi/src/os/time/testtime.c:59
//    free (execpgm);
    return (retVal);
 32001c9:	8b 45 f4             	mov    eax,DWORD PTR [ebp-0xc]
/home/yogi/src/os/time/testtime.c:60
}
 32001cc:	8d 65 f8             	lea    esp,[ebp-0x8]
 32001cf:	59                   	pop    ecx
 32001d0:	5b                   	pop    ebx
 32001d1:	5d                   	pop    ebp
 32001d2:	8d 61 fc             	lea    esp,[ecx-0x4]
 32001d5:	c3                   	ret    

Disassembly of section .plt:

032001e0 <.plt>:
 32001e0:	ff 35 04 03 20 03    	push   DWORD PTR ds:0x3200304
 32001e6:	ff 25 08 03 20 03    	jmp    DWORD PTR ds:0x3200308
 32001ec:	00 00                	add    BYTE PTR [eax],al
 32001ee:	00 00                	add    BYTE PTR [eax],al
 32001f0:	ff 25 0c 03 20 03    	jmp    DWORD PTR ds:0x320030c
 32001f6:	68 00 00 00 00       	push   0x0
 32001fb:	e9 e0 ff ff ff       	jmp    32001e0 <main+0x1e0>
 3200200:	ff 25 10 03 20 03    	jmp    DWORD PTR ds:0x3200310
 3200206:	68 08 00 00 00       	push   0x8
 320020b:	e9 d0 ff ff ff       	jmp    32001e0 <main+0x1e0>
 3200210:	ff 25 14 03 20 03    	jmp    DWORD PTR ds:0x3200314
 3200216:	68 10 00 00 00       	push   0x10
 320021b:	e9 c0 ff ff ff       	jmp    32001e0 <main+0x1e0>
 3200220:	ff 25 18 03 20 03    	jmp    DWORD PTR ds:0x3200318
 3200226:	68 18 00 00 00       	push   0x18
 320022b:	e9 b0 ff ff ff       	jmp    32001e0 <main+0x1e0>
 3200230:	ff 25 1c 03 20 03    	jmp    DWORD PTR ds:0x320031c
 3200236:	68 20 00 00 00       	push   0x20
 320023b:	e9 a0 ff ff ff       	jmp    32001e0 <main+0x1e0>
 3200240:	ff 25 20 03 20 03    	jmp    DWORD PTR ds:0x3200320
 3200246:	68 28 00 00 00       	push   0x28
 320024b:	e9 90 ff ff ff       	jmp    32001e0 <main+0x1e0>
 3200250:	ff 25 24 03 20 03    	jmp    DWORD PTR ds:0x3200324
 3200256:	68 30 00 00 00       	push   0x30
 320025b:	e9 80 ff ff ff       	jmp    32001e0 <main+0x1e0>
 3200260:	ff 25 28 03 20 03    	jmp    DWORD PTR ds:0x3200328
 3200266:	68 38 00 00 00       	push   0x38
 320026b:	e9 70 ff ff ff       	jmp    32001e0 <main+0x1e0>
