
Debug/cross-Linux/chrisos:     file format elf32-i386


Disassembly of section .text:

00001000 <tos>:
tos():
/home/yogi/src/os/chrisOS/asm/boot.s:15
.att_syntax noprefix
.code16
.globl tos
.type tos, @function
tos:
    ljmp $0,$tos3
    1000:	ea 05 10 00 00 e9 d2 	jmp    0xd2e9:0x1005

00001005 <tos3>:
tos3():
/home/yogi/src/os/chrisOS/asm/boot.s:18
tos3:
.code32
        jmp	initAP	# initialize awakened AP
    1005:	e9 d2 06 00 00       	jmp    16dc <initAP>
    100a:	66 90                	xchg   ax,ax
    100c:	02 b0 ad 1b 03 00    	add    dh,BYTE PTR [eax+0x31bad]
    1012:	00 00                	add    BYTE PTR [eax],al
    1014:	fb                   	sti    
    1015:	4f                   	dec    edi
    1016:	52                   	push   edx
    1017:	e4 e8                	in     al,0xe8

00001018 <_start>:
_start():
/home/yogi/src/os/chrisOS/asm/boot.s:84
        //mov %esp, stack_top

	# We are now ready to actually execute C code. We cannot embed that in an
	# assembly file, so we'll create a kernel.c file in a moment. In that file,
	# we'll create a C entry point called kernel_main and call it here.
	call kernel_main
    1018:	e8 f3 3a 02 00       	call   24b10 <kernel_main>
/home/yogi/src/os/chrisOS/asm/boot.s:92
	# infinite loop. To do that, we use the clear interrupt ('cli') instruction
	# to disable interrupts, the halt instruction ('hlt') to stop the CPU until
	# the next interrupt arrives, and jumping to the halt instruction if it ever
	# continues execution, just to be safe. We will create a local label rather
	# than real symbol and jump to there endlessly.
	cli
    101d:	fa                   	cli    
/home/yogi/src/os/chrisOS/asm/boot.s:93
	hlt
    101e:	f4                   	hlt    
/home/yogi/src/os/chrisOS/asm/boot.s:95
.Lhang:
	jmp .Lhang
    101f:	eb fe                	jmp    101f <_start+0x7>
    1021:	66 90                	xchg   ax,ax
    1023:	66 90                	xchg   ax,ax
    1025:	66 90                	xchg   ax,ax
    1027:	90                   	nop

00001028 <isE820Available>:
isE820Available():
/home/yogi/src/os/chrisOS/asm/bootCPU.s:11

.globl isE820Available
.type isE820Available, @function
isE820Available:
.code32
mov eax,0x10
    1028:	b8 10 00 00 00       	mov    eax,0x10
/home/yogi/src/os/chrisOS/asm/bootCPU.s:12
mov ds,eax
    102d:	8e d8                	mov    ds,eax
/home/yogi/src/os/chrisOS/asm/bootCPU.s:13
mov saveESP, esp
    102f:	89 25 c1 12 00 00    	mov    DWORD PTR ds:0x12c1,esp
/home/yogi/src/os/chrisOS/asm/bootCPU.s:14
mov sp, 0xfffc
    1035:	66 bc fc ff          	mov    sp,0xfffc
/home/yogi/src/os/chrisOS/asm/bootCPU.s:15
call leaveProtMode
    1039:	e8 67 00 00 00       	call   10a5 <leaveProtMode>
/home/yogi/src/os/chrisOS/asm/bootCPU.s:17
.code16
mov ax, 0x8000
    103e:	b8 00 80 8e d0       	mov    eax,0xd08e8000
/home/yogi/src/os/chrisOS/asm/bootCPU.s:19
mov ss, ax
pusha
    1043:	60                   	pusha  
/home/yogi/src/os/chrisOS/asm/bootCPU.s:20
mov eax,0x0000E820
    1044:	66 b8 20 e8          	mov    ax,0xe820
    1048:	00 00                	add    BYTE PTR [eax],al
/home/yogi/src/os/chrisOS/asm/bootCPU.s:21
mov edx, 0x534D4150
    104a:	66 ba 50 41          	mov    dx,0x4150
    104e:	4d                   	dec    ebp
    104f:	53                   	push   ebx
/home/yogi/src/os/chrisOS/asm/bootCPU.s:22
mov ebx, 0
    1050:	66 bb 00 00          	mov    bx,0x0
    1054:	00 00                	add    BYTE PTR [eax],al
/home/yogi/src/os/chrisOS/asm/bootCPU.s:23
mov ecx, 100
    1056:	66 b9 64 00          	mov    cx,0x64
    105a:	00 00                	add    BYTE PTR [eax],al
/home/yogi/src/os/chrisOS/asm/bootCPU.s:24
lea di, e820data
    105c:	8d 3e                	lea    edi,[esi]
    105e:	dd 12                	fst    QWORD PTR [edx]
/home/yogi/src/os/chrisOS/asm/bootCPU.s:25
int 0x15
    1060:	cd 15                	int    0x15
/home/yogi/src/os/chrisOS/asm/bootCPU.s:26
mov savedValue, eax
    1062:	66 a3 c5 12 61 e8    	mov    ds:0xe86112c5,ax
/home/yogi/src/os/chrisOS/asm/bootCPU.s:29
popa
.code32
call reenterProtMode
    1068:	83 00 00             	add    DWORD PTR [eax],0x0
    106b:	00 c3                	add    bl,al

0000106d <getInt12Memory>:
getInt12Memory():
/home/yogi/src/os/chrisOS/asm/bootCPU.s:37

.globl getInt12Memory
.type getInt12Memory, @function
getInt12Memory:
.code32
mov eax,0x10
    106d:	b8 10 00 00 00       	mov    eax,0x10
/home/yogi/src/os/chrisOS/asm/bootCPU.s:38
mov ds,eax
    1072:	8e d8                	mov    ds,eax
/home/yogi/src/os/chrisOS/asm/bootCPU.s:39
mov saveESP, esp
    1074:	89 25 c1 12 00 00    	mov    DWORD PTR ds:0x12c1,esp
/home/yogi/src/os/chrisOS/asm/bootCPU.s:40
mov sp, 0xfffc
    107a:	66 bc fc ff          	mov    sp,0xfffc
/home/yogi/src/os/chrisOS/asm/bootCPU.s:41
call leaveProtMode
    107e:	e8 22 00 00 00       	call   10a5 <leaveProtMode>
/home/yogi/src/os/chrisOS/asm/bootCPU.s:43
.code16
mov ax, 0x8000
    1083:	b8 00 80 8e d0       	mov    eax,0xd08e8000
/home/yogi/src/os/chrisOS/asm/bootCPU.s:45
mov ss, ax
int 0x12
    1088:	cd 12                	int    0x12
/home/yogi/src/os/chrisOS/asm/bootCPU.s:46
movzx edx,ax
    108a:	66 0f b7 d0          	movzx  dx,ax
/home/yogi/src/os/chrisOS/asm/bootCPU.s:47
mov savedValue, edx
    108e:	66 89 16             	mov    WORD PTR [esi],dx
    1091:	c5 12                	lds    edx,FWORD PTR [edx]
/home/yogi/src/os/chrisOS/asm/bootCPU.s:48
mov ax, 0x1112    
    1093:	b8 12 11 30 db       	mov    eax,0xdb301112
/home/yogi/src/os/chrisOS/asm/bootCPU.s:50
xor bl, bl    
int 0x10 
    1098:	cd 10                	int    0x10
/home/yogi/src/os/chrisOS/asm/bootCPU.s:52
.code32
call reenterProtMode
    109a:	e8 50 00 00 00       	call   10ef <reenterProtMode>
/home/yogi/src/os/chrisOS/asm/bootCPU.s:53
ret
    109f:	c3                   	ret    
/home/yogi/src/os/chrisOS/asm/bootCPU.s:54
jmp hang
    10a0:	e9 b8 00 00 00       	jmp    115d <hang>

000010a5 <leaveProtMode>:
leaveProtMode():
/home/yogi/src/os/chrisOS/asm/bootCPU.s:60
//background, do on team, etc.
.globl leaveProtMode
.type leaveProtMode, @function
leaveProtMode:
.code32
lgdt [rmGdtp]
    10a5:	0f 01 15 78 99 12 00 	lgdtd  ds:0x129978
/home/yogi/src/os/chrisOS/asm/bootCPU.s:61
jmp 0x8:Into16BitProt
    10ac:	ea b3 10 00 00 08 00 	jmp    0x8:0x10b3

000010b3 <Into16BitProt>:
Into16BitProt():
/home/yogi/src/os/chrisOS/asm/bootCPU.s:64
Into16BitProt:
.code16
mov ax,0x10
    10b3:	b8 10 00 8e d8       	mov    eax,0xd88e0010
/home/yogi/src/os/chrisOS/asm/bootCPU.s:66
mov ds, ax
mov gs, ax
    10b8:	8e e8                	mov    gs,eax
/home/yogi/src/os/chrisOS/asm/bootCPU.s:67
mov fs, ax
    10ba:	8e e0                	mov    fs,eax
/home/yogi/src/os/chrisOS/asm/bootCPU.s:68
mov es, ax
    10bc:	8e c0                	mov    es,eax
/home/yogi/src/os/chrisOS/asm/bootCPU.s:70
.code32
mov eax, cr0
    10be:	0f 20 c0             	mov    eax,cr0
/home/yogi/src/os/chrisOS/asm/bootCPU.s:71
and al, 0xFe
    10c1:	24 fe                	and    al,0xfe
/home/yogi/src/os/chrisOS/asm/bootCPU.s:72
mov cr0, eax
    10c3:	0f 22 c0             	mov    cr0,eax
/home/yogi/src/os/chrisOS/asm/bootCPU.s:74
.code32
jmp 0:LeaveProtModeJmp
    10c6:	ea cd 10 00 00 00 00 	jmp    0x0:0x10cd

000010cd <LeaveProtModeJmp>:
LeaveProtModeJmp():
/home/yogi/src/os/chrisOS/asm/bootCPU.s:77
LeaveProtModeJmp:
.code16
mov ax, 0
    10cd:	b8 00 00 8e d8       	mov    eax,0xd88e0000
/home/yogi/src/os/chrisOS/asm/bootCPU.s:79
mov ds, ax
mov es, ax
    10d2:	8e c0                	mov    es,eax
/home/yogi/src/os/chrisOS/asm/bootCPU.s:80
mov fs, ax
    10d4:	8e e0                	mov    fs,eax
/home/yogi/src/os/chrisOS/asm/bootCPU.s:81
mov gs, ax
    10d6:	8e e8                	mov    gs,eax
/home/yogi/src/os/chrisOS/asm/bootCPU.s:82
sidt [saved_idt]
    10d8:	0f 01 0e             	sidtd  [esi]
    10db:	d7                   	xlat   BYTE PTR ds:[ebx]
    10dc:	12 0f                	adc    cl,BYTE PTR [edi]
/home/yogi/src/os/chrisOS/asm/bootCPU.s:83
lidt [idt_real]
    10de:	01 1e                	add    DWORD PTR [esi],ebx
    10e0:	cf                   	iret   
    10e1:	12 0f                	adc    cl,BYTE PTR [edi]
/home/yogi/src/os/chrisOS/asm/bootCPU.s:84
sgdt [saved_gdt16_lo]
    10e3:	01 06                	add    DWORD PTR [esi],eax
    10e5:	bb 12 b8 00 00       	mov    ebx,0xb812
/home/yogi/src/os/chrisOS/asm/bootCPU.s:87
.code16
mov ax,0
mov ss,ax
    10ea:	8e d0                	mov    ss,eax
/home/yogi/src/os/chrisOS/asm/bootCPU.s:88
mov ds, ax
    10ec:	8e d8                	mov    ds,eax
/home/yogi/src/os/chrisOS/asm/bootCPU.s:90
.code32
ret
    10ee:	c3                   	ret    

000010ef <reenterProtMode>:
reenterProtMode():
/home/yogi/src/os/chrisOS/asm/bootCPU.s:96

.globl reenterProtMode
.type reenterProtMode, @function
reenterProtMode:
.code16
lgdt [saved_gdt16_lo]
    10ef:	0f 01 16             	lgdtd  [esi]
    10f2:	bb 12 0f 01 1e       	mov    ebx,0x1e010f12
/home/yogi/src/os/chrisOS/asm/bootCPU.s:97
lidt [saved_idt]
    10f7:	d7                   	xlat   BYTE PTR ds:[ebx]
    10f8:	12 0f                	adc    cl,BYTE PTR [edi]
/home/yogi/src/os/chrisOS/asm/bootCPU.s:99
.code32
mov eax, cr0
    10fa:	20 c0                	and    al,al
/home/yogi/src/os/chrisOS/asm/bootCPU.s:100
or  al, 0x1
    10fc:	0c 01                	or     al,0x1
/home/yogi/src/os/chrisOS/asm/bootCPU.s:102
.code16
or  eax,0x10000   #clr 05/12/2016 - added wp bit
    10fe:	66 0d 00 00          	or     ax,0x0
    1102:	01 00                	add    DWORD PTR [eax],eax
/home/yogi/src/os/chrisOS/asm/bootCPU.s:104
.code32
mov cr0, eax
    1104:	0f 22 c0             	mov    cr0,eax
/home/yogi/src/os/chrisOS/asm/bootCPU.s:106
.code16
ljmp 0x18:reenterProtModeJmp
    1107:	ea 0c 11 18 00 66 b8 	jmp    0xb866:0x18110c

0000110c <reenterProtModeJmp>:
reenterProtModeJmp():
/home/yogi/src/os/chrisOS/asm/bootCPU.s:109
reenterProtModeJmp:
.code32
mov ax,0x10
    110c:	66 b8 10 00          	mov    ax,0x10
/home/yogi/src/os/chrisOS/asm/bootCPU.s:110
mov ds,ax
    1110:	8e d8                	mov    ds,eax
/home/yogi/src/os/chrisOS/asm/bootCPU.s:111
mov es,ax
    1112:	8e c0                	mov    es,eax
/home/yogi/src/os/chrisOS/asm/bootCPU.s:112
mov gs,ax
    1114:	8e e8                	mov    gs,eax
/home/yogi/src/os/chrisOS/asm/bootCPU.s:113
lgdt [kernelGDT]
    1116:	0f 01 15 88 99 12 00 	lgdtd  ds:0x129988
/home/yogi/src/os/chrisOS/asm/bootCPU.s:114
ljmp 0x8:reenterProtMode32Jmp
    111d:	ea 24 11 00 00 08 00 	jmp    0x8:0x1124

00001124 <reenterProtMode32Jmp>:
reenterProtMode32Jmp():
/home/yogi/src/os/chrisOS/asm/bootCPU.s:117
reenterProtMode32Jmp:
.code16
mov ax,0x10
    1124:	b8 10 00 8e d8       	mov    eax,0xd88e0010
/home/yogi/src/os/chrisOS/asm/bootCPU.s:119
mov ds,ax
mov ss,ax
    1129:	8e d0                	mov    ss,eax
/home/yogi/src/os/chrisOS/asm/bootCPU.s:120
mov es,ax
    112b:	8e c0                	mov    es,eax
/home/yogi/src/os/chrisOS/asm/bootCPU.s:121
mov fs,ax
    112d:	8e e0                	mov    fs,eax
/home/yogi/src/os/chrisOS/asm/bootCPU.s:122
mov gs,ax
    112f:	8e e8                	mov    gs,eax
/home/yogi/src/os/chrisOS/asm/bootCPU.s:124
.code32
mov eax,savedValue
    1131:	a1 c5 12 00 00       	mov    eax,ds:0x12c5
/home/yogi/src/os/chrisOS/asm/bootCPU.s:125
mov esp,saveESP
    1136:	8b 25 c1 12 00 00    	mov    esp,DWORD PTR ds:0x12c1
/home/yogi/src/os/chrisOS/asm/bootCPU.s:126
ret
    113c:	c3                   	ret    

0000113d <set_gdt>:
set_gdt():
/home/yogi/src/os/chrisOS/asm/bootCPU.s:132

.globl set_gdt
.type set_gdt, @function
set_gdt:
.code32
push eax
    113d:	50                   	push   eax
/home/yogi/src/os/chrisOS/asm/bootCPU.s:133
    mov eax,[esp+8]
    113e:	8b 44 24 08          	mov    eax,DWORD PTR [esp+0x8]
/home/yogi/src/os/chrisOS/asm/bootCPU.s:134
    lgdt [eax]
    1142:	0f 01 10             	lgdtd  [eax]
/home/yogi/src/os/chrisOS/asm/bootCPU.s:135
    jmp 0x08:.reload_CS
    1145:	ea 4c 11 00 00 08 00 	jmp    0x8:0x114c

0000114c <.reload_CS>:
.reload_CS():
/home/yogi/src/os/chrisOS/asm/bootCPU.s:137
.reload_CS:
    mov eax, 0x10
    114c:	b8 10 00 00 00       	mov    eax,0x10
/home/yogi/src/os/chrisOS/asm/bootCPU.s:138
    mov ds, ax
    1151:	8e d8                	mov    ds,eax
/home/yogi/src/os/chrisOS/asm/bootCPU.s:139
    mov es, ax
    1153:	8e c0                	mov    es,eax
/home/yogi/src/os/chrisOS/asm/bootCPU.s:140
    mov fs, ax
    1155:	8e e0                	mov    fs,eax
/home/yogi/src/os/chrisOS/asm/bootCPU.s:141
    mov gs, ax
    1157:	8e e8                	mov    gs,eax
/home/yogi/src/os/chrisOS/asm/bootCPU.s:142
    mov ss, ax
    1159:	8e d0                	mov    ss,eax
/home/yogi/src/os/chrisOS/asm/bootCPU.s:143
    pop eax
    115b:	58                   	pop    eax
/home/yogi/src/os/chrisOS/asm/bootCPU.s:144
    ret
    115c:	c3                   	ret    

0000115d <hang>:
hang():
/home/yogi/src/os/chrisOS/asm/bootCPU.s:146
hang:
    hlt
    115d:	f4                   	hlt    
/home/yogi/src/os/chrisOS/asm/bootCPU.s:147
    jmp hang
    115e:	eb fd                	jmp    115d <hang>

00001160 <idt_load>:
idt_load():
/home/yogi/src/os/chrisOS/asm/bootCPU.s:154
// Loads the IDT defined in '_idtp' into the processor.
// This is declared in C as 'extern void idt_load();'
.globl idt_load
.type idt_load, @function
idt_load:
    push ebp
    1160:	55                   	push   ebp
/home/yogi/src/os/chrisOS/asm/bootCPU.s:155
    mov ebp, esp
    1161:	89 e5                	mov    ebp,esp
/home/yogi/src/os/chrisOS/asm/bootCPU.s:156
    push eax
    1163:	50                   	push   eax
/home/yogi/src/os/chrisOS/asm/bootCPU.s:157
    push ebx
    1164:	53                   	push   ebx
/home/yogi/src/os/chrisOS/asm/bootCPU.s:158
    cli
    1165:	fa                   	cli    
/home/yogi/src/os/chrisOS/asm/bootCPU.s:159
    mov eax,[ebp+12]    #size + bottom of offset
    1166:	8b 45 0c             	mov    eax,DWORD PTR [ebp+0xc]
/home/yogi/src/os/chrisOS/asm/bootCPU.s:160
    mov ebx,[ebp+8]     #top of offset
    1169:	8b 5d 08             	mov    ebx,DWORD PTR [ebp+0x8]
/home/yogi/src/os/chrisOS/asm/bootCPU.s:161
    ror eax,16          #mov the size out of the way
    116c:	c1 c8 10             	ror    eax,0x10
/home/yogi/src/os/chrisOS/asm/bootCPU.s:162
    mov ax,bx           #move the top of the address
    116f:	66 89 d8             	mov    ax,bx
/home/yogi/src/os/chrisOS/asm/bootCPU.s:163
    ror eax,16
    1172:	c1 c8 10             	ror    eax,0x10
/home/yogi/src/os/chrisOS/asm/bootCPU.s:164
    shr ebx,16
    1175:	c1 eb 10             	shr    ebx,0x10
/home/yogi/src/os/chrisOS/asm/bootCPU.s:165
    mov idtPtrToLoad,eax
    1178:	a3 4e 15 00 00       	mov    ds:0x154e,eax
/home/yogi/src/os/chrisOS/asm/bootCPU.s:166
    mov idtPtrToLoad+4,ebx
    117d:	89 1d 52 15 00 00    	mov    DWORD PTR ds:0x1552,ebx
/home/yogi/src/os/chrisOS/asm/bootCPU.s:169
    //we always put our IDT in idtPtrToLoad before calling idt_load
//    mov eax, word ptr idtPtrToLoad
    lidt [idtPtrToLoad]
    1183:	0f 01 1d 4e 15 00 00 	lidtd  ds:0x154e
/home/yogi/src/os/chrisOS/asm/bootCPU.s:170
    pop ebx
    118a:	5b                   	pop    ebx
/home/yogi/src/os/chrisOS/asm/bootCPU.s:171
    pop eax
    118b:	58                   	pop    eax
/home/yogi/src/os/chrisOS/asm/bootCPU.s:172
    pop ebp
    118c:	5d                   	pop    ebp
/home/yogi/src/os/chrisOS/asm/bootCPU.s:173
    ret
    118d:	c3                   	ret    

0000118e <init_PIT>:
init_PIT():
/home/yogi/src/os/chrisOS/asm/bootCPU.s:179
 #Input
 # ebx   Desired PIT frequency in Hz
 .globl init_PIT
.type init_PIT, @function
init_PIT:
    push ebp
    118e:	55                   	push   ebp
/home/yogi/src/os/chrisOS/asm/bootCPU.s:180
    mov ebp, esp
    118f:	89 e5                	mov    ebp,esp
/home/yogi/src/os/chrisOS/asm/bootCPU.s:182
    # Do some checking
    mov ebx,[ebp+8]
    1191:	8b 5d 08             	mov    ebx,DWORD PTR [ebp+0x8]
/home/yogi/src/os/chrisOS/asm/bootCPU.s:183
    pushad
    1194:	60                   	pusha  
/home/yogi/src/os/chrisOS/asm/bootCPU.s:184
    mov eax,0x10000                   #eax = reload value for slowest possible frequency (65536)
    1195:	b8 00 00 01 00       	mov    eax,0x10000
/home/yogi/src/os/chrisOS/asm/bootCPU.s:185
    cmp ebx,18                        #Is the requested frequency too low?
    119a:	83 fb 12             	cmp    ebx,0x12
/home/yogi/src/os/chrisOS/asm/bootCPU.s:186
    jbe .gotReloadValue               # yes, use slowest possible frequency
    119d:	76 34                	jbe    11d3 <.gotReloadValue>
/home/yogi/src/os/chrisOS/asm/bootCPU.s:188
 
    mov eax,1                         #ax = reload value for fastest possible frequency (1)
    119f:	b8 01 00 00 00       	mov    eax,0x1
/home/yogi/src/os/chrisOS/asm/bootCPU.s:189
    cmp ebx,1193181                   #Is the requested frequency too high?
    11a4:	81 fb dd 34 12 00    	cmp    ebx,0x1234dd
/home/yogi/src/os/chrisOS/asm/bootCPU.s:190
    jae .gotReloadValue               # yes, use fastest possible frequency
    11aa:	73 27                	jae    11d3 <.gotReloadValue>
/home/yogi/src/os/chrisOS/asm/bootCPU.s:194
 
    # Calculate the reload value
 
    mov eax,3579545
    11ac:	b8 99 9e 36 00       	mov    eax,0x369e99
/home/yogi/src/os/chrisOS/asm/bootCPU.s:195
    mov edx,0                         #edx:eax = 3579545
    11b1:	ba 00 00 00 00       	mov    edx,0x0
/home/yogi/src/os/chrisOS/asm/bootCPU.s:196
    div ebx                           #eax = 3579545 / frequency, edx = remainder
    11b6:	f7 f3                	div    ebx
/home/yogi/src/os/chrisOS/asm/bootCPU.s:197
    cmp edx,3579545 / 2               #Is the remainder more than half?
    11b8:	81 fa 4c 4f 1b 00    	cmp    edx,0x1b4f4c
/home/yogi/src/os/chrisOS/asm/bootCPU.s:198
    jb .l1                            # no, round down
    11be:	72 01                	jb     11c1 <.l1>
/home/yogi/src/os/chrisOS/asm/bootCPU.s:199
    inc eax                           # yes, round up
    11c0:	40                   	inc    eax

000011c1 <.l1>:
.l1():
/home/yogi/src/os/chrisOS/asm/bootCPU.s:201
 .l1:
    mov ebx,3
    11c1:	bb 03 00 00 00       	mov    ebx,0x3
/home/yogi/src/os/chrisOS/asm/bootCPU.s:202
    mov edx,0                         #edx:eax = 3579545 * 256 / frequency
    11c6:	ba 00 00 00 00       	mov    edx,0x0
/home/yogi/src/os/chrisOS/asm/bootCPU.s:203
    div ebx                           #eax = (3579545 * 256 / 3 * 256) / frequency
    11cb:	f7 f3                	div    ebx
/home/yogi/src/os/chrisOS/asm/bootCPU.s:204
    cmp edx,3 / 2                     #Is the remainder more than half?
    11cd:	83 fa 01             	cmp    edx,0x1
/home/yogi/src/os/chrisOS/asm/bootCPU.s:205
    jb .l2                            # no, round down
    11d0:	72 01                	jb     11d3 <.gotReloadValue>
/home/yogi/src/os/chrisOS/asm/bootCPU.s:206
    inc eax                           # yes, round up
    11d2:	40                   	inc    eax

000011d3 <.gotReloadValue>:
.gotReloadValue():
/home/yogi/src/os/chrisOS/asm/bootCPU.s:213
 
 
 # Store the reload value and calculate the actual frequency
 
 .gotReloadValue:
    push eax                          #Store reload_value for later
    11d3:	50                   	push   eax
/home/yogi/src/os/chrisOS/asm/bootCPU.s:214
    mov [PIT_reload_value],ax         #Store the reload value for later
    11d4:	66 a3 1f 13 00 00    	mov    ds:0x131f,ax
/home/yogi/src/os/chrisOS/asm/bootCPU.s:215
    mov ebx,eax                       #ebx = reload value
    11da:	89 c3                	mov    ebx,eax
/home/yogi/src/os/chrisOS/asm/bootCPU.s:217
 
    mov eax,3579545
    11dc:	b8 99 9e 36 00       	mov    eax,0x369e99
/home/yogi/src/os/chrisOS/asm/bootCPU.s:218
    mov edx,0                         #edx:eax = 3579545
    11e1:	ba 00 00 00 00       	mov    edx,0x0
/home/yogi/src/os/chrisOS/asm/bootCPU.s:219
    div ebx                           #eax = 3579545 / reload_value, edx = remainder
    11e6:	f7 f3                	div    ebx
/home/yogi/src/os/chrisOS/asm/bootCPU.s:220
    cmp edx,3579545 / 2               #Is the remainder more than half?
    11e8:	81 fa 4c 4f 1b 00    	cmp    edx,0x1b4f4c
/home/yogi/src/os/chrisOS/asm/bootCPU.s:221
    jb .l3                            # no, round down
    11ee:	72 01                	jb     11f1 <.l3>
/home/yogi/src/os/chrisOS/asm/bootCPU.s:222
    inc eax                           # yes, round up
    11f0:	40                   	inc    eax

000011f1 <.l3>:
.l3():
/home/yogi/src/os/chrisOS/asm/bootCPU.s:224
 .l3:
    mov ebx,3
    11f1:	bb 03 00 00 00       	mov    ebx,0x3
/home/yogi/src/os/chrisOS/asm/bootCPU.s:225
    mov edx,0                         #edx:eax = 3579545 / reload_value
    11f6:	ba 00 00 00 00       	mov    edx,0x0
/home/yogi/src/os/chrisOS/asm/bootCPU.s:226
    div ebx                           #eax = (3579545 / 3) / frequency
    11fb:	f7 f3                	div    ebx
/home/yogi/src/os/chrisOS/asm/bootCPU.s:227
    cmp edx,3 / 2                     #Is the remainder more than half?
    11fd:	83 fa 01             	cmp    edx,0x1
/home/yogi/src/os/chrisOS/asm/bootCPU.s:228
    jb .l4                            # no, round down
    1200:	72 01                	jb     1203 <.l4>
/home/yogi/src/os/chrisOS/asm/bootCPU.s:229
    inc eax                           # yes, round up
    1202:	40                   	inc    eax

00001203 <.l4>:
.l4():
/home/yogi/src/os/chrisOS/asm/bootCPU.s:231
 .l4:
    mov [IRQ0_frequency],eax          #Store the actual frequency for displaying later
    1203:	a3 17 13 00 00       	mov    ds:0x1317,eax
/home/yogi/src/os/chrisOS/asm/bootCPU.s:245
 #           time in ms = reload_value * 3000 / 3579545 * (2^42)/(2^42)
 #           time in ms = reload_value * 3000 * (2^42) / 3579545 / (2^42)
 #           time in ms * 2^32 = reload_value * 3000 * (2^42) / 3579545 / (2^42) * (2^32)
 #           time in ms * 2^32 = reload_value * 3000 * (2^42) / 3579545 / (2^10)
 
    pop ebx                           #ebx = reload_value
    1208:	5b                   	pop    ebx
/home/yogi/src/os/chrisOS/asm/bootCPU.s:246
    mov eax,0xDBB3A062                #eax = 3000 * (2^42) / 3579545
    1209:	b8 62 a0 b3 db       	mov    eax,0xdbb3a062
/home/yogi/src/os/chrisOS/asm/bootCPU.s:247
    mul ebx                           #edx:eax = reload_value * 3000 * (2^42) / 3579545
    120e:	f7 e3                	mul    ebx
/home/yogi/src/os/chrisOS/asm/bootCPU.s:248
    shrd eax,edx,10
    1210:	0f ac d0 0a          	shrd   eax,edx,0xa
/home/yogi/src/os/chrisOS/asm/bootCPU.s:249
    shr edx,10                        #edx:eax = reload_value * 3000 * (2^42) / 3579545 / (2^10)
    1214:	c1 ea 0a             	shr    edx,0xa
/home/yogi/src/os/chrisOS/asm/bootCPU.s:251
 
    mov [IRQ0_ms],edx                 #Set whole ms between IRQs
    1217:	89 15 0f 13 00 00    	mov    DWORD PTR ds:0x130f,edx
/home/yogi/src/os/chrisOS/asm/bootCPU.s:252
    mov [IRQ0_fractions],eax          #Set fractions of 1 ms between IRQs
    121d:	a3 07 13 00 00       	mov    ds:0x1307,eax
/home/yogi/src/os/chrisOS/asm/bootCPU.s:257
 
 
 # Program the PIT channel
 
    pushfd
    1222:	9c                   	pushf  
/home/yogi/src/os/chrisOS/asm/bootCPU.s:258
    cli                               #Disabled interrupts (just in case)
    1223:	fa                   	cli    
/home/yogi/src/os/chrisOS/asm/bootCPU.s:260
 
    mov al,0b00110100                  #channel 0, lobyte/hibyte, rate generator
    1224:	b0 34                	mov    al,0x34
/home/yogi/src/os/chrisOS/asm/bootCPU.s:261
    out 0x43, al
    1226:	e6 43                	out    0x43,al
/home/yogi/src/os/chrisOS/asm/bootCPU.s:263
 
    mov ax,[PIT_reload_value]         #ax = 16 bit reload value
    1228:	66 a1 1f 13 00 00    	mov    ax,ds:0x131f
/home/yogi/src/os/chrisOS/asm/bootCPU.s:264
    out 0x40,al                       #Set low byte of PIT reload value
    122e:	e6 40                	out    0x40,al
/home/yogi/src/os/chrisOS/asm/bootCPU.s:265
    mov al,ah                         #ax = high 8 bits of reload value
    1230:	88 e0                	mov    al,ah
/home/yogi/src/os/chrisOS/asm/bootCPU.s:266
    out 0x40,al                       #Set high byte of PIT reload value
    1232:	e6 40                	out    0x40,al
/home/yogi/src/os/chrisOS/asm/bootCPU.s:268
 
    popfd
    1234:	9d                   	popf   
/home/yogi/src/os/chrisOS/asm/bootCPU.s:270
 
    popad
    1235:	61                   	popa   
/home/yogi/src/os/chrisOS/asm/bootCPU.s:271
    pop ebp
    1236:	5d                   	pop    ebp
/home/yogi/src/os/chrisOS/asm/bootCPU.s:272
    ret
    1237:	c3                   	ret    

00001238 <getE820Memory_asm>:
getE820Memory_asm():
/home/yogi/src/os/chrisOS/asm/bootCPU.s:278

 .globl getE820Memory_asm
.type getE820Memory_asm, @function
getE820Memory_asm:
.code32
mov eax,0x10
    1238:	b8 10 00 00 00       	mov    eax,0x10
/home/yogi/src/os/chrisOS/asm/bootCPU.s:279
mov ds,eax
    123d:	8e d8                	mov    ds,eax
/home/yogi/src/os/chrisOS/asm/bootCPU.s:280
mov saveESP, esp
    123f:	89 25 c1 12 00 00    	mov    DWORD PTR ds:0x12c1,esp
/home/yogi/src/os/chrisOS/asm/bootCPU.s:281
mov sp, 0xfff7
    1245:	66 bc f7 ff          	mov    sp,0xfff7
/home/yogi/src/os/chrisOS/asm/bootCPU.s:282
call leaveProtMode
    1249:	e8 57 fe ff ff       	call   10a5 <leaveProtMode>
/home/yogi/src/os/chrisOS/asm/bootCPU.s:283
pusha
    124e:	60                   	pusha  
/home/yogi/src/os/chrisOS/asm/bootCPU.s:285
.code16
lea eax, word ptr lowSmapTbl
    124f:	66 8d 06             	lea    ax,[esi]
    1252:	6e                   	outs   dx,BYTE PTR ds:[esi]
    1253:	13 0f                	adc    ecx,DWORD PTR [edi]
/home/yogi/src/os/chrisOS/asm/bootCPU.s:287
.code32
movzx eax,ax
    1255:	b7 c0                	mov    bh,0xc0
/home/yogi/src/os/chrisOS/asm/bootCPU.s:288
mov lowSmapTablePtr,eax
    1257:	a3 66 13 00 00       	mov    ds:0x1366,eax
/home/yogi/src/os/chrisOS/asm/bootCPU.s:289
mov ax, 0
    125c:	66 b8 00 00          	mov    ax,0x0
/home/yogi/src/os/chrisOS/asm/bootCPU.s:290
mov es, ax
    1260:	8e c0                	mov    es,eax
/home/yogi/src/os/chrisOS/asm/bootCPU.s:291
mov ebx, 0
    1262:	bb 00 00 00 00       	mov    ebx,0x0
/home/yogi/src/os/chrisOS/asm/bootCPU.s:293
.code16
lea edi, word ptr [lowSmapTbl]
    1267:	66 8d 3e             	lea    di,[esi]
    126a:	6e                   	outs   dx,BYTE PTR ds:[esi]
    126b:	13 66 b8             	adc    esp,DWORD PTR [esi-0x48]

0000126c <getE820Memory_asm_getNext>:
.code32():
/home/yogi/src/os/chrisOS/asm/bootCPU.s:296
.code32:
getE820Memory_asm_getNext:
mov eax, 0xe820
    126c:	66 b8 20 e8          	mov    ax,0xe820
    1270:	00 00                	add    BYTE PTR [eax],al
/home/yogi/src/os/chrisOS/asm/bootCPU.s:297
mov edx, 0x534D4150
    1272:	66 ba 50 41          	mov    dx,0x4150
    1276:	4d                   	dec    ebp
    1277:	53                   	push   ebx
/home/yogi/src/os/chrisOS/asm/bootCPU.s:298
mov ecx, 0x24
    1278:	66 b9 24 00          	mov    cx,0x24
    127c:	00 00                	add    BYTE PTR [eax],al
/home/yogi/src/os/chrisOS/asm/bootCPU.s:299
int 0x15
    127e:	cd 15                	int    0x15
/home/yogi/src/os/chrisOS/asm/bootCPU.s:300
add edi,24
    1280:	66 83 c7 18          	add    di,0x18
/home/yogi/src/os/chrisOS/asm/bootCPU.s:301
cmp eax, 0x534D4150
    1284:	66 3d 50 41          	cmp    ax,0x4150
    1288:	4d                   	dec    ebp
    1289:	53                   	push   ebx
/home/yogi/src/os/chrisOS/asm/bootCPU.s:302
jne getE820Memory_asm_exit
    128a:	75 1c                	jne    12a8 <getE820Memory_asm_exit>
/home/yogi/src/os/chrisOS/asm/bootCPU.s:303
cmp ecx,20
    128c:	66 83 f9 14          	cmp    cx,0x14
/home/yogi/src/os/chrisOS/asm/bootCPU.s:304
jl getE820Memory_asm_exit
    1290:	7c 16                	jl     12a8 <getE820Memory_asm_exit>
/home/yogi/src/os/chrisOS/asm/bootCPU.s:305
push eax
    1292:	66 50                	push   ax
/home/yogi/src/os/chrisOS/asm/bootCPU.s:306
mov eax,recCnt
    1294:	66 a1 cd 12 66 40    	mov    ax,ds:0x406612cd
/home/yogi/src/os/chrisOS/asm/bootCPU.s:308
inc eax
mov recCnt, eax
    129a:	66 a3 cd 12 66 58    	mov    ds:0x586612cd,ax
/home/yogi/src/os/chrisOS/asm/bootCPU.s:310
pop eax
cmp ebx,0
    12a0:	66 83 fb 00          	cmp    bx,0x0
/home/yogi/src/os/chrisOS/asm/bootCPU.s:311
je  getE820Memory_asm_exit
    12a4:	74 02                	je     12a8 <getE820Memory_asm_exit>
/home/yogi/src/os/chrisOS/asm/bootCPU.s:312
jmp getE820Memory_asm_getNext
    12a6:	eb c4                	jmp    126c <getE820Memory_asm_getNext>

000012a8 <getE820Memory_asm_exit>:
getE820Memory_asm_exit():
/home/yogi/src/os/chrisOS/asm/bootCPU.s:314
getE820Memory_asm_exit:
mov eax,recCnt
    12a8:	66 a1 cd 12 66 a3    	mov    ax,ds:0xa36612cd
/home/yogi/src/os/chrisOS/asm/bootCPU.s:315
mov savedValue, eax
    12ae:	c5 12                	lds    edx,FWORD PTR [edx]
/home/yogi/src/os/chrisOS/asm/bootCPU.s:318


popa
    12b0:	61                   	popa   
/home/yogi/src/os/chrisOS/asm/bootCPU.s:319
mov eax, savedValue
    12b1:	66 a1 c5 12 e8 35    	mov    ax,ds:0x35e812c5
/home/yogi/src/os/chrisOS/asm/bootCPU.s:321
.code32
call reenterProtMode
    12b7:	fe                   	(bad)  
    12b8:	ff                   	(bad)  
    12b9:	ff c3                	inc    ebx

000012bb <saved_gdt16_lo>:
	...

000012bd <saved_gdt16_hi>:
	...

000012bf <saved_gdt16_hi2>:
	...

000012c1 <saveESP>:
saveESP():
/home/yogi/src/os/chrisOS/asm/bootCPU.s:322
ret
    12c1:	00 00                	add    BYTE PTR [eax],al
	...

000012c5 <savedValue>:
	...

000012cd <recCnt>:
	...

000012cf <idt_real>:
idt_real():
    12cf:	ff 03                	inc    DWORD PTR [ebx]
    12d1:	00 00                	add    BYTE PTR [eax],al
	...

000012d5 <retVal>:
	...

000012d7 <saved_idt>:
saved_idt():
    12d7:	00 00                	add    BYTE PTR [eax],al
    12d9:	00 00                	add    BYTE PTR [eax],al
	...

000012dd <e820data>:
	...

000012f7 <system_timer_fractions>:
	...

000012ff <system_timer_ms>:
	...

00001307 <IRQ0_fractions>:
	...

0000130f <IRQ0_ms>:
	...

00001317 <IRQ0_frequency>:
	...

0000131f <PIT_reload_value>:
PIT_reload_value():
    131f:	12 00                	adc    al,BYTE PTR [eax]
    1321:	00 00                	add    BYTE PTR [eax],al
    1323:	00 00                	add    BYTE PTR [eax],al
	...

00001327 <doPagingJump>:
doPagingJump():
/home/yogi/src/os/chrisOS/asm/bootCPU.s:367
                         .word 0
 .globl doPagingJump
.type doPagingJump, @function
doPagingJump:
.code32
cli #turn off interrupts until we get the IDT fixed up
    1327:	fa                   	cli    
/home/yogi/src/os/chrisOS/asm/bootCPU.s:368
ljmp 0x20:pagingEnableJmp
    1328:	ea 2f 13 00 00 20 00 	jmp    0x20:0x132f

0000132f <pagingEnableJmp>:
pagingEnableJmp():
/home/yogi/src/os/chrisOS/asm/bootCPU.s:370
pagingEnableJmp:
push eax
    132f:	50                   	push   eax
/home/yogi/src/os/chrisOS/asm/bootCPU.s:371
mov ax, 0x10
    1330:	66 b8 10 00          	mov    ax,0x10
/home/yogi/src/os/chrisOS/asm/bootCPU.s:372
mov ds, ax
    1334:	8e d8                	mov    ds,eax
/home/yogi/src/os/chrisOS/asm/bootCPU.s:373
mov es, ax
    1336:	8e c0                	mov    es,eax
/home/yogi/src/os/chrisOS/asm/bootCPU.s:374
mov gs, ax
    1338:	8e e8                	mov    gs,eax
/home/yogi/src/os/chrisOS/asm/bootCPU.s:375
mov fs, ax
    133a:	8e e0                	mov    fs,eax
/home/yogi/src/os/chrisOS/asm/bootCPU.s:376
pop eax
    133c:	58                   	pop    eax
/home/yogi/src/os/chrisOS/asm/bootCPU.s:377
ret
    133d:	c3                   	ret    

0000133e <doNonPagingJump>:
doNonPagingJump():
/home/yogi/src/os/chrisOS/asm/bootCPU.s:381
 .globl doNonPagingJump
.type doNonPagingJump, @function
doNonPagingJump:
ljmp 0x28:pagingDisableJmp1
    133e:	ea 45 13 00 00 28 00 	jmp    0x28:0x1345

00001345 <pagingDisableJmp1>:
pagingDisableJmp1():
/home/yogi/src/os/chrisOS/asm/bootCPU.s:383
pagingDisableJmp1:
push eax
    1345:	50                   	push   eax
/home/yogi/src/os/chrisOS/asm/bootCPU.s:384
mov eax,cr0
    1346:	0f 20 c0             	mov    eax,cr0
/home/yogi/src/os/chrisOS/asm/bootCPU.s:385
and eax,0x7FFFFFFF
    1349:	25 ff ff ff 7f       	and    eax,0x7fffffff
/home/yogi/src/os/chrisOS/asm/bootCPU.s:386
mov cr0,eax
    134e:	0f 22 c0             	mov    cr0,eax
/home/yogi/src/os/chrisOS/asm/bootCPU.s:387
ljmp 0x28:pagingDisableJmp2
    1351:	ea 58 13 00 00 28 00 	jmp    0x28:0x1358

00001358 <pagingDisableJmp2>:
pagingDisableJmp2():
/home/yogi/src/os/chrisOS/asm/bootCPU.s:389
pagingDisableJmp2:
mov ax, 0x18
    1358:	66 b8 18 00          	mov    ax,0x18
/home/yogi/src/os/chrisOS/asm/bootCPU.s:390
mov ds, ax
    135c:	8e d8                	mov    ds,eax
/home/yogi/src/os/chrisOS/asm/bootCPU.s:391
mov es, ax
    135e:	8e c0                	mov    es,eax
/home/yogi/src/os/chrisOS/asm/bootCPU.s:392
mov gs, ax
    1360:	8e e8                	mov    gs,eax
/home/yogi/src/os/chrisOS/asm/bootCPU.s:393
mov fs, ax
    1362:	8e e0                	mov    fs,eax
/home/yogi/src/os/chrisOS/asm/bootCPU.s:394
pop eax
    1364:	58                   	pop    eax
/home/yogi/src/os/chrisOS/asm/bootCPU.s:395
ret
    1365:	c3                   	ret    

00001366 <lowSmapTablePtr>:
	...

0000136e <lowSmapTbl>:
	...

0000154e <idtPtrToLoad>:
	...

00001556 <msg>:
msg():
    1556:	48                   	dec    eax
    1557:	65                   	gs
    1558:	6c                   	ins    BYTE PTR es:[edi],dx
    1559:	6c                   	ins    BYTE PTR es:[edi],dx
    155a:	6f                   	outs   dx,DWORD PTR ds:[esi]
    155b:	20 66 72             	and    BYTE PTR [esi+0x72],ah
    155e:	6f                   	outs   dx,DWORD PTR ds:[esi]
    155f:	6d                   	ins    DWORD PTR es:[edi],dx
    1560:	20 70 72             	and    BYTE PTR [eax+0x72],dh
    1563:	6f                   	outs   dx,DWORD PTR ds:[esi]
    1564:	63 65 73             	arpl   WORD PTR [ebp+0x73],sp
    1567:	73 6f                	jae    15d8 <AP_startup+0x1a>
    1569:	72 20                	jb     158b <msg2+0xa>

0000156a <pid>:
pid():
    156a:	20 20                	and    BYTE PTR [eax],ah
    156c:	20 43 52             	and    BYTE PTR [ebx+0x52],al
    156f:	30 3d 78 78 78 78    	xor    BYTE PTR ds:0x78787878,bh

00001571 <msw>:
msw():
    1571:	78 78                	js     15eb <broadcast_AP_startup+0xa>
    1573:	78 78                	js     15ed <broadcast_AP_startup+0xc>
    1575:	78 78                	js     15ef <broadcast_AP_startup+0xe>
    1577:	78 78                	js     15f1 <broadcast_AP_startup+0x10>
    1579:	20 0a                	and    BYTE PTR [edx],cl
    157b:	0d 26 00 00 00       	or     eax,0x26

0000157c <len>:
len():
    157c:	26 00 00             	add    BYTE PTR es:[eax],al
	...

00001580 <att>:
att():
    1580:	0b 57 61             	or     edx,DWORD PTR [edi+0x61]

00001581 <msg2>:
msg2():
    1581:	57                   	push   edi
    1582:	61                   	popa   
    1583:	6b 69 6e 67          	imul   ebp,DWORD PTR [ecx+0x6e],0x67
    1587:	20 75 70             	and    BYTE PTR [ebp+0x70],dh
    158a:	20 41 50             	and    BYTE PTR [ecx+0x50],al
    158d:	20 70 72             	and    BYTE PTR [eax+0x72],dh
    1590:	6f                   	outs   dx,DWORD PTR ds:[esi]
    1591:	63 65 73             	arpl   WORD PTR [ebp+0x73],sp
    1594:	73 6f                	jae    1605 <.B0+0xb>
    1596:	72 73                	jb     160b <.B0+0x11>
    1598:	0a 0d 19 00 00 00    	or     cl,BYTE PTR ds:0x19

0000159a <len2>:
len2():
    159a:	19 00                	sbb    DWORD PTR [eax],eax
	...

0000159e <att2>:
att2():
    159e:	0c 01                	or     al,0x1

0000159f <mutex>:
mutex():
    159f:	01 00                	add    DWORD PTR [eax],eax

000015a1 <smpBootCPUCount>:
	...

000015a3 <smpBootCPUsStarted>:
	...

000015a5 <newSS>:
newSS():
    15a5:	00 20                	add    BYTE PTR [eax],ah
	...

000015a8 <theGDT>:
	...
theGDT():
    15b0:	ff                   	(bad)  
    15b1:	ff 00                	inc    DWORD PTR [eax]
    15b3:	00 00                	add    BYTE PTR [eax],al
    15b5:	92                   	xchg   edx,eax
    15b6:	8f 00                	pop    DWORD PTR [eax]

000015b8 <regGDT>:
regGDT():
    15b8:	0f 00 a8 15 00 00 89 	verw   WORD PTR [eax-0x76ffffeb]

000015be <AP_startup>:
AP_startup():
/home/yogi/src/os/chrisOS/asm/bootCPU.s:444
#-----------------------------------------------------------------
#-----------------------------------------------------------------#-----------------------------------------------------------------

.global AP_startup
AP_startup:
movl     %esp, saveESP
    15be:	89 25 c1 12 00 00    	mov    DWORD PTR ds:0x12c1,esp
/home/yogi/src/os/chrisOS/asm/bootCPU.s:446
//lea	tos, %esp		# and set up new stack
call    setup_timer_channel2
    15c4:	e8 7e 00 00 00       	call   1647 <setup_timer_channel2>
/home/yogi/src/os/chrisOS/asm/bootCPU.s:448
//call	display_APIC_LocalID
call	broadcast_AP_startup
    15c9:	e8 13 00 00 00       	call   15e1 <broadcast_AP_startup>
/home/yogi/src/os/chrisOS/asm/bootCPU.s:449
call	delay_until_APs_halt
    15ce:	e8 64 00 00 00       	call   1637 <delay_until_APs_halt>
/home/yogi/src/os/chrisOS/asm/bootCPU.s:450
mov     $0x10, %eax
    15d3:	b8 10 00 00 00       	mov    eax,0x10
/home/yogi/src/os/chrisOS/asm/bootCPU.s:451
mov     %eax, %ds
    15d8:	8e d8                	mov    ds,eax
/home/yogi/src/os/chrisOS/asm/bootCPU.s:452
mov     saveESP, %esp
    15da:	8b 25 c1 12 00 00    	mov    esp,DWORD PTR ds:0x12c1
/home/yogi/src/os/chrisOS/asm/bootCPU.s:453
ret
    15e0:	c3                   	ret    

000015e1 <broadcast_AP_startup>:
broadcast_AP_startup():
/home/yogi/src/os/chrisOS/asm/bootCPU.s:460
.global broadcast_AP_startup
broadcast_AP_startup:
#
# This procedure is called by the main CPU to awaken other CPUs.
#
	push	%ebx
    15e1:	53                   	push   ebx
/home/yogi/src/os/chrisOS/asm/bootCPU.s:461
	push	%ds
    15e2:	1e                   	push   ds
/home/yogi/src/os/chrisOS/asm/bootCPU.s:464

	# address the Local-APIC registers' page
	mov	$0x10, %ax
    15e3:	66 b8 10 00          	mov    ax,0x10
/home/yogi/src/os/chrisOS/asm/bootCPU.s:465
	mov	%ax, %ds
    15e7:	8e d8                	mov    ds,eax
/home/yogi/src/os/chrisOS/asm/bootCPU.s:466
    	mov     kAPICRegisterRemapAddress, %ebx
    15e9:	8b 1d 70 98 12 00    	mov    ebx,DWORD PTR ds:0x129870
/home/yogi/src/os/chrisOS/asm/bootCPU.s:469

	# issue an 'INIT' Inter-Processor Interrupt command
	mov	$0x000C4500, %eax	# broadcase INIT-IPI
    15ef:	b8 00 45 0c 00       	mov    eax,0xc4500
/home/yogi/src/os/chrisOS/asm/bootCPU.s:470
	mov	%eax, 0x300(%ebx)	# to all-except-self
    15f4:	89 83 00 03 00 00    	mov    DWORD PTR [ebx+0x300],eax

000015fa <.B0>:
.B0():
/home/yogi/src/os/chrisOS/asm/bootCPU.s:471
.B0:	bt	$12, 0x300(%ebx)	# command in progress?
    15fa:	0f ba a3 00 03 00 00 	bt     DWORD PTR [ebx+0x300],0xc
    1601:	0c 
/home/yogi/src/os/chrisOS/asm/bootCPU.s:472
	jc	.B0			# yes, spin till done
    1602:	72 f6                	jb     15fa <.B0>
/home/yogi/src/os/chrisOS/asm/bootCPU.s:475

	# do ten-millisecond delay, allow time for APs to awaken
	mov	$10000, %eax		# number of microseconds
    1604:	b8 10 27 00 00       	mov    eax,0x2710
/home/yogi/src/os/chrisOS/asm/bootCPU.s:476
	call	delay_EAX_micro_secs	# for a programmed delay
    1609:	e8 f9 00 00 00       	call   1707 <delay_EAX_micro_secs>
/home/yogi/src/os/chrisOS/asm/bootCPU.s:479
	
	# finish the Intel 'MP Initialization Protocol'
	mov	$5, %ecx		# issue 'Startup' twice
    160e:	b9 05 00 00 00       	mov    ecx,0x5

00001613 <nxIPI>:
nxIPI():
/home/yogi/src/os/chrisOS/asm/bootCPU.s:481
#nxIPI:	mov	$0x000C4601, %eax	# broadcast Startup-IPI #startup IPI for base address of 4096
nxIPI:	mov	$0x000C4601, %eax	# broadcast Startup-IPI 
    1613:	b8 01 46 0c 00       	mov    eax,0xc4601
/home/yogi/src/os/chrisOS/asm/bootCPU.s:482
	mov	%eax, 0x300(%ebx)	# to all-except-self
    1618:	89 83 00 03 00 00    	mov    DWORD PTR [ebx+0x300],eax

0000161e <.B1>:
.B1():
/home/yogi/src/os/chrisOS/asm/bootCPU.s:483
.B1:	bt	$12, 0x300(%ebx)	# command in progress?
    161e:	0f ba a3 00 03 00 00 	bt     DWORD PTR [ebx+0x300],0xc
    1625:	0c 
/home/yogi/src/os/chrisOS/asm/bootCPU.s:484
	jc	.B1			# yes, spin till done
    1626:	72 f6                	jb     161e <.B1>
/home/yogi/src/os/chrisOS/asm/bootCPU.s:487

	# delay for 200 microseconds	
	mov	$200, %eax		# number of microseconds
    1628:	b8 c8 00 00 00       	mov    eax,0xc8
/home/yogi/src/os/chrisOS/asm/bootCPU.s:488
	call	delay_EAX_micro_secs	# for a programmed delay
    162d:	e8 d5 00 00 00       	call   1707 <delay_EAX_micro_secs>
/home/yogi/src/os/chrisOS/asm/bootCPU.s:489
	loop	nxIPI	
    1632:	e2 df                	loop   1613 <nxIPI>
/home/yogi/src/os/chrisOS/asm/bootCPU.s:491
		
	pop	%ds
    1634:	1f                   	pop    ds
/home/yogi/src/os/chrisOS/asm/bootCPU.s:492
	pop	%ebx
    1635:	5b                   	pop    ebx
/home/yogi/src/os/chrisOS/asm/bootCPU.s:493
	ret
    1636:	c3                   	ret    

00001637 <delay_until_APs_halt>:
delay_until_APs_halt():
/home/yogi/src/os/chrisOS/asm/bootCPU.s:500
delay_until_APs_halt:
#
# This procedure is called by the main CPU so that it will not
# terminate our program until the other CPUs have been halted.
#
.W0:	mov	smpBootCPUCount, %ax		# number of APs awoken
    1637:	66 a1 a1 15 00 00    	mov    ax,ds:0x15a1
/home/yogi/src/os/chrisOS/asm/bootCPU.s:501
	sub	smpBootCPUsStarted, %ax		# less number finished
    163d:	66 2b 05 a3 15 00 00 	sub    ax,WORD PTR ds:0x15a3
/home/yogi/src/os/chrisOS/asm/bootCPU.s:502
	jnz	.W0			# spin unless all done
    1644:	75 f1                	jne    1637 <delay_until_APs_halt>
/home/yogi/src/os/chrisOS/asm/bootCPU.s:503
	ret
    1646:	c3                   	ret    

00001647 <setup_timer_channel2>:
setup_timer_channel2():
/home/yogi/src/os/chrisOS/asm/bootCPU.s:512
#
# This procedure initializes the 8254 Programmable Timer/Counter
# so Timer Channel 2 can be used in 'one-shot' timing durations.
#
	# enable the 8254 Channel-2 counter
	in	$0x61, %al		# get PORT_B settings
    1647:	e4 61                	in     al,0x61
/home/yogi/src/os/chrisOS/asm/bootCPU.s:513
	and	$0xFD, %al		# turn PC speaker off
    1649:	24 fd                	and    al,0xfd
/home/yogi/src/os/chrisOS/asm/bootCPU.s:514
	or	$0x01, %al		# turn on Gate2 input
    164b:	0c 01                	or     al,0x1
/home/yogi/src/os/chrisOS/asm/bootCPU.s:515
	out	%al, $0x61		# output new settings
    164d:	e6 61                	out    0x61,al
/home/yogi/src/os/chrisOS/asm/bootCPU.s:518

	# program channel-2 for one-shot countdown
	mov	$0xB0, %al		# chn2, r/w LSB/MSB
    164f:	b0 b0                	mov    al,0xb0
/home/yogi/src/os/chrisOS/asm/bootCPU.s:519
	out	%al, $0x43		# issue PIT command
    1651:	e6 43                	out    0x43,al
/home/yogi/src/os/chrisOS/asm/bootCPU.s:520
	ret
    1653:	c3                   	ret    

00001654 <display_APIC_LocalID>:
display_APIC_LocalID():
/home/yogi/src/os/chrisOS/asm/bootCPU.s:534
# video services.  Because ROM-BIOS routines are not 'reentrant'
# it is necessary to employ a 'spinlock' to insure that only one
# processor at a time will be executing these ROM-BIOS services. 
#
	# read the Local-APIC ID-register
	push	%ds
    1654:	1e                   	push   ds
/home/yogi/src/os/chrisOS/asm/bootCPU.s:535
	xor	%ax, %ax
    1655:	31 c0                	xor    eax,eax
/home/yogi/src/os/chrisOS/asm/bootCPU.s:536
	mov	%ax, %ds
    1657:	8e d8                	mov    ds,eax
/home/yogi/src/os/chrisOS/asm/bootCPU.s:537
	mov	$0xFEE00020, %ebx
    1659:	66 bb 20 00          	mov    bx,0x20
    165d:	e0 fe                	loopne 165d <display_APIC_LocalID+0x9>
/home/yogi/src/os/chrisOS/asm/bootCPU.s:538
	mov	(%ebx), %eax
    165f:	67 66 8b 03          	mov    ax,WORD PTR [bp+di]
/home/yogi/src/os/chrisOS/asm/bootCPU.s:539
	pop	%ds
    1663:	1f                   	pop    ds

00001664 <spin>:
spin():
/home/yogi/src/os/chrisOS/asm/bootCPU.s:542

	# acquire the spinlock -- allow only one CPU at a time
spin:	bt	$0, mutex
    1664:	0f ba 26 9f          	bt     DWORD PTR [esi],0x9f
    1668:	15 00 73 f8 f0       	adc    eax,0xf0f87300
/home/yogi/src/os/chrisOS/asm/bootCPU.s:545
	jnc	spin
	lock	
	btr	$0, mutex
    166d:	0f ba 36 9f          	btr    DWORD PTR [esi],0x9f
    1671:	15 00 73 ef 66       	adc    eax,0x66ef7300
/home/yogi/src/os/chrisOS/asm/bootCPU.s:549
	jnc	spin

	# write CPU Local-APIC ID-number into shared buffer
	rol	$8, %eax		# get ID-number in AL
    1676:	c1 c0 08             	rol    eax,0x8
/home/yogi/src/os/chrisOS/asm/bootCPU.s:550
	and	$0xF, %al		# isolate lowest nybble
    1679:	24 0f                	and    al,0xf
/home/yogi/src/os/chrisOS/asm/bootCPU.s:553

#unremark to have the first CPu clear the screen
        pusha
    167b:	60                   	pusha  
/home/yogi/src/os/chrisOS/asm/bootCPU.s:554
        cmp $0x1,%al
    167c:	3c 01                	cmp    al,0x1
/home/yogi/src/os/chrisOS/asm/bootCPU.s:555
        ja overClearScreen
    167e:	77 28                	ja     16a8 <overClearScreen>
/home/yogi/src/os/chrisOS/asm/bootCPU.s:556
        call clearScreen
    1680:	e8 01 01 b4 0f       	call   fb41786 <_months_abbrev+0xfa17d66>
/home/yogi/src/os/chrisOS/asm/bootCPU.s:559
#jmp overClearScreen
	mov	$0x0F, %ah		# get display-page
	int	$0x10			# call video bios
    1685:	cd 10                	int    0x10
/home/yogi/src/os/chrisOS/asm/bootCPU.s:561

	mov	$0x02, %ah		# set cursor position
    1687:	b4 02                	mov    ah,0x2
/home/yogi/src/os/chrisOS/asm/bootCPU.s:562
        mov     $0,%bh
    1689:	b7 00                	mov    bh,0x0
/home/yogi/src/os/chrisOS/asm/bootCPU.s:563
        mov     $0x2000,%dx
    168b:	ba 00 20 cd 10       	mov    edx,0x10cd2000
/home/yogi/src/os/chrisOS/asm/bootCPU.s:565
	int	$0x10			# call video bios
        mov     $0x3,ah
    1690:	b4 03                	mov    ah,0x3
/home/yogi/src/os/chrisOS/asm/bootCPU.s:566
        int     $0x10
    1692:	cd 10                	int    0x10
/home/yogi/src/os/chrisOS/asm/bootCPU.s:567
	mov	$0x1301, %ax		# write_string
    1694:	b8 01 13 8d 2e       	mov    eax,0x2e8d1301
/home/yogi/src/os/chrisOS/asm/bootCPU.s:568
	lea	msg2, %bp		# point ES:BP to string
    1699:	81 15 8b 0e 9a 15 8a 	adc    DWORD PTR ds:0x159a0e8b,0x159e1e8a
    16a0:	1e 9e 15 
/home/yogi/src/os/chrisOS/asm/bootCPU.s:571
	mov	len2, %cx		# number of characters
	mov	att2, %bl		# display attributes
	mov	$0x1301, %ax		# write_string
    16a3:	b8 01 13 cd 10       	mov    eax,0x10cd1301

000016a8 <overClearScreen>:
overClearScreen():
/home/yogi/src/os/chrisOS/asm/bootCPU.s:575
	int	$0x10			# call video bios 

overClearScreen:
        popa
    16a8:	61                   	popa   
/home/yogi/src/os/chrisOS/asm/bootCPU.s:576
        or	$'0', %al		# convert to numeral	
    16a9:	0c 30                	or     al,0x30
/home/yogi/src/os/chrisOS/asm/bootCPU.s:577
	movb	%al, pid		# write to shared buffer	
    16ab:	a2 6a 15 8d 3e       	mov    ds:0x3e8d156a,al
/home/yogi/src/os/chrisOS/asm/bootCPU.s:580
#jmp overPrinting
	# format the contents of register CR0 for display
	lea	msw, %di
    16b0:	71 15                	jno    16c7 <overClearScreen+0x1f>
/home/yogi/src/os/chrisOS/asm/bootCPU.s:581
	mov	%cr0, %eax
    16b2:	0f 20 c0             	mov    eax,cr0
/home/yogi/src/os/chrisOS/asm/bootCPU.s:582
	call	eax2hex
    16b5:	e8 a4 00 b4 0f       	call   fb4175e <_months_abbrev+0xfa17d3e>
/home/yogi/src/os/chrisOS/asm/bootCPU.s:585
	# display the information using ROM-BIOS routines
	mov	$0x0F, %ah		# get display-page
	int	$0x10			# call video bios
    16ba:	cd 10                	int    0x10
/home/yogi/src/os/chrisOS/asm/bootCPU.s:587

	mov	$0x03, %ah		# get cursor position
    16bc:	b4 03                	mov    ah,0x3
/home/yogi/src/os/chrisOS/asm/bootCPU.s:588
	int	$0x10			# call video bios
    16be:	cd 10                	int    0x10
/home/yogi/src/os/chrisOS/asm/bootCPU.s:590

	mov	$0x1301, %ax		# write_string
    16c0:	b8 01 13 8d 2e       	mov    eax,0x2e8d1301
/home/yogi/src/os/chrisOS/asm/bootCPU.s:591
	lea	msg, %bp		# point ES:BP to string
    16c5:	56                   	push   esi
    16c6:	15 8b 0e 7c 15       	adc    eax,0x157c0e8b
/home/yogi/src/os/chrisOS/asm/bootCPU.s:593
	mov	len, %cx		# number of characters
	mov	att, %bl		# display attributes
    16cb:	8a 1e                	mov    bl,BYTE PTR [esi]
    16cd:	80 15 b8 01 13 cd 10 	adc    BYTE PTR ds:0xcd1301b8,0x10

000016d4 <overPrinting>:
overPrinting():
/home/yogi/src/os/chrisOS/asm/bootCPU.s:598
	mov	$0x1301, %ax		# write_string
	int	$0x10			# call video bios 
overPrinting:
	# release spinlock -- finished with 'non-reentrant' code
	lock 	
    16d4:	f0 0f ba 2e 9f       	lock bts DWORD PTR [esi],0x9f
/home/yogi/src/os/chrisOS/asm/bootCPU.s:599
	bts 	$0, mutex
    16d9:	15 00 c3 fa 8c       	adc    eax,0x8cfac300

000016dc <initAP>:
initAP():
/home/yogi/src/os/chrisOS/asm/bootCPU.s:610
#=================================================================
#-----------------------------------------------------------------
.code16
.globl initAP
.type initAP, @function
initAP:	cli
    16dc:	fa                   	cli    
/home/yogi/src/os/chrisOS/asm/bootCPU.s:611
	mov	%cs, %ax		# address program's data
    16dd:	8c c8                	mov    eax,cs
/home/yogi/src/os/chrisOS/asm/bootCPU.s:612
	mov	%ax, %ds		#    with DS register
    16df:	8e d8                	mov    ds,eax
/home/yogi/src/os/chrisOS/asm/bootCPU.s:613
	mov	%ax, %es		#    also ES register
    16e1:	8e c0                	mov    es,eax
/home/yogi/src/os/chrisOS/asm/bootCPU.s:614
	lock				# insure 'atomic' update
    16e3:	f0 ff 06             	lock inc DWORD PTR [esi]
/home/yogi/src/os/chrisOS/asm/bootCPU.s:615
	incw	smpBootCPUCount			# increment count of APs
    16e6:	a1 15 b8 00 10       	mov    eax,ds:0x1000b815
/home/yogi/src/os/chrisOS/asm/bootCPU.s:619

	# setup an exclusive stack-area for this processor
	mov	$0x1000, %ax		# paragraphs in segment
	xadd	%ax, newSS		# 'atomic' xchg-and-add
    16eb:	0f c1 06             	xadd   DWORD PTR [esi],eax
    16ee:	a5                   	movs   DWORD PTR es:[edi],DWORD PTR ds:[esi]
    16ef:	15 8e d0 66 31       	adc    eax,0x3166d08e
/home/yogi/src/os/chrisOS/asm/bootCPU.s:621
	mov	%ax, %ss		# segment-address in SS
	xor	%esp, %esp		# top-of-stack into ESP
    16f4:	e4 66                	in     al,0x66
/home/yogi/src/os/chrisOS/asm/bootCPU.s:622
        mov     $0,%esp
    16f6:	bc 00 00 00 00       	mov    esp,0x0
/home/yogi/src/os/chrisOS/asm/bootCPU.s:623
	call	allow_4GB_addressing	# adjust DS's seg-limit
    16fb:	e8 38 00 f0 ff       	call   fff01738 <CHECKSUM+0x1b9dc73d>
/home/yogi/src/os/chrisOS/asm/bootCPU.s:628
#	call	display_APIC_LocalID	# display this CPU's ID

	# put this processor to sleep
	lock				# insure 'atomic' update
	incw	smpBootCPUsStarted			# increment count of APs
    1700:	06                   	push   es
    1701:	a3 15 fa f4 eb       	mov    ds:0xebf4fa15,eax

00001703 <freeze>:
freeze():
/home/yogi/src/os/chrisOS/asm/bootCPU.s:630

freeze:	cli				# do not awaken this CPU
    1703:	fa                   	cli    
/home/yogi/src/os/chrisOS/asm/bootCPU.s:631
	hlt				# 'fetch-execute' ceases	
    1704:	f4                   	hlt    
/home/yogi/src/os/chrisOS/asm/bootCPU.s:632
	jmp	freeze			# just-in-case of an NMI
    1705:	eb fc                	jmp    1703 <freeze>

00001707 <delay_EAX_micro_secs>:
delay_EAX_micro_secs():
/home/yogi/src/os/chrisOS/asm/bootCPU.s:639
#-----------------------------------------------------------------
delay_EAX_micro_secs:
#
# This procedure creates a programmed delay for EAX microseconds.
#
	pushal
    1707:	66 60                	pushaw 
/home/yogi/src/os/chrisOS/asm/bootCPU.s:641

	mov	%eax, %ecx		# number of microseconds
    1709:	66 89 c1             	mov    cx,ax
/home/yogi/src/os/chrisOS/asm/bootCPU.s:642
	mov	$100000, %eax		# microseconds-per-second
    170c:	66 b8 a0 86          	mov    ax,0x86a0
    1710:	01 00                	add    DWORD PTR [eax],eax
/home/yogi/src/os/chrisOS/asm/bootCPU.s:643
	xor	%edx, %edx		# is extended to quadword
    1712:	66 31 d2             	xor    dx,dx
/home/yogi/src/os/chrisOS/asm/bootCPU.s:644
	div	%ecx			# division by double-word
    1715:	66 f7 f1             	div    cx
/home/yogi/src/os/chrisOS/asm/bootCPU.s:646
	
	mov	%eax, %ecx		# input-frequency divisor
    1718:	66 89 c1             	mov    cx,ax
/home/yogi/src/os/chrisOS/asm/bootCPU.s:647
	mov	$1193182, %eax		# timer's input-frequency
    171b:	66 b8 de 34          	mov    ax,0x34de
    171f:	12 00                	adc    al,BYTE PTR [eax]
/home/yogi/src/os/chrisOS/asm/bootCPU.s:648
	xor	%edx, %edx		# is extended to quadword
    1721:	66 31 d2             	xor    dx,dx
/home/yogi/src/os/chrisOS/asm/bootCPU.s:649
	div	%ecx			# division by double-word
    1724:	66 f7 f1             	div    cx
/home/yogi/src/os/chrisOS/asm/bootCPU.s:651

	out	%al, $0x42		# transfer to Latch LSB
    1727:	e6 42                	out    0x42,al
/home/yogi/src/os/chrisOS/asm/bootCPU.s:652
	xchg	%al, %ah		# LSB swapped with MSB
    1729:	86 c4                	xchg   ah,al
/home/yogi/src/os/chrisOS/asm/bootCPU.s:653
	out	%al, $0x42		# transfer to Latch MSB
    172b:	e6 42                	out    0x42,al

0000172d <.T0>:
.T0():
/home/yogi/src/os/chrisOS/asm/bootCPU.s:655

.T0:	in	$0x61, %al		# check PORT_B settings
    172d:	e4 61                	in     al,0x61
/home/yogi/src/os/chrisOS/asm/bootCPU.s:656
	test	$0x20, %al		# has counter2 expired?
    172f:	a8 20                	test   al,0x20
/home/yogi/src/os/chrisOS/asm/bootCPU.s:657
	jz	.T0			# no, continue polling
    1731:	74 fa                	je     172d <.T0>
/home/yogi/src/os/chrisOS/asm/bootCPU.s:659
	
	popal
    1733:	66 61                	popaw  
/home/yogi/src/os/chrisOS/asm/bootCPU.s:660
	ret
    1735:	c3                   	ret    

00001736 <allow_4GB_addressing>:
allow_4GB_addressing():
/home/yogi/src/os/chrisOS/asm/bootCPU.s:669
#
# This procedure will be called by each processor in order to 
# raise the 'hidden' segment-limit in its DS segment-register
# which permits Local-APIC registers to be addressed with DS.   
#
	pushf				# preserve FLAGS settings
    1736:	9c                   	pushf  
/home/yogi/src/os/chrisOS/asm/bootCPU.s:670
	push	%ds			# preserve DS contents
    1737:	1e                   	push   ds
/home/yogi/src/os/chrisOS/asm/bootCPU.s:672

	cli				# no device interrupts
    1738:	fa                   	cli    
/home/yogi/src/os/chrisOS/asm/bootCPU.s:674

	mov	%cr0, %eax		# get machine status
    1739:	0f 20 c0             	mov    eax,cr0
/home/yogi/src/os/chrisOS/asm/bootCPU.s:675
	bts	$0, %eax		# set PE-bit to 1
    173c:	66 0f ba e8 00       	bts    ax,0x0
/home/yogi/src/os/chrisOS/asm/bootCPU.s:676
	mov	%eax, %cr0		# enter protected mode
    1741:	0f 22 c0             	mov    cr0,eax
/home/yogi/src/os/chrisOS/asm/bootCPU.s:677
	lgdt	regGDT			# load GDTR register-image
    1744:	0f 01 16             	lgdtd  [esi]
    1747:	b8 15 b8 08 00       	mov    eax,0x8b815
/home/yogi/src/os/chrisOS/asm/bootCPU.s:679
	mov	$sel_FS, %ax		# address 4GB data-segment
	mov	%ax, %ds		#   with the DS register
    174c:	8e d8                	mov    ds,eax
/home/yogi/src/os/chrisOS/asm/bootCPU.s:681

	mov	%cr0, %eax		# get machine status
    174e:	0f 20 c0             	mov    eax,cr0
/home/yogi/src/os/chrisOS/asm/bootCPU.s:682
	btr	$0, %eax		# reset PE-bit to 0
    1751:	66 0f ba f0 00       	btr    ax,0x0
/home/yogi/src/os/chrisOS/asm/bootCPU.s:683
	mov	%eax, %cr0		# leave protected mode
    1756:	0f 22 c0             	mov    cr0,eax
/home/yogi/src/os/chrisOS/asm/bootCPU.s:685
.code16		
	pop	%ds			# restore register DS
    1759:	1f                   	pop    ds
/home/yogi/src/os/chrisOS/asm/bootCPU.s:686
	popf				# restore FLAGS value
    175a:	9d                   	popf   
/home/yogi/src/os/chrisOS/asm/bootCPU.s:687
	ret				
    175b:	c3                   	ret    

0000175c <eax2hex>:
eax2hex():
/home/yogi/src/os/chrisOS/asm/bootCPU.s:690
#-----------------------------------------------------------------
eax2hex:  # converts value in EAX to hexadecimal string at DS:DI
	pusha	
    175c:	60                   	pusha  
/home/yogi/src/os/chrisOS/asm/bootCPU.s:692

	mov	$8, %cx
    175d:	b9 08 00 66 c1       	mov    ecx,0xc1660008

00001760 <nxnyb>:
nxnyb():
/home/yogi/src/os/chrisOS/asm/bootCPU.s:694
nxnyb:
	rol	$4, %eax
    1760:	66 c1 c0 04          	rol    ax,0x4
/home/yogi/src/os/chrisOS/asm/bootCPU.s:695
	mov	%al, %bl
    1764:	88 c3                	mov    bl,al
/home/yogi/src/os/chrisOS/asm/bootCPU.s:696
	and	$0xF, %bx
    1766:	83 e3 0f             	and    ebx,0xf
/home/yogi/src/os/chrisOS/asm/bootCPU.s:697
	mov	hex(%bx), %dl
    1769:	8a 97 74 17 88 15    	mov    dl,BYTE PTR [edi+0x15881774]
/home/yogi/src/os/chrisOS/asm/bootCPU.s:699
	mov	%dl, (%di)
	inc	%di
    176f:	47                   	inc    edi
/home/yogi/src/os/chrisOS/asm/bootCPU.s:700
	loop	nxnyb	
    1770:	e2 ee                	loop   1760 <nxnyb>
/home/yogi/src/os/chrisOS/asm/bootCPU.s:702

	popa
    1772:	61                   	popa   
/home/yogi/src/os/chrisOS/asm/bootCPU.s:703
	ret
    1773:	c3                   	ret    

00001774 <hex>:
hex():
    1774:	30 31                	xor    BYTE PTR [ecx],dh
    1776:	32 33                	xor    dh,BYTE PTR [ebx]
    1778:	34 35                	xor    al,0x35
    177a:	36                   	ss
    177b:	37                   	aaa    
    177c:	38 39                	cmp    BYTE PTR [ecx],bh
    177e:	41                   	inc    ecx
    177f:	42                   	inc    edx
    1780:	43                   	inc    ebx
    1781:	44                   	inc    esp
    1782:	45                   	inc    ebp
    1783:	46                   	inc    esi

00001784 <clearScreen>:
clearScreen():
/home/yogi/src/os/chrisOS/asm/bootCPU.s:709
#-----------------------------------------------------------------
hex:	.ascii	"0123456789ABCDEF"	# array of hex numerals

.intel_syntax noprefix
clearScreen:
    pusha
    1784:	60                   	pusha  
/home/yogi/src/os/chrisOS/asm/bootCPU.s:711

    mov ax, 0x0700  # function 07, AL=0 means scroll whole window
    1785:	b8 00 07 b7 07       	mov    eax,0x7b70700
/home/yogi/src/os/chrisOS/asm/bootCPU.s:713
    mov bh, 0x07    # character attribute = white on black
    mov cx, 0x0000  # row = 0, col = 0
    178a:	b9 00 00 ba 4f       	mov    ecx,0x4fba0000
/home/yogi/src/os/chrisOS/asm/bootCPU.s:714
    mov dx, 0x184f  # row = 24 (0x18), col = 79 (0x4f)
    178f:	18 cd                	sbb    ch,cl
/home/yogi/src/os/chrisOS/asm/bootCPU.s:715
    int 0x10        # call BIOS video interrupt
    1791:	10 b4 02 b7 00 ba 00 	adc    BYTE PTR [edx+eax*1+0xba00b7],dh
/home/yogi/src/os/chrisOS/asm/bootCPU.s:718
    mov ah,02
    mov bh,0
    mov dx,0
    1798:	00 cd                	add    ch,cl
/home/yogi/src/os/chrisOS/asm/bootCPU.s:719
    int 0x10
    179a:	10 61 c3             	adc    BYTE PTR [ecx-0x3d],ah
	...

0000fec5 <stk>:
stk():
/home/yogi/src/os/chrisOS/asm/bootCPU.s:721
    popa
    ret
    fec5:	fa                   	cli    
    fec6:	fa                   	cli    
    fec7:	fa                   	cli    
    fec8:	fa                   	cli    
    fec9:	fa                   	cli    
    feca:	fa                   	cli    
    fecb:	fa                   	cli    
    fecc:	fa                   	cli    
    fecd:	fa                   	cli    
    fece:	fa                   	cli    
    fecf:	fa                   	cli    
    fed0:	fa                   	cli    
    fed1:	fa                   	cli    
    fed2:	fa                   	cli    
    fed3:	fa                   	cli    
    fed4:	fa                   	cli    
    fed5:	fa                   	cli    
    fed6:	fa                   	cli    
    fed7:	fa                   	cli    
    fed8:	fa                   	cli    
    fed9:	fa                   	cli    
    feda:	fa                   	cli    
    fedb:	fa                   	cli    
    fedc:	fa                   	cli    
    fedd:	fa                   	cli    
    fede:	fa                   	cli    
    fedf:	fa                   	cli    
    fee0:	fa                   	cli    
    fee1:	fa                   	cli    
    fee2:	fa                   	cli    
    fee3:	fa                   	cli    
    fee4:	fa                   	cli    
    fee5:	fa                   	cli    
    fee6:	fa                   	cli    
    fee7:	fa                   	cli    
    fee8:	fa                   	cli    
    fee9:	fa                   	cli    
    feea:	fa                   	cli    
    feeb:	fa                   	cli    
    feec:	fa                   	cli    
    feed:	fa                   	cli    
    feee:	fa                   	cli    
    feef:	fa                   	cli    
    fef0:	fa                   	cli    
    fef1:	fa                   	cli    
    fef2:	fa                   	cli    
    fef3:	fa                   	cli    
    fef4:	fa                   	cli    
    fef5:	fa                   	cli    
    fef6:	fa                   	cli    
    fef7:	fa                   	cli    
    fef8:	fa                   	cli    
    fef9:	fa                   	cli    
    fefa:	fa                   	cli    
    fefb:	fa                   	cli    
    fefc:	fa                   	cli    
    fefd:	fa                   	cli    
    fefe:	fa                   	cli    
    feff:	fa                   	cli    
    ff00:	fa                   	cli    
    ff01:	fa                   	cli    
    ff02:	fa                   	cli    
    ff03:	fa                   	cli    
    ff04:	fa                   	cli    
    ff05:	fa                   	cli    
    ff06:	fa                   	cli    
    ff07:	fa                   	cli    
    ff08:	fa                   	cli    
    ff09:	fa                   	cli    
    ff0a:	fa                   	cli    
    ff0b:	fa                   	cli    
    ff0c:	fa                   	cli    
    ff0d:	fa                   	cli    
    ff0e:	fa                   	cli    
    ff0f:	fa                   	cli    
    ff10:	fa                   	cli    
    ff11:	fa                   	cli    
    ff12:	fa                   	cli    
    ff13:	fa                   	cli    
    ff14:	fa                   	cli    
    ff15:	fa                   	cli    
    ff16:	fa                   	cli    
    ff17:	fa                   	cli    
    ff18:	fa                   	cli    
    ff19:	fa                   	cli    
    ff1a:	fa                   	cli    
    ff1b:	fa                   	cli    
    ff1c:	fa                   	cli    
    ff1d:	fa                   	cli    
    ff1e:	fa                   	cli    
    ff1f:	fa                   	cli    
    ff20:	fa                   	cli    
    ff21:	fa                   	cli    
    ff22:	fa                   	cli    
    ff23:	fa                   	cli    
    ff24:	fa                   	cli    
    ff25:	fa                   	cli    
    ff26:	fa                   	cli    
    ff27:	fa                   	cli    
    ff28:	fa                   	cli    
    ff29:	fa                   	cli    
    ff2a:	fa                   	cli    
    ff2b:	fa                   	cli    
    ff2c:	fa                   	cli    
    ff2d:	fa                   	cli    
    ff2e:	fa                   	cli    
    ff2f:	fa                   	cli    
    ff30:	fa                   	cli    
    ff31:	fa                   	cli    
    ff32:	fa                   	cli    
    ff33:	fa                   	cli    
    ff34:	fa                   	cli    
    ff35:	fa                   	cli    
    ff36:	fa                   	cli    
    ff37:	fa                   	cli    
    ff38:	fa                   	cli    
    ff39:	fa                   	cli    
    ff3a:	fa                   	cli    
    ff3b:	fa                   	cli    
    ff3c:	fa                   	cli    
    ff3d:	fa                   	cli    
    ff3e:	fa                   	cli    
    ff3f:	fa                   	cli    
    ff40:	fa                   	cli    
    ff41:	fa                   	cli    
    ff42:	fa                   	cli    
    ff43:	fa                   	cli    
    ff44:	fa                   	cli    
    ff45:	fa                   	cli    
    ff46:	fa                   	cli    
    ff47:	fa                   	cli    
    ff48:	fa                   	cli    
    ff49:	fa                   	cli    
    ff4a:	fa                   	cli    
    ff4b:	fa                   	cli    
    ff4c:	fa                   	cli    
    ff4d:	fa                   	cli    
    ff4e:	fa                   	cli    
    ff4f:	fa                   	cli    
    ff50:	fa                   	cli    
    ff51:	fa                   	cli    
    ff52:	fa                   	cli    
    ff53:	fa                   	cli    
    ff54:	fa                   	cli    
    ff55:	fa                   	cli    
    ff56:	fa                   	cli    
    ff57:	fa                   	cli    
    ff58:	fa                   	cli    
    ff59:	fa                   	cli    
    ff5a:	fa                   	cli    
    ff5b:	fa                   	cli    
    ff5c:	fa                   	cli    
    ff5d:	fa                   	cli    
    ff5e:	fa                   	cli    
    ff5f:	fa                   	cli    
    ff60:	fa                   	cli    
    ff61:	fa                   	cli    
    ff62:	fa                   	cli    
    ff63:	fa                   	cli    
    ff64:	fa                   	cli    
    ff65:	fa                   	cli    
    ff66:	fa                   	cli    
    ff67:	fa                   	cli    
    ff68:	fa                   	cli    
    ff69:	fa                   	cli    
    ff6a:	fa                   	cli    
    ff6b:	fa                   	cli    
    ff6c:	fa                   	cli    
    ff6d:	fa                   	cli    
    ff6e:	fa                   	cli    
    ff6f:	fa                   	cli    
    ff70:	fa                   	cli    
    ff71:	fa                   	cli    
    ff72:	fa                   	cli    
    ff73:	fa                   	cli    
    ff74:	fa                   	cli    
    ff75:	fa                   	cli    
    ff76:	fa                   	cli    
    ff77:	fa                   	cli    
    ff78:	fa                   	cli    
    ff79:	fa                   	cli    
    ff7a:	fa                   	cli    
    ff7b:	fa                   	cli    
    ff7c:	fa                   	cli    
    ff7d:	fa                   	cli    
    ff7e:	fa                   	cli    
    ff7f:	fa                   	cli    
    ff80:	fa                   	cli    
    ff81:	fa                   	cli    
    ff82:	fa                   	cli    
    ff83:	fa                   	cli    
    ff84:	fa                   	cli    
    ff85:	fa                   	cli    
    ff86:	fa                   	cli    
    ff87:	fa                   	cli    
    ff88:	fa                   	cli    
    ff89:	fa                   	cli    
    ff8a:	fa                   	cli    
    ff8b:	fa                   	cli    
    ff8c:	fa                   	cli    
    ff8d:	fa                   	cli    
    ff8e:	fa                   	cli    
    ff8f:	fa                   	cli    
    ff90:	fa                   	cli    
    ff91:	fa                   	cli    
    ff92:	fa                   	cli    
    ff93:	fa                   	cli    
    ff94:	fa                   	cli    
    ff95:	fa                   	cli    
    ff96:	fa                   	cli    
    ff97:	fa                   	cli    
    ff98:	fa                   	cli    
    ff99:	fa                   	cli    
    ff9a:	fa                   	cli    
    ff9b:	fa                   	cli    
    ff9c:	fa                   	cli    
    ff9d:	fa                   	cli    
    ff9e:	fa                   	cli    
    ff9f:	fa                   	cli    
    ffa0:	fa                   	cli    
    ffa1:	fa                   	cli    
    ffa2:	fa                   	cli    
    ffa3:	fa                   	cli    
    ffa4:	fa                   	cli    
    ffa5:	fa                   	cli    
    ffa6:	fa                   	cli    
    ffa7:	fa                   	cli    
    ffa8:	fa                   	cli    
    ffa9:	fa                   	cli    
    ffaa:	fa                   	cli    
    ffab:	fa                   	cli    
    ffac:	fa                   	cli    
    ffad:	fa                   	cli    
    ffae:	fa                   	cli    
    ffaf:	fa                   	cli    
    ffb0:	fa                   	cli    
    ffb1:	fa                   	cli    
    ffb2:	fa                   	cli    
    ffb3:	fa                   	cli    
    ffb4:	fa                   	cli    
    ffb5:	fa                   	cli    
    ffb6:	fa                   	cli    
    ffb7:	fa                   	cli    
    ffb8:	fa                   	cli    
    ffb9:	fa                   	cli    
    ffba:	fa                   	cli    
    ffbb:	fa                   	cli    
    ffbc:	fa                   	cli    
    ffbd:	fa                   	cli    
    ffbe:	fa                   	cli    
    ffbf:	fa                   	cli    
    ffc0:	fa                   	cli    
    ffc1:	fa                   	cli    
    ffc2:	fa                   	cli    
    ffc3:	fa                   	cli    

0000ffc4 <irq13ESP>:
irq13ESP():
    ffc4:	00 00                	add    BYTE PTR [eax],al
    ffc6:	10 00                	adc    BYTE PTR [eax],al
    ffc8:	10 00                	adc    BYTE PTR [eax],al
	...

0000ffcc <irq13SavedESP>:
	...

0000ffd4 <irq14ESP>:
irq14ESP():
    ffd4:	00 00                	add    BYTE PTR [eax],al
    ffd6:	10 00                	adc    BYTE PTR [eax],al
    ffd8:	10 00                	adc    BYTE PTR [eax],al
	...

0000ffdc <irq14SavedESP>:
	...

0000ffe4 <espForFatalExceptions>:
espForFatalExceptions():
    ffe4:	00 00                	add    BYTE PTR [eax],al
    ffe6:	10 00                	adc    BYTE PTR [eax],al
    ffe8:	10 00                	adc    BYTE PTR [eax],al
	...

0000ffec <savedESP>:
	...

0000fff4 <bufr>:
	...

00010004 <savedESP_irq0>:
	...

00010014 <debugReturnFlags>:
	...

0001001c <debugESP>:
debugESP():
   1001c:	00 00                	add    BYTE PTR [eax],al
	...

00010020 <_isr_00_wrapper>:
_isr_00_wrapper():
/home/yogi/src/os//chrisOS/asm/isr.s:38
debugESP: .WORD 0,0


.global _isr_00_wrapper        
_isr_00_wrapper:                #remapped to 0x0a
        mov exceptionSavedESP, esp
   10020:	89 25 2c 97 12 00    	mov    DWORD PTR ds:0x12972c,esp
/home/yogi/src/os//chrisOS/asm/isr.s:39
        mov exceptionAX,eax
   10026:	a3 f0 96 12 00       	mov    ds:0x1296f0,eax
/home/yogi/src/os//chrisOS/asm/isr.s:40
        mov exceptionBP, ebp
   1002b:	89 2d 08 97 12 00    	mov    DWORD PTR ds:0x129708,ebp
/home/yogi/src/os//chrisOS/asm/isr.s:41
        mov     ebp, esp
   10031:	89 e5                	mov    ebp,esp
/home/yogi/src/os//chrisOS/asm/isr.s:42
        mov     ax, 0x0                  # save exception number
   10033:	66 b8 00 00          	mov    ax,0x0
/home/yogi/src/os//chrisOS/asm/isr.s:43
        jmp isr_My_Common
   10037:	e9 5e 01 00 00       	jmp    1019a <isr_My_Common>

0001003c <_isr_02_wrapper>:
_isr_02_wrapper():
/home/yogi/src/os//chrisOS/asm/isr.s:46
.global _isr_02_wrapper        
_isr_02_wrapper:                #remapped to 0x0a
        mov exceptionSavedESP, esp
   1003c:	89 25 2c 97 12 00    	mov    DWORD PTR ds:0x12972c,esp
/home/yogi/src/os//chrisOS/asm/isr.s:47
        mov exceptionAX,eax
   10042:	a3 f0 96 12 00       	mov    ds:0x1296f0,eax
/home/yogi/src/os//chrisOS/asm/isr.s:48
        mov exceptionBP, ebp
   10047:	89 2d 08 97 12 00    	mov    DWORD PTR ds:0x129708,ebp
/home/yogi/src/os//chrisOS/asm/isr.s:49
        mov     ebp, esp
   1004d:	89 e5                	mov    ebp,esp
/home/yogi/src/os//chrisOS/asm/isr.s:50
        mov     ax, 0x2                  # save exception number
   1004f:	66 b8 02 00          	mov    ax,0x2
/home/yogi/src/os//chrisOS/asm/isr.s:51
        jmp isr_My_Common
   10053:	e9 42 01 00 00       	jmp    1019a <isr_My_Common>

00010058 <_isr_03_wrapper>:
_isr_03_wrapper():
/home/yogi/src/os//chrisOS/asm/isr.s:60
        mov exceptionAX,eax
        mov exceptionBP, ebp
        mov     ebp, esp
        mov     ax, 0x3                  # save exception number
*/
        orw [esp+8],0x100
   10058:	66 81 4c 24 08 00 01 	or     WORD PTR [esp+0x8],0x100
/home/yogi/src/os//chrisOS/asm/isr.s:61
        pusha
   1005f:	60                   	pusha  
/home/yogi/src/os//chrisOS/asm/isr.s:62
        call activateDebugger
   10060:	e8 ab af 00 00       	call   1b010 <activateDebugger>
/home/yogi/src/os//chrisOS/asm/isr.s:65
 /*       jmp isr_My_Common
*/
        popa
   10065:	61                   	popa   
/home/yogi/src/os//chrisOS/asm/isr.s:66
        sti
   10066:	fb                   	sti    
/home/yogi/src/os//chrisOS/asm/isr.s:67
        iretd
   10067:	cf                   	iret   

00010068 <_isr_04_wrapper>:
_isr_04_wrapper():
/home/yogi/src/os//chrisOS/asm/isr.s:70
.global _isr_04_wrapper        
_isr_04_wrapper:                #remapped to 0x0c
        mov exceptionSavedESP, esp
   10068:	89 25 2c 97 12 00    	mov    DWORD PTR ds:0x12972c,esp
/home/yogi/src/os//chrisOS/asm/isr.s:71
        mov exceptionAX,eax
   1006e:	a3 f0 96 12 00       	mov    ds:0x1296f0,eax
/home/yogi/src/os//chrisOS/asm/isr.s:72
        mov exceptionBP, ebp
   10073:	89 2d 08 97 12 00    	mov    DWORD PTR ds:0x129708,ebp
/home/yogi/src/os//chrisOS/asm/isr.s:73
        mov     ebp, esp
   10079:	89 e5                	mov    ebp,esp
/home/yogi/src/os//chrisOS/asm/isr.s:74
        mov     ax, 0x4                  # save exception number
   1007b:	66 b8 04 00          	mov    ax,0x4
/home/yogi/src/os//chrisOS/asm/isr.s:75
        jmp isr_My_Common
   1007f:	e9 16 01 00 00       	jmp    1019a <isr_My_Common>

00010084 <_isr_05_wrapper>:
_isr_05_wrapper():
/home/yogi/src/os//chrisOS/asm/isr.s:78
.global _isr_05_wrapper        
_isr_05_wrapper:                #remapped to 0x0d
        mov exceptionSavedESP, esp
   10084:	89 25 2c 97 12 00    	mov    DWORD PTR ds:0x12972c,esp
/home/yogi/src/os//chrisOS/asm/isr.s:79
        mov exceptionAX,eax
   1008a:	a3 f0 96 12 00       	mov    ds:0x1296f0,eax
/home/yogi/src/os//chrisOS/asm/isr.s:80
        mov exceptionBP, ebp
   1008f:	89 2d 08 97 12 00    	mov    DWORD PTR ds:0x129708,ebp
/home/yogi/src/os//chrisOS/asm/isr.s:81
        mov     ebp, esp
   10095:	89 e5                	mov    ebp,esp
/home/yogi/src/os//chrisOS/asm/isr.s:82
        mov     ax, 0x5                  # save exception number
   10097:	66 b8 05 00          	mov    ax,0x5
/home/yogi/src/os//chrisOS/asm/isr.s:83
        jmp isr_My_Common
   1009b:	e9 fa 00 00 00       	jmp    1019a <isr_My_Common>

000100a0 <_isr_06_wrapper>:
_isr_06_wrapper():
/home/yogi/src/os//chrisOS/asm/isr.s:86
.global _isr_06_wrapper
_isr_06_wrapper:                #remapped to 0x0e
        mov exceptionSavedESP, esp
   100a0:	89 25 2c 97 12 00    	mov    DWORD PTR ds:0x12972c,esp
/home/yogi/src/os//chrisOS/asm/isr.s:87
        mov exceptionAX,eax
   100a6:	a3 f0 96 12 00       	mov    ds:0x1296f0,eax
/home/yogi/src/os//chrisOS/asm/isr.s:88
        mov exceptionBP, ebp
   100ab:	89 2d 08 97 12 00    	mov    DWORD PTR ds:0x129708,ebp
/home/yogi/src/os//chrisOS/asm/isr.s:89
        mov     ebp, esp
   100b1:	89 e5                	mov    ebp,esp
/home/yogi/src/os//chrisOS/asm/isr.s:90
        mov     ax, 0x6                  # save exception number
   100b3:	66 b8 06 00          	mov    ax,0x6
/home/yogi/src/os//chrisOS/asm/isr.s:91
        jmp isr_My_Common
   100b7:	e9 de 00 00 00       	jmp    1019a <isr_My_Common>

000100bc <_isr_07_wrapper>:
_isr_07_wrapper():
/home/yogi/src/os//chrisOS/asm/isr.s:94
.global _isr_07_wrapper        
_isr_07_wrapper:                #remapped to 0x0f
        mov exceptionSavedESP, esp
   100bc:	89 25 2c 97 12 00    	mov    DWORD PTR ds:0x12972c,esp
/home/yogi/src/os//chrisOS/asm/isr.s:95
        mov exceptionAX,eax
   100c2:	a3 f0 96 12 00       	mov    ds:0x1296f0,eax
/home/yogi/src/os//chrisOS/asm/isr.s:96
        mov exceptionBP, ebp
   100c7:	89 2d 08 97 12 00    	mov    DWORD PTR ds:0x129708,ebp
/home/yogi/src/os//chrisOS/asm/isr.s:97
        mov     ebp, esp
   100cd:	89 e5                	mov    ebp,esp
/home/yogi/src/os//chrisOS/asm/isr.s:98
        mov     ax, 0x7                  # save exception number
   100cf:	66 b8 07 00          	mov    ax,0x7
/home/yogi/src/os//chrisOS/asm/isr.s:99
        jmp isr_My_Common
   100d3:	e9 c2 00 00 00       	jmp    1019a <isr_My_Common>

000100d8 <_isr_08_wrapper>:
_isr_08_wrapper():
/home/yogi/src/os//chrisOS/asm/isr.s:102
.global _isr_08_wrapper                 #remapped to 0x10
_isr_08_wrapper:                
        mov exceptionSavedESP, esp
   100d8:	89 25 2c 97 12 00    	mov    DWORD PTR ds:0x12972c,esp
/home/yogi/src/os//chrisOS/asm/isr.s:103
        mov exceptionAX,eax
   100de:	a3 f0 96 12 00       	mov    ds:0x1296f0,eax
/home/yogi/src/os//chrisOS/asm/isr.s:104
        mov exceptionBP, ebp
   100e3:	89 2d 08 97 12 00    	mov    DWORD PTR ds:0x129708,ebp
/home/yogi/src/os//chrisOS/asm/isr.s:105
        mov     ebp, esp
   100e9:	89 e5                	mov    ebp,esp
/home/yogi/src/os//chrisOS/asm/isr.s:106
        mov     ax, 0x8                  # save exception number
   100eb:	66 b8 08 00          	mov    ax,0x8
/home/yogi/src/os//chrisOS/asm/isr.s:107
        jmp isr_My_Common
   100ef:	e9 a6 00 00 00       	jmp    1019a <isr_My_Common>
/home/yogi/src/os//chrisOS/asm/isr.s:130
#        mov ebx, cr2
#        mov exceptionCR2, ebx
#        pop ebx
#        pop ebp
        //push bx                         #clr 05/20/2016- We're not going to recover from a double fault so don't try pushing things on the stack to save them because the stack may be corrupted
        mov bx,10
   100f4:	66 bb 0a 00          	mov    bx,0xa
/home/yogi/src/os//chrisOS/asm/isr.s:131
        mov ds,bx
   100f8:	8e db                	mov    ds,ebx
/home/yogi/src/os//chrisOS/asm/isr.s:132
        mov es,bx
   100fa:	8e c3                	mov    es,ebx
/home/yogi/src/os//chrisOS/asm/isr.s:133
        mov fs,bx
   100fc:	8e e3                	mov    fs,ebx
/home/yogi/src/os//chrisOS/asm/isr.s:134
        mov gs,bx
   100fe:	8e eb                	mov    gs,ebx
/home/yogi/src/os//chrisOS/asm/isr.s:136
        //pop bx                        #clr 05/20/2016- We're not going to recover from a double fault so don't try pushing things on the stack to save them because the stack may be corrupted
        call    doubleFaultHandler     # jump to the common code
   10100:	e8 66 9b 00 00       	call   19c6b <doubleFaultHandler>

00010105 <_isr_09_wrapper>:
_isr_09_wrapper():
/home/yogi/src/os//chrisOS/asm/isr.s:139
.global _isr_09_wrapper                 #remapped to 0x11
_isr_09_wrapper:
        mov exceptionSavedESP, esp
   10105:	89 25 2c 97 12 00    	mov    DWORD PTR ds:0x12972c,esp
/home/yogi/src/os//chrisOS/asm/isr.s:140
        mov exceptionAX,eax
   1010b:	a3 f0 96 12 00       	mov    ds:0x1296f0,eax
/home/yogi/src/os//chrisOS/asm/isr.s:141
        mov exceptionBP, ebp
   10110:	89 2d 08 97 12 00    	mov    DWORD PTR ds:0x129708,ebp
/home/yogi/src/os//chrisOS/asm/isr.s:142
        mov     ebp, esp
   10116:	89 e5                	mov    ebp,esp
/home/yogi/src/os//chrisOS/asm/isr.s:143
        mov     ax, 0x9                  # save exception number
   10118:	66 b8 09 00          	mov    ax,0x9
/home/yogi/src/os//chrisOS/asm/isr.s:144
        jmp isr_My_Common
   1011c:	eb 7c                	jmp    1019a <isr_My_Common>

0001011e <_isr_10_wrapper>:
_isr_10_wrapper():
/home/yogi/src/os//chrisOS/asm/isr.s:147
.global _isr_10_wrapper                 #remapped to 0x12
_isr_10_wrapper:                        
        mov exceptionSavedESP, esp
   1011e:	89 25 2c 97 12 00    	mov    DWORD PTR ds:0x12972c,esp
/home/yogi/src/os//chrisOS/asm/isr.s:148
        mov exceptionAX,eax
   10124:	a3 f0 96 12 00       	mov    ds:0x1296f0,eax
/home/yogi/src/os//chrisOS/asm/isr.s:149
        mov exceptionBP, ebp
   10129:	89 2d 08 97 12 00    	mov    DWORD PTR ds:0x129708,ebp
/home/yogi/src/os//chrisOS/asm/isr.s:150
        mov     ebp, esp
   1012f:	89 e5                	mov    ebp,esp
/home/yogi/src/os//chrisOS/asm/isr.s:151
        mov     ax, 0xa                  # save exception number
   10131:	66 b8 0a 00          	mov    ax,0xa
/home/yogi/src/os//chrisOS/asm/isr.s:152
        jmp isr_My_Common
   10135:	eb 63                	jmp    1019a <isr_My_Common>

00010137 <_isr_11_wrapper>:
_isr_11_wrapper():
/home/yogi/src/os//chrisOS/asm/isr.s:155
.global _isr_11_wrapper                 #remapped to 0x13
_isr_11_wrapper:
        mov exceptionSavedESP, esp
   10137:	89 25 2c 97 12 00    	mov    DWORD PTR ds:0x12972c,esp
/home/yogi/src/os//chrisOS/asm/isr.s:156
        mov exceptionAX,eax
   1013d:	a3 f0 96 12 00       	mov    ds:0x1296f0,eax
/home/yogi/src/os//chrisOS/asm/isr.s:157
        mov exceptionBP, ebp
   10142:	89 2d 08 97 12 00    	mov    DWORD PTR ds:0x129708,ebp
/home/yogi/src/os//chrisOS/asm/isr.s:158
        mov     ebp, esp
   10148:	89 e5                	mov    ebp,esp
/home/yogi/src/os//chrisOS/asm/isr.s:159
        mov     ax, 0xb                  # save exception number
   1014a:	66 b8 0b 00          	mov    ax,0xb
/home/yogi/src/os//chrisOS/asm/isr.s:160
        jmp isr_My_Common
   1014e:	eb 4a                	jmp    1019a <isr_My_Common>

00010150 <_isr_12_wrapper>:
_isr_12_wrapper():
/home/yogi/src/os//chrisOS/asm/isr.s:163
.global _isr_12_wrapper        
_isr_12_wrapper:                        #remapped to 0x14
        mov exceptionSavedESP, esp
   10150:	89 25 2c 97 12 00    	mov    DWORD PTR ds:0x12972c,esp
/home/yogi/src/os//chrisOS/asm/isr.s:164
        mov exceptionAX,eax
   10156:	a3 f0 96 12 00       	mov    ds:0x1296f0,eax
/home/yogi/src/os//chrisOS/asm/isr.s:165
        mov exceptionBP, ebp
   1015b:	89 2d 08 97 12 00    	mov    DWORD PTR ds:0x129708,ebp
/home/yogi/src/os//chrisOS/asm/isr.s:166
        mov     ebp, esp
   10161:	89 e5                	mov    ebp,esp
/home/yogi/src/os//chrisOS/asm/isr.s:167
        mov     ax, 0xc                  # save exception number
   10163:	66 b8 0c 00          	mov    ax,0xc
/home/yogi/src/os//chrisOS/asm/isr.s:168
        jmp isr_My_Common
   10167:	eb 31                	jmp    1019a <isr_My_Common>

00010169 <_isr_13_wrapper>:
_isr_13_wrapper():
/home/yogi/src/os//chrisOS/asm/isr.s:171
.global _isr_13_wrapper                 #remapped to 0x15
_isr_13_wrapper:
cli;
   10169:	fa                   	cli    
/home/yogi/src/os//chrisOS/asm/isr.s:172
        mov exceptionSavedESP, esp
   1016a:	89 25 2c 97 12 00    	mov    DWORD PTR ds:0x12972c,esp
/home/yogi/src/os//chrisOS/asm/isr.s:173
        mov exceptionAX,eax
   10170:	a3 f0 96 12 00       	mov    ds:0x1296f0,eax
/home/yogi/src/os//chrisOS/asm/isr.s:174
        mov exceptionBP, ebp
   10175:	89 2d 08 97 12 00    	mov    DWORD PTR ds:0x129708,ebp
/home/yogi/src/os//chrisOS/asm/isr.s:175
        mov     ebp, esp
   1017b:	89 e5                	mov    ebp,esp
/home/yogi/src/os//chrisOS/asm/isr.s:176
        mov     ax, 0xd                  # save exception number
   1017d:	66 b8 0d 00          	mov    ax,0xd
/home/yogi/src/os//chrisOS/asm/isr.s:177
        jmp isr_My_Common
   10181:	eb 17                	jmp    1019a <isr_My_Common>

00010183 <_isr_14_wrapper>:
_isr_14_wrapper():
/home/yogi/src/os//chrisOS/asm/isr.s:181
.global _isr_14_wrapper                 #remapped to 0x16
_isr_14_wrapper:
#cli;hlt;
mov exceptionSavedESP, esp
   10183:	89 25 2c 97 12 00    	mov    DWORD PTR ds:0x12972c,esp
/home/yogi/src/os//chrisOS/asm/isr.s:182
        mov exceptionAX,eax
   10189:	a3 f0 96 12 00       	mov    ds:0x1296f0,eax
/home/yogi/src/os//chrisOS/asm/isr.s:183
        mov exceptionBP, ebp
   1018e:	89 2d 08 97 12 00    	mov    DWORD PTR ds:0x129708,ebp
/home/yogi/src/os//chrisOS/asm/isr.s:184
        mov     ebp, esp
   10194:	89 e5                	mov    ebp,esp
/home/yogi/src/os//chrisOS/asm/isr.s:185
        mov     ax, 0xe                  # save exception number
   10196:	66 b8 0e 00          	mov    ax,0xe

0001019a <isr_My_Common>:
isr_My_Common():
/home/yogi/src/os//chrisOS/asm/isr.s:187
isr_My_Common:
        mov exceptionNumber,ax
   1019a:	66 a3 e4 96 12 00    	mov    ds:0x1296e4,ax
/home/yogi/src/os//chrisOS/asm/isr.s:188
        pushad                          # other regs because its an ISR
   101a0:	60                   	pusha  
/home/yogi/src/os//chrisOS/asm/isr.s:189
        mov eax,ds
   101a1:	8c d8                	mov    eax,ds
/home/yogi/src/os//chrisOS/asm/isr.s:190
        mov exceptionDS,eax
   101a3:	a3 18 97 12 00       	mov    ds:0x129718,eax
/home/yogi/src/os//chrisOS/asm/isr.s:191
        mov exceptionBX, ebx
   101a8:	89 1d f4 96 12 00    	mov    DWORD PTR ds:0x1296f4,ebx
/home/yogi/src/os//chrisOS/asm/isr.s:192
        mov exceptionCX, ecx
   101ae:	89 0d f8 96 12 00    	mov    DWORD PTR ds:0x1296f8,ecx
/home/yogi/src/os//chrisOS/asm/isr.s:193
        mov exceptionDX, edx
   101b4:	89 15 fc 96 12 00    	mov    DWORD PTR ds:0x1296fc,edx
/home/yogi/src/os//chrisOS/asm/isr.s:194
        mov exceptionSI, esi
   101ba:	89 35 00 97 12 00    	mov    DWORD PTR ds:0x129700,esi
/home/yogi/src/os//chrisOS/asm/isr.s:195
        mov exceptionDI, edi
   101c0:	89 3d 04 97 12 00    	mov    DWORD PTR ds:0x129704,edi
/home/yogi/src/os//chrisOS/asm/isr.s:196
        str exceptionTR
   101c6:	0f 00 0d 44 97 12 00 	str    WORD PTR ds:0x129744
/home/yogi/src/os//chrisOS/asm/isr.s:197
        mov eax, cr0
   101cd:	0f 20 c0             	mov    eax,cr0
/home/yogi/src/os//chrisOS/asm/isr.s:198
        mov exceptionCR0, eax
   101d0:	a3 0c 97 12 00       	mov    ds:0x12970c,eax
/home/yogi/src/os//chrisOS/asm/isr.s:199
        mov eax, cr3
   101d5:	0f 20 d8             	mov    eax,cr3
/home/yogi/src/os//chrisOS/asm/isr.s:200
        mov exceptionCR3, eax
   101d8:	a3 10 97 12 00       	mov    ds:0x129710,eax
/home/yogi/src/os//chrisOS/asm/isr.s:201
        mov eax, cr4
   101dd:	0f 20 e0             	mov    eax,cr4
/home/yogi/src/os//chrisOS/asm/isr.s:202
        mov exceptionCR4, eax
   101e0:	a3 14 97 12 00       	mov    ds:0x129714,eax
/home/yogi/src/os//chrisOS/asm/isr.s:203
        mov eax,es
   101e5:	8c c0                	mov    eax,es
/home/yogi/src/os//chrisOS/asm/isr.s:204
        mov exceptionES,eax
   101e7:	a3 1c 97 12 00       	mov    ds:0x12971c,eax
/home/yogi/src/os//chrisOS/asm/isr.s:205
        mov eax,fs
   101ec:	8c e0                	mov    eax,fs
/home/yogi/src/os//chrisOS/asm/isr.s:206
        mov exceptionFS,eax
   101ee:	a3 20 97 12 00       	mov    ds:0x129720,eax
/home/yogi/src/os//chrisOS/asm/isr.s:207
        mov eax,gs
   101f3:	8c e8                	mov    eax,gs
/home/yogi/src/os//chrisOS/asm/isr.s:208
        mov exceptionGS,eax
   101f5:	a3 24 97 12 00       	mov    ds:0x129724,eax
/home/yogi/src/os//chrisOS/asm/isr.s:209
        mov eax,ss
   101fa:	8c d0                	mov    eax,ss
/home/yogi/src/os//chrisOS/asm/isr.s:210
        mov exceptionSS,eax
   101fc:	a3 28 97 12 00       	mov    ds:0x129728,eax
/home/yogi/src/os//chrisOS/asm/isr.s:211
        mov eax, exceptionAX
   10201:	a1 f0 96 12 00       	mov    eax,ds:0x1296f0
/home/yogi/src/os//chrisOS/asm/isr.s:212
        mov     bx, 0x10
   10206:	66 bb 10 00          	mov    bx,0x10
/home/yogi/src/os//chrisOS/asm/isr.s:213
        mov     ds, bx
   1020a:	8e db                	mov    ds,ebx
/home/yogi/src/os//chrisOS/asm/isr.s:214
        mov     es, bx                  # load ds and es with valid selector
   1020c:	8e c3                	mov    es,ebx
/home/yogi/src/os//chrisOS/asm/isr.s:215
	mov     gs, bx
   1020e:	8e eb                	mov    gs,ebx
/home/yogi/src/os//chrisOS/asm/isr.s:217
    
    mov ebx,exceptionNumber
   10210:	8b 1d e4 96 12 00    	mov    ebx,DWORD PTR ds:0x1296e4
/home/yogi/src/os//chrisOS/asm/isr.s:218
    mov bl,[_isr_has_errorCode+ebx]
   10216:	8a 9b 8c 06 01 00    	mov    bl,BYTE PTR [ebx+0x1068c]
/home/yogi/src/os//chrisOS/asm/isr.s:219
    cmp bl,1
   1021c:	80 fb 01             	cmp    bl,0x1
/home/yogi/src/os//chrisOS/asm/isr.s:220
    je  getExceptionDetailsWithError
   1021f:	74 1f                	je     10240 <getExceptionDetailsWithError>
/home/yogi/src/os//chrisOS/asm/isr.s:221
    mov ebx, [ebp+8]
   10221:	8b 5d 08             	mov    ebx,DWORD PTR [ebp+0x8]
/home/yogi/src/os//chrisOS/asm/isr.s:222
    mov exceptionFlags, ebx
   10224:	89 1d 30 97 12 00    	mov    DWORD PTR ds:0x129730,ebx
/home/yogi/src/os//chrisOS/asm/isr.s:223
    mov bx, [ebp+4]
   1022a:	66 8b 5d 04          	mov    bx,WORD PTR [ebp+0x4]
/home/yogi/src/os//chrisOS/asm/isr.s:224
    mov exceptionCS, bx
   1022e:	66 89 1d 3c 97 12 00 	mov    WORD PTR ds:0x12973c,bx
/home/yogi/src/os//chrisOS/asm/isr.s:225
    mov ebx, [ebp+0]
   10235:	8b 5d 00             	mov    ebx,DWORD PTR [ebp+0x0]
/home/yogi/src/os//chrisOS/asm/isr.s:226
    mov exceptionEIP, ebx
   10238:	89 1d 38 97 12 00    	mov    DWORD PTR ds:0x129738,ebx
/home/yogi/src/os//chrisOS/asm/isr.s:227
    jmp saveTheStack
   1023e:	eb 33                	jmp    10273 <saveTheStack>

00010240 <getExceptionDetailsWithError>:
getExceptionDetailsWithError():
/home/yogi/src/os//chrisOS/asm/isr.s:230

getExceptionDetailsWithError:
     mov ebx, [ebp+12]
   10240:	8b 5d 0c             	mov    ebx,DWORD PTR [ebp+0xc]
/home/yogi/src/os//chrisOS/asm/isr.s:231
     mov exceptionFlags, ebx
   10243:	89 1d 30 97 12 00    	mov    DWORD PTR ds:0x129730,ebx
/home/yogi/src/os//chrisOS/asm/isr.s:232
     mov bx, [ebp+8]
   10249:	66 8b 5d 08          	mov    bx,WORD PTR [ebp+0x8]
/home/yogi/src/os//chrisOS/asm/isr.s:233
     mov exceptionCS, bx
   1024d:	66 89 1d 3c 97 12 00 	mov    WORD PTR ds:0x12973c,bx
/home/yogi/src/os//chrisOS/asm/isr.s:234
     mov ebx, [ebp+4]
   10254:	8b 5d 04             	mov    ebx,DWORD PTR [ebp+0x4]
/home/yogi/src/os//chrisOS/asm/isr.s:235
     mov exceptionEIP, ebx
   10257:	89 1d 38 97 12 00    	mov    DWORD PTR ds:0x129738,ebx
/home/yogi/src/os//chrisOS/asm/isr.s:236
     mov ebx, cr2
   1025d:	0f 20 d3             	mov    ebx,cr2
/home/yogi/src/os//chrisOS/asm/isr.s:237
     mov exceptionCR2, ebx
   10260:	89 1d 40 97 12 00    	mov    DWORD PTR ds:0x129740,ebx
/home/yogi/src/os//chrisOS/asm/isr.s:238
     mov ebx, [ebp]
   10266:	8b 5d 00             	mov    ebx,DWORD PTR [ebp+0x0]
/home/yogi/src/os//chrisOS/asm/isr.s:239
     movzx ebx,bx
   10269:	0f b7 db             	movzx  ebx,bx
/home/yogi/src/os//chrisOS/asm/isr.s:240
     mov exceptionErrorCode, bx
   1026c:	66 89 1d 34 97 12 00 	mov    WORD PTR ds:0x129734,bx

00010273 <saveTheStack>:
saveTheStack():
/home/yogi/src/os//chrisOS/asm/isr.s:243

saveTheStack:
jmp overSaveTheStack
   10273:	eb 13                	jmp    10288 <overSaveTheStack>
/home/yogi/src/os//chrisOS/asm/isr.s:244
        mov esi, exceptionSavedESP
   10275:	8b 35 2c 97 12 00    	mov    esi,DWORD PTR ds:0x12972c
/home/yogi/src/os//chrisOS/asm/isr.s:246
//        add esi, 16 #drop the 4 dwords that are passed to the proc
        mov edi, exceptionSavedStack
   1027b:	8b 3d e8 96 12 00    	mov    edi,DWORD PTR ds:0x1296e8
/home/yogi/src/os//chrisOS/asm/isr.s:247
        mov cx, 30
   10281:	66 b9 1e 00          	mov    cx,0x1e
/home/yogi/src/os//chrisOS/asm/isr.s:248
        cld
   10285:	fc                   	cld    
/home/yogi/src/os//chrisOS/asm/isr.s:249
        rep movsd
   10286:	f3 a5                	rep movs DWORD PTR es:[edi],DWORD PTR ds:[esi]

00010288 <overSaveTheStack>:
overSaveTheStack():
/home/yogi/src/os//chrisOS/asm/isr.s:253

        #Figure out which exception handler to call
overSaveTheStack:
        mov ax,exceptionNumber
   10288:	66 a1 e4 96 12 00    	mov    ax,ds:0x1296e4
/home/yogi/src/os//chrisOS/asm/isr.s:254
        cmp ax,0xe
   1028e:	66 83 f8 0e          	cmp    ax,0xe
/home/yogi/src/os//chrisOS/asm/isr.s:255
        jne notPagingHandler
   10292:	75 07                	jne    1029b <notPagingHandler>
/home/yogi/src/os//chrisOS/asm/isr.s:256
        call pagingExceptionHandler
   10294:	e8 c4 97 00 00       	call   19a5d <pagingExceptionHandler>
/home/yogi/src/os//chrisOS/asm/isr.s:257
        jmp onTheWayOut
   10299:	eb 05                	jmp    102a0 <onTheWayOut>

0001029b <notPagingHandler>:
notPagingHandler():
/home/yogi/src/os//chrisOS/asm/isr.s:261

notPagingHandler:
toDefaultHandler:
        call defaultISRHandler
   1029b:	e8 75 99 00 00       	call   19c15 <defaultISRHandler>

000102a0 <onTheWayOut>:
onTheWayOut():
/home/yogi/src/os//chrisOS/asm/isr.s:263
onTheWayOut:
        popad                           # restoring the regs
   102a0:	61                   	popa   
/home/yogi/src/os//chrisOS/asm/isr.s:264
        mov esp, exceptionSavedESP
   102a1:	8b 25 2c 97 12 00    	mov    esp,DWORD PTR ds:0x12972c
/home/yogi/src/os//chrisOS/asm/isr.s:266
#        add esp, 4 #get rid of error code per prolog http://geezer.osdevbrasil.net/osd/intr/index.htm 9. If the exception pushed an error code, the handler must pop it now and discard it. 
        mov ebx,exceptionNumber
   102a7:	8b 1d e4 96 12 00    	mov    ebx,DWORD PTR ds:0x1296e4
/home/yogi/src/os//chrisOS/asm/isr.s:267
        mov bl,[_isr_has_errorCode+ebx]
   102ad:	8a 9b 8c 06 01 00    	mov    bl,BYTE PTR [ebx+0x1068c]
/home/yogi/src/os//chrisOS/asm/isr.s:268
        cmp bl,1
   102b3:	80 fb 01             	cmp    bl,0x1
/home/yogi/src/os//chrisOS/asm/isr.s:269
        jnz overCorrection
   102b6:	75 03                	jne    102bb <overCorrection>
/home/yogi/src/os//chrisOS/asm/isr.s:270
        add esp, 4 #get rid of error code per prolog http://geezer.osdevbrasil.net/osd/intr/index.htm 9. If the exception pushed an error code, the handler must pop it now and discard it. 
   102b8:	83 c4 04             	add    esp,0x4

000102bb <overCorrection>:
overCorrection():
/home/yogi/src/os//chrisOS/asm/isr.s:272
overCorrection:
        mov     bx, exceptionDS
   102bb:	66 8b 1d 18 97 12 00 	mov    bx,WORD PTR ds:0x129718
/home/yogi/src/os//chrisOS/asm/isr.s:273
        mov     ds, bx
   102c2:	8e db                	mov    ds,ebx
/home/yogi/src/os//chrisOS/asm/isr.s:274
        mov     bx, exceptionES
   102c4:	66 8b 1d 1c 97 12 00 	mov    bx,WORD PTR ds:0x12971c
/home/yogi/src/os//chrisOS/asm/isr.s:275
        mov     es, bx                  # load ds and es with valid selector
   102cb:	8e c3                	mov    es,ebx
/home/yogi/src/os//chrisOS/asm/isr.s:276
        mov     bx, exceptionFS
   102cd:	66 8b 1d 20 97 12 00 	mov    bx,WORD PTR ds:0x129720
/home/yogi/src/os//chrisOS/asm/isr.s:277
        mov     fs,bx
   102d4:	8e e3                	mov    fs,ebx
/home/yogi/src/os//chrisOS/asm/isr.s:278
        mov     bx, exceptionGS
   102d6:	66 8b 1d 24 97 12 00 	mov    bx,WORD PTR ds:0x129724
/home/yogi/src/os//chrisOS/asm/isr.s:279
	mov     gs, bx
   102dd:	8e eb                	mov    gs,ebx
/home/yogi/src/os//chrisOS/asm/isr.s:280
        mov ebp,exceptionBP
   102df:	8b 2d 08 97 12 00    	mov    ebp,DWORD PTR ds:0x129708
/home/yogi/src/os//chrisOS/asm/isr.s:281
        mov ebx,exceptionBX
   102e5:	8b 1d f4 96 12 00    	mov    ebx,DWORD PTR ds:0x1296f4
/home/yogi/src/os//chrisOS/asm/isr.s:282
        mov eax, exceptionAX
   102eb:	a1 f0 96 12 00       	mov    eax,ds:0x1296f0
/home/yogi/src/os//chrisOS/asm/isr.s:283
        sti
   102f0:	fb                   	sti    
/home/yogi/src/os//chrisOS/asm/isr.s:284
        iretd
   102f1:	cf                   	iret   

000102f2 <_isr_15_wrapper>:
_isr_15_wrapper():
/home/yogi/src/os//chrisOS/asm/isr.s:288

.global _isr_15_wrapper        
_isr_15_wrapper:
        mov exceptionSavedESP, esp
   102f2:	89 25 2c 97 12 00    	mov    DWORD PTR ds:0x12972c,esp
/home/yogi/src/os//chrisOS/asm/isr.s:289
        mov exceptionAX,eax
   102f8:	a3 f0 96 12 00       	mov    ds:0x1296f0,eax
/home/yogi/src/os//chrisOS/asm/isr.s:290
        mov exceptionBP, ebp
   102fd:	89 2d 08 97 12 00    	mov    DWORD PTR ds:0x129708,ebp
/home/yogi/src/os//chrisOS/asm/isr.s:291
        mov     ebp, esp
   10303:	89 e5                	mov    ebp,esp
/home/yogi/src/os//chrisOS/asm/isr.s:292
        mov     ax, 0xf                  # save exception number
   10305:	66 b8 0f 00          	mov    ax,0xf
/home/yogi/src/os//chrisOS/asm/isr.s:293
        jmp isr_My_Common
   10309:	e9 8c fe ff ff       	jmp    1019a <isr_My_Common>

0001030e <_isr_16_wrapper>:
_isr_16_wrapper():
/home/yogi/src/os//chrisOS/asm/isr.s:296
.global _isr_16_wrapper        
_isr_16_wrapper:
        mov exceptionSavedESP, esp
   1030e:	89 25 2c 97 12 00    	mov    DWORD PTR ds:0x12972c,esp
/home/yogi/src/os//chrisOS/asm/isr.s:297
        mov exceptionAX,eax
   10314:	a3 f0 96 12 00       	mov    ds:0x1296f0,eax
/home/yogi/src/os//chrisOS/asm/isr.s:298
        mov exceptionBP, ebp
   10319:	89 2d 08 97 12 00    	mov    DWORD PTR ds:0x129708,ebp
/home/yogi/src/os//chrisOS/asm/isr.s:299
        mov     ebp, esp
   1031f:	89 e5                	mov    ebp,esp
/home/yogi/src/os//chrisOS/asm/isr.s:300
        mov     ax, 0x10                  # save exception number
   10321:	66 b8 10 00          	mov    ax,0x10
/home/yogi/src/os//chrisOS/asm/isr.s:301
        jmp isr_My_Common
   10325:	e9 70 fe ff ff       	jmp    1019a <isr_My_Common>

0001032a <_isr_17_wrapper>:
_isr_17_wrapper():
/home/yogi/src/os//chrisOS/asm/isr.s:304
.global _isr_17_wrapper        
_isr_17_wrapper:
        mov exceptionSavedESP, esp
   1032a:	89 25 2c 97 12 00    	mov    DWORD PTR ds:0x12972c,esp
/home/yogi/src/os//chrisOS/asm/isr.s:305
        mov exceptionAX,eax
   10330:	a3 f0 96 12 00       	mov    ds:0x1296f0,eax
/home/yogi/src/os//chrisOS/asm/isr.s:306
        mov exceptionBP, ebp
   10335:	89 2d 08 97 12 00    	mov    DWORD PTR ds:0x129708,ebp
/home/yogi/src/os//chrisOS/asm/isr.s:307
        mov     ebp, esp
   1033b:	89 e5                	mov    ebp,esp
/home/yogi/src/os//chrisOS/asm/isr.s:308
        mov     ax, 0x11                  # save exception number
   1033d:	66 b8 11 00          	mov    ax,0x11
/home/yogi/src/os//chrisOS/asm/isr.s:309
        jmp isr_My_Common
   10341:	e9 54 fe ff ff       	jmp    1019a <isr_My_Common>

00010346 <_isr_18_wrapper>:
_isr_18_wrapper():
/home/yogi/src/os//chrisOS/asm/isr.s:312
.global _isr_18_wrapper        
_isr_18_wrapper:
        mov exceptionSavedESP, esp
   10346:	89 25 2c 97 12 00    	mov    DWORD PTR ds:0x12972c,esp
/home/yogi/src/os//chrisOS/asm/isr.s:313
        mov exceptionAX,eax
   1034c:	a3 f0 96 12 00       	mov    ds:0x1296f0,eax
/home/yogi/src/os//chrisOS/asm/isr.s:314
        mov exceptionBP, ebp
   10351:	89 2d 08 97 12 00    	mov    DWORD PTR ds:0x129708,ebp
/home/yogi/src/os//chrisOS/asm/isr.s:315
        mov     ebp, esp
   10357:	89 e5                	mov    ebp,esp
/home/yogi/src/os//chrisOS/asm/isr.s:316
        mov     ax, 0x12                  # save exception number
   10359:	66 b8 12 00          	mov    ax,0x12
/home/yogi/src/os//chrisOS/asm/isr.s:317
        jmp isr_My_Common
   1035d:	e9 38 fe ff ff       	jmp    1019a <isr_My_Common>

00010362 <_isr_19_wrapper>:
_isr_19_wrapper():
/home/yogi/src/os//chrisOS/asm/isr.s:320
.global _isr_19_wrapper        
_isr_19_wrapper:
        mov exceptionSavedESP, esp
   10362:	89 25 2c 97 12 00    	mov    DWORD PTR ds:0x12972c,esp
/home/yogi/src/os//chrisOS/asm/isr.s:321
        mov exceptionAX,eax
   10368:	a3 f0 96 12 00       	mov    ds:0x1296f0,eax
/home/yogi/src/os//chrisOS/asm/isr.s:322
        mov exceptionBP, ebp
   1036d:	89 2d 08 97 12 00    	mov    DWORD PTR ds:0x129708,ebp
/home/yogi/src/os//chrisOS/asm/isr.s:323
        mov     ebp, esp
   10373:	89 e5                	mov    ebp,esp
/home/yogi/src/os//chrisOS/asm/isr.s:324
        mov     ax, 0x13                  # save exception number
   10375:	66 b8 13 00          	mov    ax,0x13
/home/yogi/src/os//chrisOS/asm/isr.s:325
        jmp isr_My_Common
   10379:	e9 1c fe ff ff       	jmp    1019a <isr_My_Common>

0001037e <_isr_20_wrapper>:
_isr_20_wrapper():
/home/yogi/src/os//chrisOS/asm/isr.s:328
.global _isr_20_wrapper        #8 based exception 0x14
_isr_20_wrapper:
        mov exceptionSavedESP, esp
   1037e:	89 25 2c 97 12 00    	mov    DWORD PTR ds:0x12972c,esp
/home/yogi/src/os//chrisOS/asm/isr.s:329
        mov exceptionAX,eax
   10384:	a3 f0 96 12 00       	mov    ds:0x1296f0,eax
/home/yogi/src/os//chrisOS/asm/isr.s:330
        mov exceptionBP, ebp
   10389:	89 2d 08 97 12 00    	mov    DWORD PTR ds:0x129708,ebp
/home/yogi/src/os//chrisOS/asm/isr.s:331
        mov     ebp, esp
   1038f:	89 e5                	mov    ebp,esp
/home/yogi/src/os//chrisOS/asm/isr.s:332
        mov     ax, 0x14                  # save exception number
   10391:	66 b8 14 00          	mov    ax,0x14
/home/yogi/src/os//chrisOS/asm/isr.s:333
        jmp isr_My_Common
   10395:	e9 00 fe ff ff       	jmp    1019a <isr_My_Common>

0001039a <_isr_21_wrapper>:
_isr_21_wrapper():
/home/yogi/src/os//chrisOS/asm/isr.s:336
.global _isr_21_wrapper        
_isr_21_wrapper:
        mov exceptionSavedESP, esp
   1039a:	89 25 2c 97 12 00    	mov    DWORD PTR ds:0x12972c,esp
/home/yogi/src/os//chrisOS/asm/isr.s:337
        mov exceptionAX,eax
   103a0:	a3 f0 96 12 00       	mov    ds:0x1296f0,eax
/home/yogi/src/os//chrisOS/asm/isr.s:338
        mov exceptionBP, ebp
   103a5:	89 2d 08 97 12 00    	mov    DWORD PTR ds:0x129708,ebp
/home/yogi/src/os//chrisOS/asm/isr.s:339
        mov     ebp, esp
   103ab:	89 e5                	mov    ebp,esp
/home/yogi/src/os//chrisOS/asm/isr.s:340
        mov     ax, 0x15                  # save exception number
   103ad:	66 b8 15 00          	mov    ax,0x15
/home/yogi/src/os//chrisOS/asm/isr.s:341
        jmp isr_My_Common
   103b1:	e9 e4 fd ff ff       	jmp    1019a <isr_My_Common>

000103b6 <_isr_22_wrapper>:
_isr_22_wrapper():
/home/yogi/src/os//chrisOS/asm/isr.s:344
.global _isr_22_wrapper        
_isr_22_wrapper:
        mov exceptionSavedESP, esp
   103b6:	89 25 2c 97 12 00    	mov    DWORD PTR ds:0x12972c,esp
/home/yogi/src/os//chrisOS/asm/isr.s:345
        mov exceptionAX,eax
   103bc:	a3 f0 96 12 00       	mov    ds:0x1296f0,eax
/home/yogi/src/os//chrisOS/asm/isr.s:346
        mov exceptionBP, ebp
   103c1:	89 2d 08 97 12 00    	mov    DWORD PTR ds:0x129708,ebp
/home/yogi/src/os//chrisOS/asm/isr.s:347
        mov     ebp, esp
   103c7:	89 e5                	mov    ebp,esp
/home/yogi/src/os//chrisOS/asm/isr.s:348
        mov     ax, 0x16                  # save exception number
   103c9:	66 b8 16 00          	mov    ax,0x16
/home/yogi/src/os//chrisOS/asm/isr.s:349
        jmp isr_My_Common
   103cd:	e9 c8 fd ff ff       	jmp    1019a <isr_My_Common>

000103d2 <_isr_23_wrapper>:
_isr_23_wrapper():
/home/yogi/src/os//chrisOS/asm/isr.s:352
.global _isr_23_wrapper        
_isr_23_wrapper:
        mov exceptionSavedESP, esp
   103d2:	89 25 2c 97 12 00    	mov    DWORD PTR ds:0x12972c,esp
/home/yogi/src/os//chrisOS/asm/isr.s:353
        mov exceptionAX,eax
   103d8:	a3 f0 96 12 00       	mov    ds:0x1296f0,eax
/home/yogi/src/os//chrisOS/asm/isr.s:354
        mov exceptionBP, ebp
   103dd:	89 2d 08 97 12 00    	mov    DWORD PTR ds:0x129708,ebp
/home/yogi/src/os//chrisOS/asm/isr.s:355
        mov     ebp, esp
   103e3:	89 e5                	mov    ebp,esp
/home/yogi/src/os//chrisOS/asm/isr.s:356
        mov     ax, 0x17                  # save exception number
   103e5:	66 b8 17 00          	mov    ax,0x17
/home/yogi/src/os//chrisOS/asm/isr.s:357
        jmp isr_My_Common
   103e9:	e9 ac fd ff ff       	jmp    1019a <isr_My_Common>

000103ee <_isr_24_wrapper>:
_isr_24_wrapper():
/home/yogi/src/os//chrisOS/asm/isr.s:360
.global _isr_24_wrapper        
_isr_24_wrapper:
        mov exceptionSavedESP, esp
   103ee:	89 25 2c 97 12 00    	mov    DWORD PTR ds:0x12972c,esp
/home/yogi/src/os//chrisOS/asm/isr.s:361
        mov exceptionAX,eax
   103f4:	a3 f0 96 12 00       	mov    ds:0x1296f0,eax
/home/yogi/src/os//chrisOS/asm/isr.s:362
        mov exceptionBP, ebp
   103f9:	89 2d 08 97 12 00    	mov    DWORD PTR ds:0x129708,ebp
/home/yogi/src/os//chrisOS/asm/isr.s:363
        mov     ebp, esp
   103ff:	89 e5                	mov    ebp,esp
/home/yogi/src/os//chrisOS/asm/isr.s:364
        mov     ax, 0x18                  # save exception number
   10401:	66 b8 18 00          	mov    ax,0x18
/home/yogi/src/os//chrisOS/asm/isr.s:365
        jmp isr_My_Common
   10405:	e9 90 fd ff ff       	jmp    1019a <isr_My_Common>

0001040a <_isr_25_wrapper>:
_isr_25_wrapper():
/home/yogi/src/os//chrisOS/asm/isr.s:368
.global _isr_25_wrapper        
_isr_25_wrapper:
        mov exceptionSavedESP, esp
   1040a:	89 25 2c 97 12 00    	mov    DWORD PTR ds:0x12972c,esp
/home/yogi/src/os//chrisOS/asm/isr.s:369
        mov exceptionAX,eax
   10410:	a3 f0 96 12 00       	mov    ds:0x1296f0,eax
/home/yogi/src/os//chrisOS/asm/isr.s:370
        mov exceptionBP, ebp
   10415:	89 2d 08 97 12 00    	mov    DWORD PTR ds:0x129708,ebp
/home/yogi/src/os//chrisOS/asm/isr.s:371
        mov     ebp, esp
   1041b:	89 e5                	mov    ebp,esp
/home/yogi/src/os//chrisOS/asm/isr.s:372
        mov     ax, 0x19                  # save exception number
   1041d:	66 b8 19 00          	mov    ax,0x19
/home/yogi/src/os//chrisOS/asm/isr.s:373
        jmp isr_My_Common
   10421:	e9 74 fd ff ff       	jmp    1019a <isr_My_Common>

00010426 <_isr_26_wrapper>:
_isr_26_wrapper():
/home/yogi/src/os//chrisOS/asm/isr.s:376
.global _isr_26_wrapper        
_isr_26_wrapper:
        mov exceptionSavedESP, esp
   10426:	89 25 2c 97 12 00    	mov    DWORD PTR ds:0x12972c,esp
/home/yogi/src/os//chrisOS/asm/isr.s:377
        mov exceptionAX,eax
   1042c:	a3 f0 96 12 00       	mov    ds:0x1296f0,eax
/home/yogi/src/os//chrisOS/asm/isr.s:378
        mov exceptionBP, ebp
   10431:	89 2d 08 97 12 00    	mov    DWORD PTR ds:0x129708,ebp
/home/yogi/src/os//chrisOS/asm/isr.s:379
        mov     ebp, esp
   10437:	89 e5                	mov    ebp,esp
/home/yogi/src/os//chrisOS/asm/isr.s:380
        mov     ax, 0x1a                  # save exception number
   10439:	66 b8 1a 00          	mov    ax,0x1a
/home/yogi/src/os//chrisOS/asm/isr.s:381
        jmp isr_My_Common
   1043d:	e9 58 fd ff ff       	jmp    1019a <isr_My_Common>

00010442 <_isr_27_wrapper>:
_isr_27_wrapper():
/home/yogi/src/os//chrisOS/asm/isr.s:384
.global _isr_27_wrapper        
_isr_27_wrapper:
        mov exceptionSavedESP, esp
   10442:	89 25 2c 97 12 00    	mov    DWORD PTR ds:0x12972c,esp
/home/yogi/src/os//chrisOS/asm/isr.s:385
        mov exceptionAX,eax
   10448:	a3 f0 96 12 00       	mov    ds:0x1296f0,eax
/home/yogi/src/os//chrisOS/asm/isr.s:386
        mov exceptionBP, ebp
   1044d:	89 2d 08 97 12 00    	mov    DWORD PTR ds:0x129708,ebp
/home/yogi/src/os//chrisOS/asm/isr.s:387
        mov     ebp, esp
   10453:	89 e5                	mov    ebp,esp
/home/yogi/src/os//chrisOS/asm/isr.s:388
        mov     ax, 0x1b                  # save exception number
   10455:	66 b8 1b 00          	mov    ax,0x1b
/home/yogi/src/os//chrisOS/asm/isr.s:389
        jmp isr_My_Common
   10459:	e9 3c fd ff ff       	jmp    1019a <isr_My_Common>

0001045e <_isr_28_wrapper>:
_isr_28_wrapper():
/home/yogi/src/os//chrisOS/asm/isr.s:392
.global _isr_28_wrapper        
_isr_28_wrapper:
        mov exceptionSavedESP, esp
   1045e:	89 25 2c 97 12 00    	mov    DWORD PTR ds:0x12972c,esp
/home/yogi/src/os//chrisOS/asm/isr.s:393
        mov exceptionAX,eax
   10464:	a3 f0 96 12 00       	mov    ds:0x1296f0,eax
/home/yogi/src/os//chrisOS/asm/isr.s:394
        mov exceptionBP, ebp
   10469:	89 2d 08 97 12 00    	mov    DWORD PTR ds:0x129708,ebp
/home/yogi/src/os//chrisOS/asm/isr.s:395
        mov     ebp, esp
   1046f:	89 e5                	mov    ebp,esp
/home/yogi/src/os//chrisOS/asm/isr.s:396
        mov     ax, 0x1c                  # save exception number
   10471:	66 b8 1c 00          	mov    ax,0x1c
/home/yogi/src/os//chrisOS/asm/isr.s:397
        jmp isr_My_Common
   10475:	e9 20 fd ff ff       	jmp    1019a <isr_My_Common>

0001047a <_isr_29_wrapper>:
_isr_29_wrapper():
/home/yogi/src/os//chrisOS/asm/isr.s:400
.global _isr_29_wrapper        
_isr_29_wrapper:
        mov exceptionSavedESP, esp
   1047a:	89 25 2c 97 12 00    	mov    DWORD PTR ds:0x12972c,esp
/home/yogi/src/os//chrisOS/asm/isr.s:401
        mov exceptionAX,eax
   10480:	a3 f0 96 12 00       	mov    ds:0x1296f0,eax
/home/yogi/src/os//chrisOS/asm/isr.s:402
        mov exceptionBP, ebp
   10485:	89 2d 08 97 12 00    	mov    DWORD PTR ds:0x129708,ebp
/home/yogi/src/os//chrisOS/asm/isr.s:403
        mov     ebp, esp
   1048b:	89 e5                	mov    ebp,esp
/home/yogi/src/os//chrisOS/asm/isr.s:404
        mov     ax, 0x1d                  # save exception number
   1048d:	66 b8 1d 00          	mov    ax,0x1d
/home/yogi/src/os//chrisOS/asm/isr.s:405
        jmp isr_My_Common
   10491:	e9 04 fd ff ff       	jmp    1019a <isr_My_Common>

00010496 <_isr_30_wrapper>:
_isr_30_wrapper():
/home/yogi/src/os//chrisOS/asm/isr.s:408
.global _isr_30_wrapper        
_isr_30_wrapper:
        mov exceptionSavedESP, esp
   10496:	89 25 2c 97 12 00    	mov    DWORD PTR ds:0x12972c,esp
/home/yogi/src/os//chrisOS/asm/isr.s:409
        mov exceptionAX,eax
   1049c:	a3 f0 96 12 00       	mov    ds:0x1296f0,eax
/home/yogi/src/os//chrisOS/asm/isr.s:410
        mov exceptionBP, ebp
   104a1:	89 2d 08 97 12 00    	mov    DWORD PTR ds:0x129708,ebp
/home/yogi/src/os//chrisOS/asm/isr.s:411
        mov     ebp, esp
   104a7:	89 e5                	mov    ebp,esp
/home/yogi/src/os//chrisOS/asm/isr.s:412
        mov     ax, 0x1e                  # save exception number
   104a9:	66 b8 1e 00          	mov    ax,0x1e
/home/yogi/src/os//chrisOS/asm/isr.s:413
        jmp isr_My_Common
   104ad:	e9 e8 fc ff ff       	jmp    1019a <isr_My_Common>

000104b2 <_isr_31_wrapper>:
_isr_31_wrapper():
/home/yogi/src/os//chrisOS/asm/isr.s:416
.global _isr_31_wrapper        
_isr_31_wrapper:                            #DEBUG EXCEPTION
cli
   104b2:	fa                   	cli    
/home/yogi/src/os//chrisOS/asm/isr.s:417
    mov debugBP,ebp
   104b3:	89 2d 60 97 12 00    	mov    DWORD PTR ds:0x129760,ebp
/home/yogi/src/os//chrisOS/asm/isr.s:418
    mov debugSavedESP, esp
   104b9:	89 25 84 97 12 00    	mov    DWORD PTR ds:0x129784,esp
/home/yogi/src/os//chrisOS/asm/isr.s:419
    mov debugESP,esp
   104bf:	89 25 1c 00 01 00    	mov    DWORD PTR ds:0x1001c,esp
/home/yogi/src/os//chrisOS/asm/isr.s:420
    pushad
   104c5:	60                   	pusha  
/home/yogi/src/os//chrisOS/asm/isr.s:421
    mov ebp, debugESP
   104c6:	8b 2d 1c 00 01 00    	mov    ebp,DWORD PTR ds:0x1001c
/home/yogi/src/os//chrisOS/asm/isr.s:423
    
    mov debugBX, ebx
   104cc:	89 1d 4c 97 12 00    	mov    DWORD PTR ds:0x12974c,ebx
/home/yogi/src/os//chrisOS/asm/isr.s:424
    mov ebx,debugSavedESP
   104d2:	8b 1d 84 97 12 00    	mov    ebx,DWORD PTR ds:0x129784
/home/yogi/src/os//chrisOS/asm/isr.s:425
    add ebx,12
   104d8:	83 c3 0c             	add    ebx,0xc
/home/yogi/src/os//chrisOS/asm/isr.s:426
    mov debugSavedESP,ebx
   104db:	89 1d 84 97 12 00    	mov    DWORD PTR ds:0x129784,ebx
/home/yogi/src/os//chrisOS/asm/isr.s:427
    mov ebx, [ebp+8]
   104e1:	8b 5d 08             	mov    ebx,DWORD PTR [ebp+0x8]
/home/yogi/src/os//chrisOS/asm/isr.s:428
    mov debugFlags, ebx
   104e4:	89 1d 88 97 12 00    	mov    DWORD PTR ds:0x129788,ebx
/home/yogi/src/os//chrisOS/asm/isr.s:429
    mov debugReturnFlags,ebx
   104ea:	89 1d 14 00 01 00    	mov    DWORD PTR ds:0x10014,ebx
/home/yogi/src/os//chrisOS/asm/isr.s:430
    movw bx, [ebp+4]
   104f0:	66 8b 5d 04          	mov    bx,WORD PTR [ebp+0x4]
/home/yogi/src/os//chrisOS/asm/isr.s:431
    movw debugCS, bx
   104f4:	66 89 1d 90 97 12 00 	mov    WORD PTR ds:0x129790,bx
/home/yogi/src/os//chrisOS/asm/isr.s:432
    mov ebx, [ebp+0]
   104fb:	8b 5d 00             	mov    ebx,DWORD PTR [ebp+0x0]
/home/yogi/src/os//chrisOS/asm/isr.s:433
    mov debugEIP, ebx
   104fe:	89 1d 94 97 12 00    	mov    DWORD PTR ds:0x129794,ebx
/home/yogi/src/os//chrisOS/asm/isr.s:435

    mov debugCX, ecx
   10504:	89 0d 50 97 12 00    	mov    DWORD PTR ds:0x129750,ecx
/home/yogi/src/os//chrisOS/asm/isr.s:436
    mov debugDX, edx
   1050a:	89 15 54 97 12 00    	mov    DWORD PTR ds:0x129754,edx
/home/yogi/src/os//chrisOS/asm/isr.s:437
    mov debugSI, esi
   10510:	89 35 58 97 12 00    	mov    DWORD PTR ds:0x129758,esi
/home/yogi/src/os//chrisOS/asm/isr.s:438
    mov debugDI, edi
   10516:	89 3d 5c 97 12 00    	mov    DWORD PTR ds:0x12975c,edi
/home/yogi/src/os//chrisOS/asm/isr.s:439
    mov debugAX,eax
   1051c:	a3 48 97 12 00       	mov    ds:0x129748,eax
/home/yogi/src/os//chrisOS/asm/isr.s:441

    mov ax,ds
   10521:	66 8c d8             	mov    ax,ds
/home/yogi/src/os//chrisOS/asm/isr.s:442
    mov debugDS,eax
   10524:	a3 70 97 12 00       	mov    ds:0x129770,eax
/home/yogi/src/os//chrisOS/asm/isr.s:443
    mov eax, cr0
   10529:	0f 20 c0             	mov    eax,cr0
/home/yogi/src/os//chrisOS/asm/isr.s:444
    mov debugCR0, eax
   1052c:	a3 64 97 12 00       	mov    ds:0x129764,eax
/home/yogi/src/os//chrisOS/asm/isr.s:445
    mov eax, cr3
   10531:	0f 20 d8             	mov    eax,cr3
/home/yogi/src/os//chrisOS/asm/isr.s:446
    mov debugCR3, eax
   10534:	a3 68 97 12 00       	mov    ds:0x129768,eax
/home/yogi/src/os//chrisOS/asm/isr.s:447
    mov eax, cr4
   10539:	0f 20 e0             	mov    eax,cr4
/home/yogi/src/os//chrisOS/asm/isr.s:448
    mov debugCR4, eax
   1053c:	a3 6c 97 12 00       	mov    ds:0x12976c,eax
/home/yogi/src/os//chrisOS/asm/isr.s:449
    mov eax,es
   10541:	8c c0                	mov    eax,es
/home/yogi/src/os//chrisOS/asm/isr.s:450
    mov debugES,eax
   10543:	a3 74 97 12 00       	mov    ds:0x129774,eax
/home/yogi/src/os//chrisOS/asm/isr.s:451
    mov eax,fs
   10548:	8c e0                	mov    eax,fs
/home/yogi/src/os//chrisOS/asm/isr.s:452
    mov debugFS,eax
   1054a:	a3 78 97 12 00       	mov    ds:0x129778,eax
/home/yogi/src/os//chrisOS/asm/isr.s:453
    mov eax,gs
   1054f:	8c e8                	mov    eax,gs
/home/yogi/src/os//chrisOS/asm/isr.s:454
    mov debugGS,eax
   10551:	a3 7c 97 12 00       	mov    ds:0x12977c,eax
/home/yogi/src/os//chrisOS/asm/isr.s:455
    mov eax,ss
   10556:	8c d0                	mov    eax,ss
/home/yogi/src/os//chrisOS/asm/isr.s:456
    mov debugSS,eax
   10558:	a3 80 97 12 00       	mov    ds:0x129780,eax
/home/yogi/src/os//chrisOS/asm/isr.s:458

    mov esi, debugSavedESP
   1055d:	8b 35 84 97 12 00    	mov    esi,DWORD PTR ds:0x129784
/home/yogi/src/os//chrisOS/asm/isr.s:459
    mov edi, debugSavedStack
   10563:	8b 3d ec 96 12 00    	mov    edi,DWORD PTR ds:0x1296ec
/home/yogi/src/os//chrisOS/asm/isr.s:460
    mov cx, 30
   10569:	66 b9 1e 00          	mov    cx,0x1e
/home/yogi/src/os//chrisOS/asm/isr.s:461
    cld
   1056d:	fc                   	cld    
/home/yogi/src/os//chrisOS/asm/isr.s:462
    rep movsd
   1056e:	f3 a5                	rep movs DWORD PTR es:[edi],DWORD PTR ds:[esi]
/home/yogi/src/os//chrisOS/asm/isr.s:463
    call debugStep
   10570:	e8 8c ab 00 00       	call   1b101 <debugStep>
/home/yogi/src/os//chrisOS/asm/isr.s:464
    popa
   10575:	61                   	popa   
/home/yogi/src/os//chrisOS/asm/isr.s:465
    sti
   10576:	fb                   	sti    
/home/yogi/src/os//chrisOS/asm/isr.s:466
    iretd
   10577:	cf                   	iret   

00010578 <_isr_32_wrapper>:
_isr_32_wrapper():
/home/yogi/src/os//chrisOS/asm/isr.s:469
.global _isr_32_wrapper        
_isr_32_wrapper:
        mov exceptionSavedESP, esp
   10578:	89 25 2c 97 12 00    	mov    DWORD PTR ds:0x12972c,esp
/home/yogi/src/os//chrisOS/asm/isr.s:470
        mov exceptionAX,eax
   1057e:	a3 f0 96 12 00       	mov    ds:0x1296f0,eax
/home/yogi/src/os//chrisOS/asm/isr.s:471
        mov exceptionBP, ebp
   10583:	89 2d 08 97 12 00    	mov    DWORD PTR ds:0x129708,ebp
/home/yogi/src/os//chrisOS/asm/isr.s:472
        mov     ebp, esp
   10589:	89 e5                	mov    ebp,esp
/home/yogi/src/os//chrisOS/asm/isr.s:473
        mov     ax, 0x20                  # save exception number
   1058b:	66 b8 20 00          	mov    ax,0x20
/home/yogi/src/os//chrisOS/asm/isr.s:474
        jmp isr_My_Common
   1058f:	e9 06 fc ff ff       	jmp    1019a <isr_My_Common>

00010594 <_irq0_handler>:
_irq0_handler():
/home/yogi/src/os//chrisOS/asm/isr.s:479


.global _irq0_handler
_irq0_handler:                #remapped to 0x08
cli
   10594:	fa                   	cli    
/home/yogi/src/os//chrisOS/asm/isr.s:481
#cli;hlt;
        push    ebp
   10595:	55                   	push   ebp
/home/yogi/src/os//chrisOS/asm/isr.s:482
        pushf
   10596:	9c                   	pushf  
/home/yogi/src/os//chrisOS/asm/isr.s:483
        mov     ebp, esp
   10597:	89 e5                	mov    ebp,esp
/home/yogi/src/os//chrisOS/asm/isr.s:484
        add ebp,4
   10599:	83 c5 04             	add    ebp,0x4
/home/yogi/src/os//chrisOS/asm/isr.s:485
        push eax
   1059c:	50                   	push   eax
/home/yogi/src/os//chrisOS/asm/isr.s:486
        mov ax,0xFFFF
   1059d:	66 b8 ff ff          	mov    ax,0xffff
/home/yogi/src/os//chrisOS/asm/isr.s:487
cld
   105a1:	fc                   	cld    
/home/yogi/src/os//chrisOS/asm/isr.s:489
#cld #C code following the sysV ABI requires DF to be clear on function entry
        push    ebx
   105a2:	53                   	push   ebx
/home/yogi/src/os//chrisOS/asm/isr.s:490
        mov ebx, [ebp+12]
   105a3:	8b 5d 0c             	mov    ebx,DWORD PTR [ebp+0xc]
/home/yogi/src/os//chrisOS/asm/isr.s:491
        mov exceptionFlags, ebx
   105a6:	89 1d 30 97 12 00    	mov    DWORD PTR ds:0x129730,ebx
/home/yogi/src/os//chrisOS/asm/isr.s:492
        mov bx, [ebp+8]
   105ac:	66 8b 5d 08          	mov    bx,WORD PTR [ebp+0x8]
/home/yogi/src/os//chrisOS/asm/isr.s:493
        mov exceptionCS, bx
   105b0:	66 89 1d 3c 97 12 00 	mov    WORD PTR ds:0x12973c,bx
/home/yogi/src/os//chrisOS/asm/isr.s:494
        mov ebx, [ebp+4]
   105b7:	8b 5d 04             	mov    ebx,DWORD PTR [ebp+0x4]
/home/yogi/src/os//chrisOS/asm/isr.s:495
        mov exceptionEIP, ebx
   105ba:	89 1d 38 97 12 00    	mov    DWORD PTR ds:0x129738,ebx
/home/yogi/src/os//chrisOS/asm/isr.s:496
        pop ebx
   105c0:	5b                   	pop    ebx
/home/yogi/src/os//chrisOS/asm/isr.s:497
        pushad                          # other regs because its an ISR
   105c1:	60                   	pusha  
/home/yogi/src/os//chrisOS/asm/isr.s:498
         mov     bx, 0x10
   105c2:	66 bb 10 00          	mov    bx,0x10
/home/yogi/src/os//chrisOS/asm/isr.s:499
        mov     ds, bx
   105c6:	8e db                	mov    ds,ebx
/home/yogi/src/os//chrisOS/asm/isr.s:500
        mov     es, bx                  # load ds and es with valid selector
   105c8:	8e c3                	mov    es,ebx
/home/yogi/src/os//chrisOS/asm/isr.s:501
	mov     gs, bx
   105ca:	8e eb                	mov    gs,ebx
/home/yogi/src/os//chrisOS/asm/isr.s:502
        call    irq0_handler          # call actual ISR code
   105cc:	e8 83 8f 00 00       	call   19554 <irq0_handler>
/home/yogi/src/os//chrisOS/asm/isr.s:503
        popad  
   105d1:	61                   	popa   
/home/yogi/src/os//chrisOS/asm/isr.s:504
mov al,0x20
   105d2:	b0 20                	mov    al,0x20
/home/yogi/src/os//chrisOS/asm/isr.s:505
out 0x20,al
   105d4:	e6 20                	out    0x20,al
/home/yogi/src/os//chrisOS/asm/isr.s:508
//mov eax,0
//mov [0xa000B0],eax
        pop eax
   105d6:	58                   	pop    eax
/home/yogi/src/os//chrisOS/asm/isr.s:509
        popf
   105d7:	9d                   	popf   
/home/yogi/src/os//chrisOS/asm/isr.s:510
        pop ebp                         # restoring the regs
   105d8:	5d                   	pop    ebp
/home/yogi/src/os//chrisOS/asm/isr.s:511
        sti
   105d9:	fb                   	sti    
/home/yogi/src/os//chrisOS/asm/isr.s:512
        iretd
   105da:	cf                   	iret   

000105db <_isr_01_wrapper>:
_isr_01_wrapper():
/home/yogi/src/os//chrisOS/asm/isr.s:515
.global _isr_01_wrapper        
_isr_01_wrapper:                #KEYBOARD HANDLER
cli
   105db:	fa                   	cli    
/home/yogi/src/os//chrisOS/asm/isr.s:520
#cli;hlt;
        //clear the trap flag if it is set
        //we'll re-set it later if need be
        //andw [esp+8],0xFEFF
        mov exceptionAX, eax
   105dc:	a3 f0 96 12 00       	mov    ds:0x1296f0,eax
/home/yogi/src/os//chrisOS/asm/isr.s:521
        mov exceptionBX, ebx
   105e1:	89 1d f4 96 12 00    	mov    DWORD PTR ds:0x1296f4,ebx
/home/yogi/src/os//chrisOS/asm/isr.s:522
        mov exceptionCX, ecx
   105e7:	89 0d f8 96 12 00    	mov    DWORD PTR ds:0x1296f8,ecx
/home/yogi/src/os//chrisOS/asm/isr.s:523
        mov exceptionDX, edx
   105ed:	89 15 fc 96 12 00    	mov    DWORD PTR ds:0x1296fc,edx
/home/yogi/src/os//chrisOS/asm/isr.s:524
        mov exceptionSI, esi
   105f3:	89 35 00 97 12 00    	mov    DWORD PTR ds:0x129700,esi
/home/yogi/src/os//chrisOS/asm/isr.s:525
        mov exceptionDI, edi
   105f9:	89 3d 04 97 12 00    	mov    DWORD PTR ds:0x129704,edi
/home/yogi/src/os//chrisOS/asm/isr.s:526
        str exceptionTR
   105ff:	0f 00 0d 44 97 12 00 	str    WORD PTR ds:0x129744
/home/yogi/src/os//chrisOS/asm/isr.s:527
        mov exceptionBP, ebp
   10606:	89 2d 08 97 12 00    	mov    DWORD PTR ds:0x129708,ebp
/home/yogi/src/os//chrisOS/asm/isr.s:528
        mov eax, cr0
   1060c:	0f 20 c0             	mov    eax,cr0
/home/yogi/src/os//chrisOS/asm/isr.s:529
        mov exceptionCR0, eax
   1060f:	a3 0c 97 12 00       	mov    ds:0x12970c,eax
/home/yogi/src/os//chrisOS/asm/isr.s:530
        mov eax, cr3
   10614:	0f 20 d8             	mov    eax,cr3
/home/yogi/src/os//chrisOS/asm/isr.s:531
        mov exceptionCR3, eax
   10617:	a3 10 97 12 00       	mov    ds:0x129710,eax
/home/yogi/src/os//chrisOS/asm/isr.s:532
        mov eax, cr4
   1061c:	0f 20 e0             	mov    eax,cr4
/home/yogi/src/os//chrisOS/asm/isr.s:533
        mov exceptionCR4, eax
   1061f:	a3 14 97 12 00       	mov    ds:0x129714,eax
/home/yogi/src/os//chrisOS/asm/isr.s:534
        mov eax, exceptionAX
   10624:	a1 f0 96 12 00       	mov    eax,ds:0x1296f0
/home/yogi/src/os//chrisOS/asm/isr.s:535
        pushad
   10629:	60                   	pusha  
/home/yogi/src/os//chrisOS/asm/isr.s:536
        pushf
   1062a:	9c                   	pushf  
/home/yogi/src/os//chrisOS/asm/isr.s:537
        mov     ebp, esp
   1062b:	89 e5                	mov    ebp,esp
/home/yogi/src/os//chrisOS/asm/isr.s:538
        add ebp,36
   1062d:	83 c5 24             	add    ebp,0x24
/home/yogi/src/os//chrisOS/asm/isr.s:539
        mov ax,0x0001
   10630:	66 b8 01 00          	mov    ax,0x1
/home/yogi/src/os//chrisOS/asm/isr.s:540
cld
   10634:	fc                   	cld    
/home/yogi/src/os//chrisOS/asm/isr.s:542
#cld #C code following the sysV ABI requires DF to be clear on function entry
        mov ebx, [ebp+8]
   10635:	8b 5d 08             	mov    ebx,DWORD PTR [ebp+0x8]
/home/yogi/src/os//chrisOS/asm/isr.s:543
        mov exceptionFlags, ebx
   10638:	89 1d 30 97 12 00    	mov    DWORD PTR ds:0x129730,ebx
/home/yogi/src/os//chrisOS/asm/isr.s:544
        mov bx, [ebp+4]
   1063e:	66 8b 5d 04          	mov    bx,WORD PTR [ebp+0x4]
/home/yogi/src/os//chrisOS/asm/isr.s:545
        mov exceptionCS, bx
   10642:	66 89 1d 3c 97 12 00 	mov    WORD PTR ds:0x12973c,bx
/home/yogi/src/os//chrisOS/asm/isr.s:546
        mov ebx, [ebp+0]
   10649:	8b 5d 00             	mov    ebx,DWORD PTR [ebp+0x0]
/home/yogi/src/os//chrisOS/asm/isr.s:547
        mov exceptionEIP, ebx
   1064c:	89 1d 38 97 12 00    	mov    DWORD PTR ds:0x129738,ebx
/home/yogi/src/os//chrisOS/asm/isr.s:548
        mov     bx, 0x10
   10652:	66 bb 10 00          	mov    bx,0x10
/home/yogi/src/os//chrisOS/asm/isr.s:549
        mov     ds, bx
   10656:	8e db                	mov    ds,ebx
/home/yogi/src/os//chrisOS/asm/isr.s:550
        mov     es, bx                  # load ds and es with valid selector
   10658:	8e c3                	mov    es,ebx
/home/yogi/src/os//chrisOS/asm/isr.s:551
	mov     gs, bx
   1065a:	8e eb                	mov    gs,ebx
/home/yogi/src/os//chrisOS/asm/isr.s:552
        call    kbd_handler          # call actual ISR code
   1065c:	e8 3e 90 00 00       	call   1969f <kbd_handler>
/home/yogi/src/os//chrisOS/asm/isr.s:553
        popf
   10661:	9d                   	popf   
/home/yogi/src/os//chrisOS/asm/isr.s:554
        popad  
   10662:	61                   	popa   
/home/yogi/src/os//chrisOS/asm/isr.s:555
mov al,0x20
   10663:	b0 20                	mov    al,0x20
/home/yogi/src/os//chrisOS/asm/isr.s:556
out 0x20,al
   10665:	e6 20                	out    0x20,al
/home/yogi/src/os//chrisOS/asm/isr.s:557
        mov     al,kKbdHandlerActivateDebugger
   10667:	a0 74 65 09 00       	mov    al,ds:0x96574
/home/yogi/src/os//chrisOS/asm/isr.s:558
        cmp     al,1
   1066c:	3c 01                	cmp    al,0x1
/home/yogi/src/os//chrisOS/asm/isr.s:559
        jne done
   1066e:	75 13                	jne    10683 <done>
/home/yogi/src/os//chrisOS/asm/isr.s:560
        orw [esp+8],0x100
   10670:	66 81 4c 24 08 00 01 	or     WORD PTR [esp+0x8],0x100
/home/yogi/src/os//chrisOS/asm/isr.s:561
        mov al,0
   10677:	b0 00                	mov    al,0x0
/home/yogi/src/os//chrisOS/asm/isr.s:562
        mov kKbdHandlerActivateDebugger,al
   10679:	a2 74 65 09 00       	mov    ds:0x96574,al
/home/yogi/src/os//chrisOS/asm/isr.s:563
        mov eax,exceptionAX
   1067e:	a1 f0 96 12 00       	mov    eax,ds:0x1296f0

00010683 <done>:
done():
/home/yogi/src/os//chrisOS/asm/isr.s:565
done:
        sti
   10683:	fb                   	sti    
/home/yogi/src/os//chrisOS/asm/isr.s:566
        iretd
   10684:	cf                   	iret   

00010685 <_call_gate_wrapper>:
_call_gate_wrapper():
/home/yogi/src/os//chrisOS/asm/isr.s:571


.global _call_gate_wrapper
_call_gate_wrapper:
        push    ds
   10685:	1e                   	push   ds
/home/yogi/src/os//chrisOS/asm/isr.s:572
        push    es                      # saving segment registers and
   10686:	06                   	push   es
/home/yogi/src/os//chrisOS/asm/isr.s:573
        pushad                          # other regs because its an ISR
   10687:	60                   	pusha  
/home/yogi/src/os//chrisOS/asm/isr.s:575
 #       call    call_gate_proc
        popad                           # restoring the regs
   10688:	61                   	popa   
/home/yogi/src/os//chrisOS/asm/isr.s:576
        pop     es
   10689:	07                   	pop    es
/home/yogi/src/os//chrisOS/asm/isr.s:577
        pop     ds
   1068a:	1f                   	pop    ds
/home/yogi/src/os//chrisOS/asm/isr.s:578
        retf
   1068b:	cb                   	retf   

0001068c <_isr_has_errorCode>:
	...
_isr_has_errorCode():
   10694:	01 00                	add    DWORD PTR [eax],eax
   10696:	01 01                	add    DWORD PTR [ecx],eax
   10698:	01 01                	add    DWORD PTR [ecx],eax
   1069a:	01 00                	add    DWORD PTR [eax],eax
   1069c:	00 01                	add    BYTE PTR [ecx],al
	...

000106ac <_ltr>:
_ltr():
/home/yogi/src/os//chrisOS/asm/isr.s:584

        _isr_has_errorCode:  .byte      0,0,0,0,0,0,0,0, 1,0,1,1,1,1,1,0
                             .byte      0,1,0,0,0,0,0,0, 0,0,0,0,0,0,0,0
.global _ltr
_ltr:
		push ax
   106ac:	66 50                	push   ax
/home/yogi/src/os//chrisOS/asm/isr.s:585
		mov ax, 0x58
   106ae:	66 b8 58 00          	mov    ax,0x58
/home/yogi/src/os//chrisOS/asm/isr.s:586
        ltr     ax
   106b2:	0f 00 d8             	ltr    ax
/home/yogi/src/os//chrisOS/asm/isr.s:587
        pop ax
   106b5:	66 58                	pop    ax
/home/yogi/src/os//chrisOS/asm/isr.s:588
        ret
   106b7:	c3                   	ret    

000106b8 <strftime>:
strftime():
/home/yogi/src/os//chrisOS/src/char/console/strftime.c:58

static char *_fmt(const char *format, const struct tm *t, char *pt, const char *ptlim);
static char *_conv(const int n, char *format, char *pt, const char *ptlim);
static char *_add(const char *str, char *pt, const char *ptlim);

size_t HIGH_CODE_SECTION strftime(char *s, size_t maxsize, const char *format, const struct tm *t) {
   106b8:	55                   	push   ebp
   106b9:	89 e5                	mov    ebp,esp
   106bb:	83 ec 18             	sub    esp,0x18
/home/yogi/src/os//chrisOS/src/char/console/strftime.c:61
  char *p;

  p = _fmt(((format == NULL) ? "%c" : format), t, s, s + maxsize);
   106be:	8b 55 08             	mov    edx,DWORD PTR [ebp+0x8]
   106c1:	8b 45 0c             	mov    eax,DWORD PTR [ebp+0xc]
   106c4:	01 c2                	add    edx,eax
   106c6:	83 7d 10 00          	cmp    DWORD PTR [ebp+0x10],0x0
   106ca:	74 05                	je     106d1 <strftime+0x19>
/home/yogi/src/os//chrisOS/src/char/console/strftime.c:61 (discriminator 1)
   106cc:	8b 45 10             	mov    eax,DWORD PTR [ebp+0x10]
   106cf:	eb 05                	jmp    106d6 <strftime+0x1e>
/home/yogi/src/os//chrisOS/src/char/console/strftime.c:61 (discriminator 2)
   106d1:	b8 00 50 04 00       	mov    eax,0x45000
/home/yogi/src/os//chrisOS/src/char/console/strftime.c:61 (discriminator 4)
   106d6:	52                   	push   edx
   106d7:	ff 75 08             	push   DWORD PTR [ebp+0x8]
   106da:	ff 75 14             	push   DWORD PTR [ebp+0x14]
   106dd:	50                   	push   eax
   106de:	e8 2c 00 00 00       	call   1070f <_fmt>
   106e3:	83 c4 10             	add    esp,0x10
   106e6:	89 45 f4             	mov    DWORD PTR [ebp-0xc],eax
/home/yogi/src/os//chrisOS/src/char/console/strftime.c:62 (discriminator 4)
  if (p == s + maxsize) return 0;
   106e9:	8b 55 08             	mov    edx,DWORD PTR [ebp+0x8]
   106ec:	8b 45 0c             	mov    eax,DWORD PTR [ebp+0xc]
   106ef:	01 d0                	add    eax,edx
   106f1:	3b 45 f4             	cmp    eax,DWORD PTR [ebp-0xc]
   106f4:	75 07                	jne    106fd <strftime+0x45>
/home/yogi/src/os//chrisOS/src/char/console/strftime.c:62 (discriminator 1)
   106f6:	b8 00 00 00 00       	mov    eax,0x0
   106fb:	eb 10                	jmp    1070d <strftime+0x55>
/home/yogi/src/os//chrisOS/src/char/console/strftime.c:63
  *p = '\0';
   106fd:	8b 45 f4             	mov    eax,DWORD PTR [ebp-0xc]
   10700:	c6 00 00             	mov    BYTE PTR [eax],0x0
/home/yogi/src/os//chrisOS/src/char/console/strftime.c:64
  return p - s;
   10703:	8b 55 f4             	mov    edx,DWORD PTR [ebp-0xc]
   10706:	8b 45 08             	mov    eax,DWORD PTR [ebp+0x8]
   10709:	29 c2                	sub    edx,eax
   1070b:	89 d0                	mov    eax,edx
/home/yogi/src/os//chrisOS/src/char/console/strftime.c:65
}
   1070d:	c9                   	leave  
   1070e:	c3                   	ret    

0001070f <_fmt>:
_fmt():
/home/yogi/src/os//chrisOS/src/char/console/strftime.c:67

static HIGH_CODE_SECTION char *_fmt(const char *format, const struct tm *t, char *pt, const char *ptlim) {
   1070f:	55                   	push   ebp
   10710:	89 e5                	mov    ebp,esp
   10712:	53                   	push   ebx
   10713:	83 ec 74             	sub    esp,0x74
/home/yogi/src/os//chrisOS/src/char/console/strftime.c:68
  for ( ; *format; ++format) {
   10716:	e9 68 0a 00 00       	jmp    11183 <_fmt+0xa74>
/home/yogi/src/os//chrisOS/src/char/console/strftime.c:69
    if (*format == '%') {
   1071b:	8b 45 08             	mov    eax,DWORD PTR [ebp+0x8]
   1071e:	0f b6 00             	movzx  eax,BYTE PTR [eax]
   10721:	3c 25                	cmp    al,0x25
   10723:	0f 85 3d 0a 00 00    	jne    11166 <_fmt+0xa57>
/home/yogi/src/os//chrisOS/src/char/console/strftime.c:70
      if (*format == 'E') {
   10729:	8b 45 08             	mov    eax,DWORD PTR [ebp+0x8]
   1072c:	0f b6 00             	movzx  eax,BYTE PTR [eax]
   1072f:	3c 45                	cmp    al,0x45
   10731:	75 06                	jne    10739 <_fmt+0x2a>
/home/yogi/src/os//chrisOS/src/char/console/strftime.c:71
        format++; // Alternate Era
   10733:	83 45 08 01          	add    DWORD PTR [ebp+0x8],0x1
   10737:	eb 0e                	jmp    10747 <_fmt+0x38>
/home/yogi/src/os//chrisOS/src/char/console/strftime.c:72
      } else if (*format == 'O') {
   10739:	8b 45 08             	mov    eax,DWORD PTR [ebp+0x8]
   1073c:	0f b6 00             	movzx  eax,BYTE PTR [eax]
   1073f:	3c 4f                	cmp    al,0x4f
   10741:	75 04                	jne    10747 <_fmt+0x38>
/home/yogi/src/os//chrisOS/src/char/console/strftime.c:73
        format++; // Alternate numeric symbols
   10743:	83 45 08 01          	add    DWORD PTR [ebp+0x8],0x1
/home/yogi/src/os//chrisOS/src/char/console/strftime.c:76
      }

      switch (*++format) {
   10747:	83 45 08 01          	add    DWORD PTR [ebp+0x8],0x1
   1074b:	8b 45 08             	mov    eax,DWORD PTR [ebp+0x8]
   1074e:	0f b6 00             	movzx  eax,BYTE PTR [eax]
   10751:	0f be c0             	movsx  eax,al
   10754:	83 f8 7a             	cmp    eax,0x7a
   10757:	0f 87 08 0a 00 00    	ja     11165 <_fmt+0xa56>
   1075d:	8b 04 85 94 50 04 00 	mov    eax,DWORD PTR [eax*4+0x45094]
   10764:	ff e0                	jmp    eax
/home/yogi/src/os//chrisOS/src/char/console/strftime.c:78
        case '\0':
          --format;
   10766:	83 6d 08 01          	sub    DWORD PTR [ebp+0x8],0x1
/home/yogi/src/os//chrisOS/src/char/console/strftime.c:79
          break;
   1076a:	e9 f7 09 00 00       	jmp    11166 <_fmt+0xa57>
/home/yogi/src/os//chrisOS/src/char/console/strftime.c:82

        case 'A':
          pt = _add((t->tm_wday < 0 || t->tm_wday > 6) ? "?" : _days[t->tm_wday], pt, ptlim);
   1076f:	8b 45 0c             	mov    eax,DWORD PTR [ebp+0xc]
   10772:	8b 40 18             	mov    eax,DWORD PTR [eax+0x18]
   10775:	85 c0                	test   eax,eax
   10777:	78 1a                	js     10793 <_fmt+0x84>
/home/yogi/src/os//chrisOS/src/char/console/strftime.c:82 (discriminator 1)
   10779:	8b 45 0c             	mov    eax,DWORD PTR [ebp+0xc]
   1077c:	8b 40 18             	mov    eax,DWORD PTR [eax+0x18]
   1077f:	83 f8 06             	cmp    eax,0x6
   10782:	7f 0f                	jg     10793 <_fmt+0x84>
/home/yogi/src/os//chrisOS/src/char/console/strftime.c:82 (discriminator 3)
   10784:	8b 45 0c             	mov    eax,DWORD PTR [ebp+0xc]
   10787:	8b 40 18             	mov    eax,DWORD PTR [eax+0x18]
   1078a:	8b 04 85 9c 99 12 00 	mov    eax,DWORD PTR [eax*4+0x12999c]
   10791:	eb 05                	jmp    10798 <_fmt+0x89>
/home/yogi/src/os//chrisOS/src/char/console/strftime.c:82 (discriminator 4)
   10793:	b8 03 50 04 00       	mov    eax,0x45003
/home/yogi/src/os//chrisOS/src/char/console/strftime.c:82 (discriminator 6)
   10798:	83 ec 04             	sub    esp,0x4
   1079b:	ff 75 14             	push   DWORD PTR [ebp+0x14]
   1079e:	ff 75 10             	push   DWORD PTR [ebp+0x10]
   107a1:	50                   	push   eax
   107a2:	e8 27 0a 00 00       	call   111ce <_add>
   107a7:	83 c4 10             	add    esp,0x10
   107aa:	89 45 10             	mov    DWORD PTR [ebp+0x10],eax
/home/yogi/src/os//chrisOS/src/char/console/strftime.c:83 (discriminator 6)
          continue;
   107ad:	e9 cd 09 00 00       	jmp    1117f <_fmt+0xa70>
/home/yogi/src/os//chrisOS/src/char/console/strftime.c:86

        case 'a':
          pt = _add((t->tm_wday < 0 || t->tm_wday > 6) ? "?" : _days_abbrev[t->tm_wday], pt, ptlim);
   107b2:	8b 45 0c             	mov    eax,DWORD PTR [ebp+0xc]
   107b5:	8b 40 18             	mov    eax,DWORD PTR [eax+0x18]
   107b8:	85 c0                	test   eax,eax
   107ba:	78 1a                	js     107d6 <_fmt+0xc7>
/home/yogi/src/os//chrisOS/src/char/console/strftime.c:86 (discriminator 1)
   107bc:	8b 45 0c             	mov    eax,DWORD PTR [ebp+0xc]
   107bf:	8b 40 18             	mov    eax,DWORD PTR [eax+0x18]
   107c2:	83 f8 06             	cmp    eax,0x6
   107c5:	7f 0f                	jg     107d6 <_fmt+0xc7>
/home/yogi/src/os//chrisOS/src/char/console/strftime.c:86 (discriminator 3)
   107c7:	8b 45 0c             	mov    eax,DWORD PTR [ebp+0xc]
   107ca:	8b 40 18             	mov    eax,DWORD PTR [eax+0x18]
   107cd:	8b 04 85 b8 99 12 00 	mov    eax,DWORD PTR [eax*4+0x1299b8]
   107d4:	eb 05                	jmp    107db <_fmt+0xcc>
/home/yogi/src/os//chrisOS/src/char/console/strftime.c:86 (discriminator 4)
   107d6:	b8 03 50 04 00       	mov    eax,0x45003
/home/yogi/src/os//chrisOS/src/char/console/strftime.c:86 (discriminator 6)
   107db:	83 ec 04             	sub    esp,0x4
   107de:	ff 75 14             	push   DWORD PTR [ebp+0x14]
   107e1:	ff 75 10             	push   DWORD PTR [ebp+0x10]
   107e4:	50                   	push   eax
   107e5:	e8 e4 09 00 00       	call   111ce <_add>
   107ea:	83 c4 10             	add    esp,0x10
   107ed:	89 45 10             	mov    DWORD PTR [ebp+0x10],eax
/home/yogi/src/os//chrisOS/src/char/console/strftime.c:87 (discriminator 6)
          continue;
   107f0:	e9 8a 09 00 00       	jmp    1117f <_fmt+0xa70>
/home/yogi/src/os//chrisOS/src/char/console/strftime.c:90

        case 'B':
          pt = _add((t->tm_mon < 0 || t->tm_mon > 11) ? "?" : _months[t->tm_mon], pt, ptlim);
   107f5:	8b 45 0c             	mov    eax,DWORD PTR [ebp+0xc]
   107f8:	8b 40 10             	mov    eax,DWORD PTR [eax+0x10]
   107fb:	85 c0                	test   eax,eax
   107fd:	78 1a                	js     10819 <_fmt+0x10a>
/home/yogi/src/os//chrisOS/src/char/console/strftime.c:90 (discriminator 1)
   107ff:	8b 45 0c             	mov    eax,DWORD PTR [ebp+0xc]
   10802:	8b 40 10             	mov    eax,DWORD PTR [eax+0x10]
   10805:	83 f8 0b             	cmp    eax,0xb
   10808:	7f 0f                	jg     10819 <_fmt+0x10a>
/home/yogi/src/os//chrisOS/src/char/console/strftime.c:90 (discriminator 3)
   1080a:	8b 45 0c             	mov    eax,DWORD PTR [ebp+0xc]
   1080d:	8b 40 10             	mov    eax,DWORD PTR [eax+0x10]
   10810:	8b 04 85 e0 99 12 00 	mov    eax,DWORD PTR [eax*4+0x1299e0]
   10817:	eb 05                	jmp    1081e <_fmt+0x10f>
/home/yogi/src/os//chrisOS/src/char/console/strftime.c:90 (discriminator 4)
   10819:	b8 03 50 04 00       	mov    eax,0x45003
/home/yogi/src/os//chrisOS/src/char/console/strftime.c:90 (discriminator 6)
   1081e:	83 ec 04             	sub    esp,0x4
   10821:	ff 75 14             	push   DWORD PTR [ebp+0x14]
   10824:	ff 75 10             	push   DWORD PTR [ebp+0x10]
   10827:	50                   	push   eax
   10828:	e8 a1 09 00 00       	call   111ce <_add>
   1082d:	83 c4 10             	add    esp,0x10
   10830:	89 45 10             	mov    DWORD PTR [ebp+0x10],eax
/home/yogi/src/os//chrisOS/src/char/console/strftime.c:91 (discriminator 6)
          continue;
   10833:	e9 47 09 00 00       	jmp    1117f <_fmt+0xa70>
/home/yogi/src/os//chrisOS/src/char/console/strftime.c:95

        case 'b':
        case 'h':
          pt = _add((t->tm_mon < 0 || t->tm_mon > 11) ? "?" : _months_abbrev[t->tm_mon], pt, ptlim);
   10838:	8b 45 0c             	mov    eax,DWORD PTR [ebp+0xc]
   1083b:	8b 40 10             	mov    eax,DWORD PTR [eax+0x10]
   1083e:	85 c0                	test   eax,eax
   10840:	78 1a                	js     1085c <_fmt+0x14d>
/home/yogi/src/os//chrisOS/src/char/console/strftime.c:95 (discriminator 1)
   10842:	8b 45 0c             	mov    eax,DWORD PTR [ebp+0xc]
   10845:	8b 40 10             	mov    eax,DWORD PTR [eax+0x10]
   10848:	83 f8 0b             	cmp    eax,0xb
   1084b:	7f 0f                	jg     1085c <_fmt+0x14d>
/home/yogi/src/os//chrisOS/src/char/console/strftime.c:95 (discriminator 3)
   1084d:	8b 45 0c             	mov    eax,DWORD PTR [ebp+0xc]
   10850:	8b 40 10             	mov    eax,DWORD PTR [eax+0x10]
   10853:	8b 04 85 20 9a 12 00 	mov    eax,DWORD PTR [eax*4+0x129a20]
   1085a:	eb 05                	jmp    10861 <_fmt+0x152>
/home/yogi/src/os//chrisOS/src/char/console/strftime.c:95 (discriminator 4)
   1085c:	b8 03 50 04 00       	mov    eax,0x45003
/home/yogi/src/os//chrisOS/src/char/console/strftime.c:95 (discriminator 6)
   10861:	83 ec 04             	sub    esp,0x4
   10864:	ff 75 14             	push   DWORD PTR [ebp+0x14]
   10867:	ff 75 10             	push   DWORD PTR [ebp+0x10]
   1086a:	50                   	push   eax
   1086b:	e8 5e 09 00 00       	call   111ce <_add>
   10870:	83 c4 10             	add    esp,0x10
   10873:	89 45 10             	mov    DWORD PTR [ebp+0x10],eax
/home/yogi/src/os//chrisOS/src/char/console/strftime.c:96 (discriminator 6)
          continue;
   10876:	e9 04 09 00 00       	jmp    1117f <_fmt+0xa70>
/home/yogi/src/os//chrisOS/src/char/console/strftime.c:99

        case 'C':
          pt = _conv((t->tm_year + TM_YEAR_BASE) / 100, "%02d", pt, ptlim);
   1087b:	8b 45 0c             	mov    eax,DWORD PTR [ebp+0xc]
   1087e:	8b 40 14             	mov    eax,DWORD PTR [eax+0x14]
   10881:	8d 88 6c 07 00 00    	lea    ecx,[eax+0x76c]
   10887:	ba 1f 85 eb 51       	mov    edx,0x51eb851f
   1088c:	89 c8                	mov    eax,ecx
   1088e:	f7 ea                	imul   edx
   10890:	c1 fa 05             	sar    edx,0x5
   10893:	89 c8                	mov    eax,ecx
   10895:	c1 f8 1f             	sar    eax,0x1f
   10898:	29 c2                	sub    edx,eax
   1089a:	89 d0                	mov    eax,edx
   1089c:	ff 75 14             	push   DWORD PTR [ebp+0x14]
   1089f:	ff 75 10             	push   DWORD PTR [ebp+0x10]
   108a2:	68 05 50 04 00       	push   0x45005
   108a7:	50                   	push   eax
   108a8:	e8 ef 08 00 00       	call   1119c <_conv>
   108ad:	83 c4 10             	add    esp,0x10
   108b0:	89 45 10             	mov    DWORD PTR [ebp+0x10],eax
/home/yogi/src/os//chrisOS/src/char/console/strftime.c:100
          continue;
   108b3:	e9 c7 08 00 00       	jmp    1117f <_fmt+0xa70>
/home/yogi/src/os//chrisOS/src/char/console/strftime.c:103

        case 'c':
          pt = _fmt("%a %b %e %H:%M:%S %Y", t, pt, ptlim);
   108b8:	ff 75 14             	push   DWORD PTR [ebp+0x14]
   108bb:	ff 75 10             	push   DWORD PTR [ebp+0x10]
   108be:	ff 75 0c             	push   DWORD PTR [ebp+0xc]
   108c1:	68 0a 50 04 00       	push   0x4500a
   108c6:	e8 44 fe ff ff       	call   1070f <_fmt>
   108cb:	83 c4 10             	add    esp,0x10
   108ce:	89 45 10             	mov    DWORD PTR [ebp+0x10],eax
/home/yogi/src/os//chrisOS/src/char/console/strftime.c:104
          continue;
   108d1:	e9 a9 08 00 00       	jmp    1117f <_fmt+0xa70>
/home/yogi/src/os//chrisOS/src/char/console/strftime.c:107

        case 'D':
          pt = _fmt("%m/%d/%y", t, pt, ptlim);
   108d6:	ff 75 14             	push   DWORD PTR [ebp+0x14]
   108d9:	ff 75 10             	push   DWORD PTR [ebp+0x10]
   108dc:	ff 75 0c             	push   DWORD PTR [ebp+0xc]
   108df:	68 1f 50 04 00       	push   0x4501f
   108e4:	e8 26 fe ff ff       	call   1070f <_fmt>
   108e9:	83 c4 10             	add    esp,0x10
   108ec:	89 45 10             	mov    DWORD PTR [ebp+0x10],eax
/home/yogi/src/os//chrisOS/src/char/console/strftime.c:108
          continue;
   108ef:	e9 8b 08 00 00       	jmp    1117f <_fmt+0xa70>
/home/yogi/src/os//chrisOS/src/char/console/strftime.c:111

        case 'd':
          pt = _conv(t->tm_mday, "%02d", pt, ptlim);
   108f4:	8b 45 0c             	mov    eax,DWORD PTR [ebp+0xc]
   108f7:	8b 40 0c             	mov    eax,DWORD PTR [eax+0xc]
   108fa:	ff 75 14             	push   DWORD PTR [ebp+0x14]
   108fd:	ff 75 10             	push   DWORD PTR [ebp+0x10]
   10900:	68 05 50 04 00       	push   0x45005
   10905:	50                   	push   eax
   10906:	e8 91 08 00 00       	call   1119c <_conv>
   1090b:	83 c4 10             	add    esp,0x10
   1090e:	89 45 10             	mov    DWORD PTR [ebp+0x10],eax
/home/yogi/src/os//chrisOS/src/char/console/strftime.c:112
          continue;
   10911:	e9 69 08 00 00       	jmp    1117f <_fmt+0xa70>
/home/yogi/src/os//chrisOS/src/char/console/strftime.c:115

        case 'e':
          pt = _conv(t->tm_mday, "%2d", pt, ptlim);
   10916:	8b 45 0c             	mov    eax,DWORD PTR [ebp+0xc]
   10919:	8b 40 0c             	mov    eax,DWORD PTR [eax+0xc]
   1091c:	ff 75 14             	push   DWORD PTR [ebp+0x14]
   1091f:	ff 75 10             	push   DWORD PTR [ebp+0x10]
   10922:	68 28 50 04 00       	push   0x45028
   10927:	50                   	push   eax
   10928:	e8 6f 08 00 00       	call   1119c <_conv>
   1092d:	83 c4 10             	add    esp,0x10
   10930:	89 45 10             	mov    DWORD PTR [ebp+0x10],eax
/home/yogi/src/os//chrisOS/src/char/console/strftime.c:116
          continue;
   10933:	e9 47 08 00 00       	jmp    1117f <_fmt+0xa70>
/home/yogi/src/os//chrisOS/src/char/console/strftime.c:119

        case 'F':
          pt = _fmt("%Y-%m-%d", t, pt, ptlim);
   10938:	ff 75 14             	push   DWORD PTR [ebp+0x14]
   1093b:	ff 75 10             	push   DWORD PTR [ebp+0x10]
   1093e:	ff 75 0c             	push   DWORD PTR [ebp+0xc]
   10941:	68 2c 50 04 00       	push   0x4502c
   10946:	e8 c4 fd ff ff       	call   1070f <_fmt>
   1094b:	83 c4 10             	add    esp,0x10
   1094e:	89 45 10             	mov    DWORD PTR [ebp+0x10],eax
/home/yogi/src/os//chrisOS/src/char/console/strftime.c:120
          continue;
   10951:	e9 29 08 00 00       	jmp    1117f <_fmt+0xa70>
/home/yogi/src/os//chrisOS/src/char/console/strftime.c:123

        case 'H':
          pt = _conv(t->tm_hour, "%02d", pt, ptlim);
   10956:	8b 45 0c             	mov    eax,DWORD PTR [ebp+0xc]
   10959:	8b 40 08             	mov    eax,DWORD PTR [eax+0x8]
   1095c:	ff 75 14             	push   DWORD PTR [ebp+0x14]
   1095f:	ff 75 10             	push   DWORD PTR [ebp+0x10]
   10962:	68 05 50 04 00       	push   0x45005
   10967:	50                   	push   eax
   10968:	e8 2f 08 00 00       	call   1119c <_conv>
   1096d:	83 c4 10             	add    esp,0x10
   10970:	89 45 10             	mov    DWORD PTR [ebp+0x10],eax
/home/yogi/src/os//chrisOS/src/char/console/strftime.c:124
          continue;
   10973:	e9 07 08 00 00       	jmp    1117f <_fmt+0xa70>
/home/yogi/src/os//chrisOS/src/char/console/strftime.c:127

        case 'I':
          pt = _conv((t->tm_hour % 12) ? (t->tm_hour % 12) : 12, "%02d", pt, ptlim);
   10978:	8b 45 0c             	mov    eax,DWORD PTR [ebp+0xc]
   1097b:	8b 48 08             	mov    ecx,DWORD PTR [eax+0x8]
   1097e:	ba ab aa aa 2a       	mov    edx,0x2aaaaaab
   10983:	89 c8                	mov    eax,ecx
   10985:	f7 ea                	imul   edx
   10987:	d1 fa                	sar    edx,1
   10989:	89 c8                	mov    eax,ecx
   1098b:	c1 f8 1f             	sar    eax,0x1f
   1098e:	29 c2                	sub    edx,eax
   10990:	89 d0                	mov    eax,edx
   10992:	01 c0                	add    eax,eax
   10994:	01 d0                	add    eax,edx
   10996:	c1 e0 02             	shl    eax,0x2
   10999:	29 c1                	sub    ecx,eax
   1099b:	89 ca                	mov    edx,ecx
   1099d:	85 d2                	test   edx,edx
   1099f:	74 27                	je     109c8 <_fmt+0x2b9>
/home/yogi/src/os//chrisOS/src/char/console/strftime.c:127 (discriminator 1)
   109a1:	8b 45 0c             	mov    eax,DWORD PTR [ebp+0xc]
   109a4:	8b 48 08             	mov    ecx,DWORD PTR [eax+0x8]
   109a7:	ba ab aa aa 2a       	mov    edx,0x2aaaaaab
   109ac:	89 c8                	mov    eax,ecx
   109ae:	f7 ea                	imul   edx
   109b0:	d1 fa                	sar    edx,1
   109b2:	89 c8                	mov    eax,ecx
   109b4:	c1 f8 1f             	sar    eax,0x1f
   109b7:	29 c2                	sub    edx,eax
   109b9:	89 d0                	mov    eax,edx
   109bb:	01 c0                	add    eax,eax
   109bd:	01 d0                	add    eax,edx
   109bf:	c1 e0 02             	shl    eax,0x2
   109c2:	29 c1                	sub    ecx,eax
   109c4:	89 ca                	mov    edx,ecx
   109c6:	eb 05                	jmp    109cd <_fmt+0x2be>
/home/yogi/src/os//chrisOS/src/char/console/strftime.c:127 (discriminator 2)
   109c8:	ba 0c 00 00 00       	mov    edx,0xc
/home/yogi/src/os//chrisOS/src/char/console/strftime.c:127 (discriminator 4)
   109cd:	ff 75 14             	push   DWORD PTR [ebp+0x14]
   109d0:	ff 75 10             	push   DWORD PTR [ebp+0x10]
   109d3:	68 05 50 04 00       	push   0x45005
   109d8:	52                   	push   edx
   109d9:	e8 be 07 00 00       	call   1119c <_conv>
   109de:	83 c4 10             	add    esp,0x10
   109e1:	89 45 10             	mov    DWORD PTR [ebp+0x10],eax
/home/yogi/src/os//chrisOS/src/char/console/strftime.c:128 (discriminator 4)
          continue;
   109e4:	e9 96 07 00 00       	jmp    1117f <_fmt+0xa70>
/home/yogi/src/os//chrisOS/src/char/console/strftime.c:131

        case 'j':
          pt = _conv(t->tm_yday + 1, "%03d", pt, ptlim);
   109e9:	8b 45 0c             	mov    eax,DWORD PTR [ebp+0xc]
   109ec:	8b 40 1c             	mov    eax,DWORD PTR [eax+0x1c]
   109ef:	83 c0 01             	add    eax,0x1
   109f2:	ff 75 14             	push   DWORD PTR [ebp+0x14]
   109f5:	ff 75 10             	push   DWORD PTR [ebp+0x10]
   109f8:	68 35 50 04 00       	push   0x45035
   109fd:	50                   	push   eax
   109fe:	e8 99 07 00 00       	call   1119c <_conv>
   10a03:	83 c4 10             	add    esp,0x10
   10a06:	89 45 10             	mov    DWORD PTR [ebp+0x10],eax
/home/yogi/src/os//chrisOS/src/char/console/strftime.c:132
          continue;
   10a09:	e9 71 07 00 00       	jmp    1117f <_fmt+0xa70>
/home/yogi/src/os//chrisOS/src/char/console/strftime.c:135

        case 'k':
          pt = _conv(t->tm_hour, "%2d", pt, ptlim);
   10a0e:	8b 45 0c             	mov    eax,DWORD PTR [ebp+0xc]
   10a11:	8b 40 08             	mov    eax,DWORD PTR [eax+0x8]
   10a14:	ff 75 14             	push   DWORD PTR [ebp+0x14]
   10a17:	ff 75 10             	push   DWORD PTR [ebp+0x10]
   10a1a:	68 28 50 04 00       	push   0x45028
   10a1f:	50                   	push   eax
   10a20:	e8 77 07 00 00       	call   1119c <_conv>
   10a25:	83 c4 10             	add    esp,0x10
   10a28:	89 45 10             	mov    DWORD PTR [ebp+0x10],eax
/home/yogi/src/os//chrisOS/src/char/console/strftime.c:136
          continue;
   10a2b:	e9 4f 07 00 00       	jmp    1117f <_fmt+0xa70>
/home/yogi/src/os//chrisOS/src/char/console/strftime.c:139

        case 'l':
          pt = _conv((t->tm_hour % 12) ? (t->tm_hour % 12) : 12, "%2d", pt, ptlim);
   10a30:	8b 45 0c             	mov    eax,DWORD PTR [ebp+0xc]
   10a33:	8b 48 08             	mov    ecx,DWORD PTR [eax+0x8]
   10a36:	ba ab aa aa 2a       	mov    edx,0x2aaaaaab
   10a3b:	89 c8                	mov    eax,ecx
   10a3d:	f7 ea                	imul   edx
   10a3f:	d1 fa                	sar    edx,1
   10a41:	89 c8                	mov    eax,ecx
   10a43:	c1 f8 1f             	sar    eax,0x1f
   10a46:	29 c2                	sub    edx,eax
   10a48:	89 d0                	mov    eax,edx
   10a4a:	01 c0                	add    eax,eax
   10a4c:	01 d0                	add    eax,edx
   10a4e:	c1 e0 02             	shl    eax,0x2
   10a51:	29 c1                	sub    ecx,eax
   10a53:	89 ca                	mov    edx,ecx
   10a55:	85 d2                	test   edx,edx
   10a57:	74 27                	je     10a80 <_fmt+0x371>
/home/yogi/src/os//chrisOS/src/char/console/strftime.c:139 (discriminator 1)
   10a59:	8b 45 0c             	mov    eax,DWORD PTR [ebp+0xc]
   10a5c:	8b 48 08             	mov    ecx,DWORD PTR [eax+0x8]
   10a5f:	ba ab aa aa 2a       	mov    edx,0x2aaaaaab
   10a64:	89 c8                	mov    eax,ecx
   10a66:	f7 ea                	imul   edx
   10a68:	d1 fa                	sar    edx,1
   10a6a:	89 c8                	mov    eax,ecx
   10a6c:	c1 f8 1f             	sar    eax,0x1f
   10a6f:	29 c2                	sub    edx,eax
   10a71:	89 d0                	mov    eax,edx
   10a73:	01 c0                	add    eax,eax
   10a75:	01 d0                	add    eax,edx
   10a77:	c1 e0 02             	shl    eax,0x2
   10a7a:	29 c1                	sub    ecx,eax
   10a7c:	89 ca                	mov    edx,ecx
   10a7e:	eb 05                	jmp    10a85 <_fmt+0x376>
/home/yogi/src/os//chrisOS/src/char/console/strftime.c:139 (discriminator 2)
   10a80:	ba 0c 00 00 00       	mov    edx,0xc
/home/yogi/src/os//chrisOS/src/char/console/strftime.c:139 (discriminator 4)
   10a85:	ff 75 14             	push   DWORD PTR [ebp+0x14]
   10a88:	ff 75 10             	push   DWORD PTR [ebp+0x10]
   10a8b:	68 28 50 04 00       	push   0x45028
   10a90:	52                   	push   edx
   10a91:	e8 06 07 00 00       	call   1119c <_conv>
   10a96:	83 c4 10             	add    esp,0x10
   10a99:	89 45 10             	mov    DWORD PTR [ebp+0x10],eax
/home/yogi/src/os//chrisOS/src/char/console/strftime.c:140 (discriminator 4)
          continue;
   10a9c:	e9 de 06 00 00       	jmp    1117f <_fmt+0xa70>
/home/yogi/src/os//chrisOS/src/char/console/strftime.c:143

        case 'M':
          pt = _conv(t->tm_min, "%02d", pt, ptlim);
   10aa1:	8b 45 0c             	mov    eax,DWORD PTR [ebp+0xc]
   10aa4:	8b 40 04             	mov    eax,DWORD PTR [eax+0x4]
   10aa7:	ff 75 14             	push   DWORD PTR [ebp+0x14]
   10aaa:	ff 75 10             	push   DWORD PTR [ebp+0x10]
   10aad:	68 05 50 04 00       	push   0x45005
   10ab2:	50                   	push   eax
   10ab3:	e8 e4 06 00 00       	call   1119c <_conv>
   10ab8:	83 c4 10             	add    esp,0x10
   10abb:	89 45 10             	mov    DWORD PTR [ebp+0x10],eax
/home/yogi/src/os//chrisOS/src/char/console/strftime.c:144
          continue;
   10abe:	e9 bc 06 00 00       	jmp    1117f <_fmt+0xa70>
/home/yogi/src/os//chrisOS/src/char/console/strftime.c:148

        case 'm':
          //CLR 05/02/2016 - removed odd +1 after tm_mon
          pt = _conv(t->tm_mon, "%02d", pt, ptlim);
   10ac3:	8b 45 0c             	mov    eax,DWORD PTR [ebp+0xc]
   10ac6:	8b 40 10             	mov    eax,DWORD PTR [eax+0x10]
   10ac9:	ff 75 14             	push   DWORD PTR [ebp+0x14]
   10acc:	ff 75 10             	push   DWORD PTR [ebp+0x10]
   10acf:	68 05 50 04 00       	push   0x45005
   10ad4:	50                   	push   eax
   10ad5:	e8 c2 06 00 00       	call   1119c <_conv>
   10ada:	83 c4 10             	add    esp,0x10
   10add:	89 45 10             	mov    DWORD PTR [ebp+0x10],eax
/home/yogi/src/os//chrisOS/src/char/console/strftime.c:149
          continue;
   10ae0:	e9 9a 06 00 00       	jmp    1117f <_fmt+0xa70>
/home/yogi/src/os//chrisOS/src/char/console/strftime.c:152

        case 'n':
          pt = _add("\n", pt, ptlim);
   10ae5:	83 ec 04             	sub    esp,0x4
   10ae8:	ff 75 14             	push   DWORD PTR [ebp+0x14]
   10aeb:	ff 75 10             	push   DWORD PTR [ebp+0x10]
   10aee:	68 3a 50 04 00       	push   0x4503a
   10af3:	e8 d6 06 00 00       	call   111ce <_add>
   10af8:	83 c4 10             	add    esp,0x10
   10afb:	89 45 10             	mov    DWORD PTR [ebp+0x10],eax
/home/yogi/src/os//chrisOS/src/char/console/strftime.c:153
          continue;
   10afe:	e9 7c 06 00 00       	jmp    1117f <_fmt+0xa70>
/home/yogi/src/os//chrisOS/src/char/console/strftime.c:156

        case 'p':
          pt = _add((t->tm_hour >= 12) ? "pm" : "am", pt, ptlim);
   10b03:	8b 45 0c             	mov    eax,DWORD PTR [ebp+0xc]
   10b06:	8b 40 08             	mov    eax,DWORD PTR [eax+0x8]
   10b09:	83 f8 0b             	cmp    eax,0xb
   10b0c:	7e 07                	jle    10b15 <_fmt+0x406>
/home/yogi/src/os//chrisOS/src/char/console/strftime.c:156 (discriminator 1)
   10b0e:	b8 3c 50 04 00       	mov    eax,0x4503c
   10b13:	eb 05                	jmp    10b1a <_fmt+0x40b>
/home/yogi/src/os//chrisOS/src/char/console/strftime.c:156 (discriminator 2)
   10b15:	b8 3f 50 04 00       	mov    eax,0x4503f
/home/yogi/src/os//chrisOS/src/char/console/strftime.c:156 (discriminator 4)
   10b1a:	83 ec 04             	sub    esp,0x4
   10b1d:	ff 75 14             	push   DWORD PTR [ebp+0x14]
   10b20:	ff 75 10             	push   DWORD PTR [ebp+0x10]
   10b23:	50                   	push   eax
   10b24:	e8 a5 06 00 00       	call   111ce <_add>
   10b29:	83 c4 10             	add    esp,0x10
   10b2c:	89 45 10             	mov    DWORD PTR [ebp+0x10],eax
/home/yogi/src/os//chrisOS/src/char/console/strftime.c:157 (discriminator 4)
          continue;
   10b2f:	e9 4b 06 00 00       	jmp    1117f <_fmt+0xa70>
/home/yogi/src/os//chrisOS/src/char/console/strftime.c:160

        case 'R':
          pt = _fmt("%H:%M", t, pt, ptlim);
   10b34:	ff 75 14             	push   DWORD PTR [ebp+0x14]
   10b37:	ff 75 10             	push   DWORD PTR [ebp+0x10]
   10b3a:	ff 75 0c             	push   DWORD PTR [ebp+0xc]
   10b3d:	68 42 50 04 00       	push   0x45042
   10b42:	e8 c8 fb ff ff       	call   1070f <_fmt>
   10b47:	83 c4 10             	add    esp,0x10
   10b4a:	89 45 10             	mov    DWORD PTR [ebp+0x10],eax
/home/yogi/src/os//chrisOS/src/char/console/strftime.c:161
          continue;
   10b4d:	e9 2d 06 00 00       	jmp    1117f <_fmt+0xa70>
/home/yogi/src/os//chrisOS/src/char/console/strftime.c:164

        case 'r':
          pt = _fmt("%I:%M:%S %p", t, pt, ptlim);
   10b52:	ff 75 14             	push   DWORD PTR [ebp+0x14]
   10b55:	ff 75 10             	push   DWORD PTR [ebp+0x10]
   10b58:	ff 75 0c             	push   DWORD PTR [ebp+0xc]
   10b5b:	68 48 50 04 00       	push   0x45048
   10b60:	e8 aa fb ff ff       	call   1070f <_fmt>
   10b65:	83 c4 10             	add    esp,0x10
   10b68:	89 45 10             	mov    DWORD PTR [ebp+0x10],eax
/home/yogi/src/os//chrisOS/src/char/console/strftime.c:165
          continue;
   10b6b:	e9 0f 06 00 00       	jmp    1117f <_fmt+0xa70>
/home/yogi/src/os//chrisOS/src/char/console/strftime.c:168

        case 'S':
          pt = _conv(t->tm_sec, "%02d", pt, ptlim);
   10b70:	8b 45 0c             	mov    eax,DWORD PTR [ebp+0xc]
   10b73:	8b 00                	mov    eax,DWORD PTR [eax]
   10b75:	ff 75 14             	push   DWORD PTR [ebp+0x14]
   10b78:	ff 75 10             	push   DWORD PTR [ebp+0x10]
   10b7b:	68 05 50 04 00       	push   0x45005
   10b80:	50                   	push   eax
   10b81:	e8 16 06 00 00       	call   1119c <_conv>
   10b86:	83 c4 10             	add    esp,0x10
   10b89:	89 45 10             	mov    DWORD PTR [ebp+0x10],eax
/home/yogi/src/os//chrisOS/src/char/console/strftime.c:169
          continue;
   10b8c:	e9 ee 05 00 00       	jmp    1117f <_fmt+0xa70>
/home/yogi/src/os//chrisOS/src/char/console/strftime.c:176
        case 's': {
          struct tm  tm;
          char buf[32];
          time_t mkt;

          tm = *t;
   10b91:	8b 45 0c             	mov    eax,DWORD PTR [ebp+0xc]
   10b94:	8b 10                	mov    edx,DWORD PTR [eax]
   10b96:	89 55 a8             	mov    DWORD PTR [ebp-0x58],edx
   10b99:	8b 50 04             	mov    edx,DWORD PTR [eax+0x4]
   10b9c:	89 55 ac             	mov    DWORD PTR [ebp-0x54],edx
   10b9f:	8b 50 08             	mov    edx,DWORD PTR [eax+0x8]
   10ba2:	89 55 b0             	mov    DWORD PTR [ebp-0x50],edx
   10ba5:	8b 50 0c             	mov    edx,DWORD PTR [eax+0xc]
   10ba8:	89 55 b4             	mov    DWORD PTR [ebp-0x4c],edx
   10bab:	8b 50 10             	mov    edx,DWORD PTR [eax+0x10]
   10bae:	89 55 b8             	mov    DWORD PTR [ebp-0x48],edx
   10bb1:	8b 50 14             	mov    edx,DWORD PTR [eax+0x14]
   10bb4:	89 55 bc             	mov    DWORD PTR [ebp-0x44],edx
   10bb7:	8b 50 18             	mov    edx,DWORD PTR [eax+0x18]
   10bba:	89 55 c0             	mov    DWORD PTR [ebp-0x40],edx
   10bbd:	8b 50 1c             	mov    edx,DWORD PTR [eax+0x1c]
   10bc0:	89 55 c4             	mov    DWORD PTR [ebp-0x3c],edx
   10bc3:	8b 50 20             	mov    edx,DWORD PTR [eax+0x20]
   10bc6:	89 55 c8             	mov    DWORD PTR [ebp-0x38],edx
   10bc9:	8b 50 24             	mov    edx,DWORD PTR [eax+0x24]
   10bcc:	89 55 cc             	mov    DWORD PTR [ebp-0x34],edx
   10bcf:	8b 40 28             	mov    eax,DWORD PTR [eax+0x28]
   10bd2:	89 45 d0             	mov    DWORD PTR [ebp-0x30],eax
/home/yogi/src/os//chrisOS/src/char/console/strftime.c:177
          mkt = mktime(&tm);
   10bd5:	83 ec 0c             	sub    esp,0xc
   10bd8:	8d 45 a8             	lea    eax,[ebp-0x58]
   10bdb:	50                   	push   eax
   10bdc:	e8 7e 76 01 00       	call   2825f <mktime>
   10be1:	83 c4 10             	add    esp,0x10
   10be4:	89 45 e0             	mov    DWORD PTR [ebp-0x20],eax
/home/yogi/src/os//chrisOS/src/char/console/strftime.c:178
          sprintf(buf, "%lu", mkt);
   10be7:	83 ec 04             	sub    esp,0x4
   10bea:	ff 75 e0             	push   DWORD PTR [ebp-0x20]
   10bed:	68 54 50 04 00       	push   0x45054
   10bf2:	8d 45 88             	lea    eax,[ebp-0x78]
   10bf5:	50                   	push   eax
   10bf6:	e8 fc 6c 01 00       	call   278f7 <sprintf>
   10bfb:	83 c4 10             	add    esp,0x10
/home/yogi/src/os//chrisOS/src/char/console/strftime.c:179
          pt = _add(buf, pt, ptlim);
   10bfe:	83 ec 04             	sub    esp,0x4
   10c01:	ff 75 14             	push   DWORD PTR [ebp+0x14]
   10c04:	ff 75 10             	push   DWORD PTR [ebp+0x10]
   10c07:	8d 45 88             	lea    eax,[ebp-0x78]
   10c0a:	50                   	push   eax
   10c0b:	e8 be 05 00 00       	call   111ce <_add>
   10c10:	83 c4 10             	add    esp,0x10
   10c13:	89 45 10             	mov    DWORD PTR [ebp+0x10],eax
   10c16:	e9 64 05 00 00       	jmp    1117f <_fmt+0xa70>
/home/yogi/src/os//chrisOS/src/char/console/strftime.c:184
          continue;
        }

        case 'T':
          pt = _fmt("%H:%M:%S", t, pt, ptlim);
   10c1b:	ff 75 14             	push   DWORD PTR [ebp+0x14]
   10c1e:	ff 75 10             	push   DWORD PTR [ebp+0x10]
   10c21:	ff 75 0c             	push   DWORD PTR [ebp+0xc]
   10c24:	68 58 50 04 00       	push   0x45058
   10c29:	e8 e1 fa ff ff       	call   1070f <_fmt>
   10c2e:	83 c4 10             	add    esp,0x10
   10c31:	89 45 10             	mov    DWORD PTR [ebp+0x10],eax
/home/yogi/src/os//chrisOS/src/char/console/strftime.c:185
          continue;
   10c34:	e9 46 05 00 00       	jmp    1117f <_fmt+0xa70>
/home/yogi/src/os//chrisOS/src/char/console/strftime.c:188

        case 't':
          pt = _add("\t", pt, ptlim);
   10c39:	83 ec 04             	sub    esp,0x4
   10c3c:	ff 75 14             	push   DWORD PTR [ebp+0x14]
   10c3f:	ff 75 10             	push   DWORD PTR [ebp+0x10]
   10c42:	68 61 50 04 00       	push   0x45061
   10c47:	e8 82 05 00 00       	call   111ce <_add>
   10c4c:	83 c4 10             	add    esp,0x10
   10c4f:	89 45 10             	mov    DWORD PTR [ebp+0x10],eax
/home/yogi/src/os//chrisOS/src/char/console/strftime.c:189
          continue;
   10c52:	e9 28 05 00 00       	jmp    1117f <_fmt+0xa70>
/home/yogi/src/os//chrisOS/src/char/console/strftime.c:192

        case 'U':
          pt = _conv((t->tm_yday + 7 - t->tm_wday) / 7, "%02d", pt, ptlim);
   10c57:	8b 45 0c             	mov    eax,DWORD PTR [ebp+0xc]
   10c5a:	8b 40 1c             	mov    eax,DWORD PTR [eax+0x1c]
   10c5d:	8d 50 07             	lea    edx,[eax+0x7]
   10c60:	8b 45 0c             	mov    eax,DWORD PTR [ebp+0xc]
   10c63:	8b 40 18             	mov    eax,DWORD PTR [eax+0x18]
   10c66:	89 d1                	mov    ecx,edx
   10c68:	29 c1                	sub    ecx,eax
   10c6a:	ba 93 24 49 92       	mov    edx,0x92492493
   10c6f:	89 c8                	mov    eax,ecx
   10c71:	f7 ea                	imul   edx
   10c73:	8d 04 0a             	lea    eax,[edx+ecx*1]
   10c76:	c1 f8 02             	sar    eax,0x2
   10c79:	89 c2                	mov    edx,eax
   10c7b:	89 c8                	mov    eax,ecx
   10c7d:	c1 f8 1f             	sar    eax,0x1f
   10c80:	29 c2                	sub    edx,eax
   10c82:	89 d0                	mov    eax,edx
   10c84:	ff 75 14             	push   DWORD PTR [ebp+0x14]
   10c87:	ff 75 10             	push   DWORD PTR [ebp+0x10]
   10c8a:	68 05 50 04 00       	push   0x45005
   10c8f:	50                   	push   eax
   10c90:	e8 07 05 00 00       	call   1119c <_conv>
   10c95:	83 c4 10             	add    esp,0x10
   10c98:	89 45 10             	mov    DWORD PTR [ebp+0x10],eax
/home/yogi/src/os//chrisOS/src/char/console/strftime.c:193
          continue;
   10c9b:	e9 df 04 00 00       	jmp    1117f <_fmt+0xa70>
/home/yogi/src/os//chrisOS/src/char/console/strftime.c:196

        case 'u':
          pt = _conv((t->tm_wday == 0) ? 7 : t->tm_wday, "%d", pt, ptlim);
   10ca0:	8b 45 0c             	mov    eax,DWORD PTR [ebp+0xc]
   10ca3:	8b 40 18             	mov    eax,DWORD PTR [eax+0x18]
   10ca6:	85 c0                	test   eax,eax
   10ca8:	74 08                	je     10cb2 <_fmt+0x5a3>
/home/yogi/src/os//chrisOS/src/char/console/strftime.c:196 (discriminator 1)
   10caa:	8b 45 0c             	mov    eax,DWORD PTR [ebp+0xc]
   10cad:	8b 40 18             	mov    eax,DWORD PTR [eax+0x18]
   10cb0:	eb 05                	jmp    10cb7 <_fmt+0x5a8>
/home/yogi/src/os//chrisOS/src/char/console/strftime.c:196 (discriminator 2)
   10cb2:	b8 07 00 00 00       	mov    eax,0x7
/home/yogi/src/os//chrisOS/src/char/console/strftime.c:196 (discriminator 4)
   10cb7:	ff 75 14             	push   DWORD PTR [ebp+0x14]
   10cba:	ff 75 10             	push   DWORD PTR [ebp+0x10]
   10cbd:	68 63 50 04 00       	push   0x45063
   10cc2:	50                   	push   eax
   10cc3:	e8 d4 04 00 00       	call   1119c <_conv>
   10cc8:	83 c4 10             	add    esp,0x10
   10ccb:	89 45 10             	mov    DWORD PTR [ebp+0x10],eax
/home/yogi/src/os//chrisOS/src/char/console/strftime.c:197 (discriminator 4)
          continue;
   10cce:	e9 ac 04 00 00       	jmp    1117f <_fmt+0xa70>
/home/yogi/src/os//chrisOS/src/char/console/strftime.c:207
          int  year;
          int  yday;
          int  wday;
          int  w;

          year = t->tm_year + TM_YEAR_BASE;
   10cd3:	8b 45 0c             	mov    eax,DWORD PTR [ebp+0xc]
   10cd6:	8b 40 14             	mov    eax,DWORD PTR [eax+0x14]
   10cd9:	05 6c 07 00 00       	add    eax,0x76c
   10cde:	89 45 f4             	mov    DWORD PTR [ebp-0xc],eax
/home/yogi/src/os//chrisOS/src/char/console/strftime.c:208
          yday = t->tm_yday;
   10ce1:	8b 45 0c             	mov    eax,DWORD PTR [ebp+0xc]
   10ce4:	8b 40 1c             	mov    eax,DWORD PTR [eax+0x1c]
   10ce7:	89 45 f0             	mov    DWORD PTR [ebp-0x10],eax
/home/yogi/src/os//chrisOS/src/char/console/strftime.c:209
          wday = t->tm_wday;
   10cea:	8b 45 0c             	mov    eax,DWORD PTR [ebp+0xc]
   10ced:	8b 40 18             	mov    eax,DWORD PTR [eax+0x18]
   10cf0:	89 45 dc             	mov    DWORD PTR [ebp-0x24],eax
/home/yogi/src/os//chrisOS/src/char/console/strftime.c:215
          while (1) {
            int  len;
            int  bot;
            int  top;

            len = LEAPYEAR(year) ? DAYSPERLYEAR : DAYSPERNYEAR;
   10cf3:	8b 45 f4             	mov    eax,DWORD PTR [ebp-0xc]
   10cf6:	83 e0 03             	and    eax,0x3
   10cf9:	85 c0                	test   eax,eax
   10cfb:	75 50                	jne    10d4d <_fmt+0x63e>
/home/yogi/src/os//chrisOS/src/char/console/strftime.c:215 (discriminator 1)
   10cfd:	8b 4d f4             	mov    ecx,DWORD PTR [ebp-0xc]
   10d00:	ba 1f 85 eb 51       	mov    edx,0x51eb851f
   10d05:	89 c8                	mov    eax,ecx
   10d07:	f7 ea                	imul   edx
   10d09:	c1 fa 05             	sar    edx,0x5
   10d0c:	89 c8                	mov    eax,ecx
   10d0e:	c1 f8 1f             	sar    eax,0x1f
   10d11:	29 c2                	sub    edx,eax
   10d13:	89 d0                	mov    eax,edx
   10d15:	6b c0 64             	imul   eax,eax,0x64
   10d18:	29 c1                	sub    ecx,eax
   10d1a:	89 c8                	mov    eax,ecx
   10d1c:	85 c0                	test   eax,eax
   10d1e:	75 26                	jne    10d46 <_fmt+0x637>
/home/yogi/src/os//chrisOS/src/char/console/strftime.c:215 (discriminator 4)
   10d20:	8b 4d f4             	mov    ecx,DWORD PTR [ebp-0xc]
   10d23:	ba 1f 85 eb 51       	mov    edx,0x51eb851f
   10d28:	89 c8                	mov    eax,ecx
   10d2a:	f7 ea                	imul   edx
   10d2c:	c1 fa 07             	sar    edx,0x7
   10d2f:	89 c8                	mov    eax,ecx
   10d31:	c1 f8 1f             	sar    eax,0x1f
   10d34:	29 c2                	sub    edx,eax
   10d36:	89 d0                	mov    eax,edx
   10d38:	69 c0 90 01 00 00    	imul   eax,eax,0x190
   10d3e:	29 c1                	sub    ecx,eax
   10d40:	89 c8                	mov    eax,ecx
   10d42:	85 c0                	test   eax,eax
   10d44:	75 07                	jne    10d4d <_fmt+0x63e>
/home/yogi/src/os//chrisOS/src/char/console/strftime.c:215 (discriminator 5)
   10d46:	b8 6e 01 00 00       	mov    eax,0x16e
   10d4b:	eb 05                	jmp    10d52 <_fmt+0x643>
/home/yogi/src/os//chrisOS/src/char/console/strftime.c:215 (discriminator 6)
   10d4d:	b8 6d 01 00 00       	mov    eax,0x16d
/home/yogi/src/os//chrisOS/src/char/console/strftime.c:215 (discriminator 8)
   10d52:	89 45 d8             	mov    DWORD PTR [ebp-0x28],eax
/home/yogi/src/os//chrisOS/src/char/console/strftime.c:216 (discriminator 8)
            bot = ((yday + 11 - wday) % DAYSPERWEEK) - 3;
   10d55:	8b 45 f0             	mov    eax,DWORD PTR [ebp-0x10]
   10d58:	83 c0 0b             	add    eax,0xb
   10d5b:	2b 45 dc             	sub    eax,DWORD PTR [ebp-0x24]
   10d5e:	89 c1                	mov    ecx,eax
   10d60:	ba 93 24 49 92       	mov    edx,0x92492493
   10d65:	89 c8                	mov    eax,ecx
   10d67:	f7 ea                	imul   edx
   10d69:	8d 04 0a             	lea    eax,[edx+ecx*1]
   10d6c:	c1 f8 02             	sar    eax,0x2
   10d6f:	89 c2                	mov    edx,eax
   10d71:	89 c8                	mov    eax,ecx
   10d73:	c1 f8 1f             	sar    eax,0x1f
   10d76:	29 c2                	sub    edx,eax
   10d78:	89 d0                	mov    eax,edx
   10d7a:	89 c2                	mov    edx,eax
   10d7c:	c1 e2 03             	shl    edx,0x3
   10d7f:	29 c2                	sub    edx,eax
   10d81:	89 c8                	mov    eax,ecx
   10d83:	29 d0                	sub    eax,edx
   10d85:	83 e8 03             	sub    eax,0x3
   10d88:	89 45 d4             	mov    DWORD PTR [ebp-0x2c],eax
/home/yogi/src/os//chrisOS/src/char/console/strftime.c:217 (discriminator 8)
            top = bot - (len % DAYSPERWEEK);
   10d8b:	8b 4d d8             	mov    ecx,DWORD PTR [ebp-0x28]
   10d8e:	ba 93 24 49 92       	mov    edx,0x92492493
   10d93:	89 c8                	mov    eax,ecx
   10d95:	f7 ea                	imul   edx
   10d97:	8d 04 0a             	lea    eax,[edx+ecx*1]
   10d9a:	c1 f8 02             	sar    eax,0x2
   10d9d:	89 c2                	mov    edx,eax
   10d9f:	89 c8                	mov    eax,ecx
   10da1:	c1 f8 1f             	sar    eax,0x1f
   10da4:	29 c2                	sub    edx,eax
   10da6:	89 d0                	mov    eax,edx
   10da8:	89 c2                	mov    edx,eax
   10daa:	c1 e2 03             	shl    edx,0x3
   10dad:	29 c2                	sub    edx,eax
   10daf:	89 c8                	mov    eax,ecx
   10db1:	29 d0                	sub    eax,edx
   10db3:	8b 55 d4             	mov    edx,DWORD PTR [ebp-0x2c]
   10db6:	29 c2                	sub    edx,eax
   10db8:	89 d0                	mov    eax,edx
   10dba:	89 45 e8             	mov    DWORD PTR [ebp-0x18],eax
/home/yogi/src/os//chrisOS/src/char/console/strftime.c:218 (discriminator 8)
            if (top < -3) top += DAYSPERWEEK;
   10dbd:	83 7d e8 fd          	cmp    DWORD PTR [ebp-0x18],0xfffffffd
   10dc1:	7d 04                	jge    10dc7 <_fmt+0x6b8>
/home/yogi/src/os//chrisOS/src/char/console/strftime.c:218 (discriminator 1)
   10dc3:	83 45 e8 07          	add    DWORD PTR [ebp-0x18],0x7
/home/yogi/src/os//chrisOS/src/char/console/strftime.c:219
            top += len;
   10dc7:	8b 45 d8             	mov    eax,DWORD PTR [ebp-0x28]
   10dca:	01 45 e8             	add    DWORD PTR [ebp-0x18],eax
/home/yogi/src/os//chrisOS/src/char/console/strftime.c:220
            if (yday >= top) {
   10dcd:	8b 45 f0             	mov    eax,DWORD PTR [ebp-0x10]
   10dd0:	3b 45 e8             	cmp    eax,DWORD PTR [ebp-0x18]
   10dd3:	7c 10                	jl     10de5 <_fmt+0x6d6>
/home/yogi/src/os//chrisOS/src/char/console/strftime.c:221
              ++year;
   10dd5:	83 45 f4 01          	add    DWORD PTR [ebp-0xc],0x1
/home/yogi/src/os//chrisOS/src/char/console/strftime.c:222
              w = 1;
   10dd9:	c7 45 ec 01 00 00 00 	mov    DWORD PTR [ebp-0x14],0x1
/home/yogi/src/os//chrisOS/src/char/console/strftime.c:223
              break;
   10de0:	e9 9d 00 00 00       	jmp    10e82 <_fmt+0x773>
/home/yogi/src/os//chrisOS/src/char/console/strftime.c:225
            }
            if (yday >= bot) {
   10de5:	8b 45 f0             	mov    eax,DWORD PTR [ebp-0x10]
   10de8:	3b 45 d4             	cmp    eax,DWORD PTR [ebp-0x2c]
   10deb:	7c 2a                	jl     10e17 <_fmt+0x708>
/home/yogi/src/os//chrisOS/src/char/console/strftime.c:226
              w = 1 + ((yday - bot) / DAYSPERWEEK);
   10ded:	8b 45 f0             	mov    eax,DWORD PTR [ebp-0x10]
   10df0:	2b 45 d4             	sub    eax,DWORD PTR [ebp-0x2c]
   10df3:	89 c1                	mov    ecx,eax
   10df5:	ba 93 24 49 92       	mov    edx,0x92492493
   10dfa:	89 c8                	mov    eax,ecx
   10dfc:	f7 ea                	imul   edx
   10dfe:	8d 04 0a             	lea    eax,[edx+ecx*1]
   10e01:	c1 f8 02             	sar    eax,0x2
   10e04:	89 c2                	mov    edx,eax
   10e06:	89 c8                	mov    eax,ecx
   10e08:	c1 f8 1f             	sar    eax,0x1f
   10e0b:	29 c2                	sub    edx,eax
   10e0d:	89 d0                	mov    eax,edx
   10e0f:	83 c0 01             	add    eax,0x1
   10e12:	89 45 ec             	mov    DWORD PTR [ebp-0x14],eax
/home/yogi/src/os//chrisOS/src/char/console/strftime.c:227
              break;
   10e15:	eb 6b                	jmp    10e82 <_fmt+0x773>
/home/yogi/src/os//chrisOS/src/char/console/strftime.c:229
            }
            --year;
   10e17:	83 6d f4 01          	sub    DWORD PTR [ebp-0xc],0x1
/home/yogi/src/os//chrisOS/src/char/console/strftime.c:230
            yday += LEAPYEAR(year) ? DAYSPERLYEAR : DAYSPERNYEAR;
   10e1b:	8b 45 f4             	mov    eax,DWORD PTR [ebp-0xc]
   10e1e:	83 e0 03             	and    eax,0x3
   10e21:	85 c0                	test   eax,eax
   10e23:	75 50                	jne    10e75 <_fmt+0x766>
/home/yogi/src/os//chrisOS/src/char/console/strftime.c:230 (discriminator 1)
   10e25:	8b 4d f4             	mov    ecx,DWORD PTR [ebp-0xc]
   10e28:	ba 1f 85 eb 51       	mov    edx,0x51eb851f
   10e2d:	89 c8                	mov    eax,ecx
   10e2f:	f7 ea                	imul   edx
   10e31:	c1 fa 05             	sar    edx,0x5
   10e34:	89 c8                	mov    eax,ecx
   10e36:	c1 f8 1f             	sar    eax,0x1f
   10e39:	29 c2                	sub    edx,eax
   10e3b:	89 d0                	mov    eax,edx
   10e3d:	6b c0 64             	imul   eax,eax,0x64
   10e40:	29 c1                	sub    ecx,eax
   10e42:	89 c8                	mov    eax,ecx
   10e44:	85 c0                	test   eax,eax
   10e46:	75 26                	jne    10e6e <_fmt+0x75f>
/home/yogi/src/os//chrisOS/src/char/console/strftime.c:230 (discriminator 4)
   10e48:	8b 4d f4             	mov    ecx,DWORD PTR [ebp-0xc]
   10e4b:	ba 1f 85 eb 51       	mov    edx,0x51eb851f
   10e50:	89 c8                	mov    eax,ecx
   10e52:	f7 ea                	imul   edx
   10e54:	c1 fa 07             	sar    edx,0x7
   10e57:	89 c8                	mov    eax,ecx
   10e59:	c1 f8 1f             	sar    eax,0x1f
   10e5c:	29 c2                	sub    edx,eax
   10e5e:	89 d0                	mov    eax,edx
   10e60:	69 c0 90 01 00 00    	imul   eax,eax,0x190
   10e66:	29 c1                	sub    ecx,eax
   10e68:	89 c8                	mov    eax,ecx
   10e6a:	85 c0                	test   eax,eax
   10e6c:	75 07                	jne    10e75 <_fmt+0x766>
/home/yogi/src/os//chrisOS/src/char/console/strftime.c:230 (discriminator 5)
   10e6e:	b8 6e 01 00 00       	mov    eax,0x16e
   10e73:	eb 05                	jmp    10e7a <_fmt+0x76b>
/home/yogi/src/os//chrisOS/src/char/console/strftime.c:230 (discriminator 6)
   10e75:	b8 6d 01 00 00       	mov    eax,0x16d
/home/yogi/src/os//chrisOS/src/char/console/strftime.c:230 (discriminator 8)
   10e7a:	01 45 f0             	add    DWORD PTR [ebp-0x10],eax
/home/yogi/src/os//chrisOS/src/char/console/strftime.c:231 (discriminator 8)
          }
   10e7d:	e9 71 fe ff ff       	jmp    10cf3 <_fmt+0x5e4>
/home/yogi/src/os//chrisOS/src/char/console/strftime.c:232
          if (*format == 'V') {
   10e82:	8b 45 08             	mov    eax,DWORD PTR [ebp+0x8]
   10e85:	0f b6 00             	movzx  eax,BYTE PTR [eax]
   10e88:	3c 56                	cmp    al,0x56
   10e8a:	75 1e                	jne    10eaa <_fmt+0x79b>
/home/yogi/src/os//chrisOS/src/char/console/strftime.c:233
            pt = _conv(w, "%02d", pt, ptlim);
   10e8c:	ff 75 14             	push   DWORD PTR [ebp+0x14]
   10e8f:	ff 75 10             	push   DWORD PTR [ebp+0x10]
   10e92:	68 05 50 04 00       	push   0x45005
   10e97:	ff 75 ec             	push   DWORD PTR [ebp-0x14]
   10e9a:	e8 fd 02 00 00       	call   1119c <_conv>
   10e9f:	83 c4 10             	add    esp,0x10
   10ea2:	89 45 10             	mov    DWORD PTR [ebp+0x10],eax
/home/yogi/src/os//chrisOS/src/char/console/strftime.c:239
          } else if (*format == 'g') {
            pt = _conv(year % 100, "%02d", pt, ptlim);
          } else {
            pt = _conv(year, "%04d", pt, ptlim);
          }
          continue;
   10ea5:	e9 d5 02 00 00       	jmp    1117f <_fmt+0xa70>
/home/yogi/src/os//chrisOS/src/char/console/strftime.c:234
            --year;
            yday += LEAPYEAR(year) ? DAYSPERLYEAR : DAYSPERNYEAR;
          }
          if (*format == 'V') {
            pt = _conv(w, "%02d", pt, ptlim);
          } else if (*format == 'g') {
   10eaa:	8b 45 08             	mov    eax,DWORD PTR [ebp+0x8]
   10ead:	0f b6 00             	movzx  eax,BYTE PTR [eax]
   10eb0:	3c 67                	cmp    al,0x67
   10eb2:	75 3b                	jne    10eef <_fmt+0x7e0>
/home/yogi/src/os//chrisOS/src/char/console/strftime.c:235
            pt = _conv(year % 100, "%02d", pt, ptlim);
   10eb4:	8b 4d f4             	mov    ecx,DWORD PTR [ebp-0xc]
   10eb7:	ba 1f 85 eb 51       	mov    edx,0x51eb851f
   10ebc:	89 c8                	mov    eax,ecx
   10ebe:	f7 ea                	imul   edx
   10ec0:	c1 fa 05             	sar    edx,0x5
   10ec3:	89 c8                	mov    eax,ecx
   10ec5:	c1 f8 1f             	sar    eax,0x1f
   10ec8:	29 c2                	sub    edx,eax
   10eca:	89 d0                	mov    eax,edx
   10ecc:	6b c0 64             	imul   eax,eax,0x64
   10ecf:	29 c1                	sub    ecx,eax
   10ed1:	89 c8                	mov    eax,ecx
   10ed3:	ff 75 14             	push   DWORD PTR [ebp+0x14]
   10ed6:	ff 75 10             	push   DWORD PTR [ebp+0x10]
   10ed9:	68 05 50 04 00       	push   0x45005
   10ede:	50                   	push   eax
   10edf:	e8 b8 02 00 00       	call   1119c <_conv>
   10ee4:	83 c4 10             	add    esp,0x10
   10ee7:	89 45 10             	mov    DWORD PTR [ebp+0x10],eax
/home/yogi/src/os//chrisOS/src/char/console/strftime.c:239
          } else {
            pt = _conv(year, "%04d", pt, ptlim);
          }
          continue;
   10eea:	e9 90 02 00 00       	jmp    1117f <_fmt+0xa70>
/home/yogi/src/os//chrisOS/src/char/console/strftime.c:237
          if (*format == 'V') {
            pt = _conv(w, "%02d", pt, ptlim);
          } else if (*format == 'g') {
            pt = _conv(year % 100, "%02d", pt, ptlim);
          } else {
            pt = _conv(year, "%04d", pt, ptlim);
   10eef:	ff 75 14             	push   DWORD PTR [ebp+0x14]
   10ef2:	ff 75 10             	push   DWORD PTR [ebp+0x10]
   10ef5:	68 66 50 04 00       	push   0x45066
   10efa:	ff 75 f4             	push   DWORD PTR [ebp-0xc]
   10efd:	e8 9a 02 00 00       	call   1119c <_conv>
   10f02:	83 c4 10             	add    esp,0x10
   10f05:	89 45 10             	mov    DWORD PTR [ebp+0x10],eax
/home/yogi/src/os//chrisOS/src/char/console/strftime.c:239
          }
          continue;
   10f08:	e9 72 02 00 00       	jmp    1117f <_fmt+0xa70>
/home/yogi/src/os//chrisOS/src/char/console/strftime.c:243
        }

        case 'v':
          pt = _fmt("%e-%b-%Y", t, pt, ptlim);
   10f0d:	ff 75 14             	push   DWORD PTR [ebp+0x14]
   10f10:	ff 75 10             	push   DWORD PTR [ebp+0x10]
   10f13:	ff 75 0c             	push   DWORD PTR [ebp+0xc]
   10f16:	68 6b 50 04 00       	push   0x4506b
   10f1b:	e8 ef f7 ff ff       	call   1070f <_fmt>
   10f20:	83 c4 10             	add    esp,0x10
   10f23:	89 45 10             	mov    DWORD PTR [ebp+0x10],eax
/home/yogi/src/os//chrisOS/src/char/console/strftime.c:244
          continue;
   10f26:	e9 54 02 00 00       	jmp    1117f <_fmt+0xa70>
/home/yogi/src/os//chrisOS/src/char/console/strftime.c:247

        case 'W':
          pt = _conv((t->tm_yday + 7 - (t->tm_wday ? (t->tm_wday - 1) : 6)) / 7, "%02d", pt, ptlim);
   10f2b:	8b 45 0c             	mov    eax,DWORD PTR [ebp+0xc]
   10f2e:	8b 40 1c             	mov    eax,DWORD PTR [eax+0x1c]
   10f31:	8d 50 07             	lea    edx,[eax+0x7]
   10f34:	8b 45 0c             	mov    eax,DWORD PTR [ebp+0xc]
   10f37:	8b 40 18             	mov    eax,DWORD PTR [eax+0x18]
   10f3a:	85 c0                	test   eax,eax
   10f3c:	74 0b                	je     10f49 <_fmt+0x83a>
/home/yogi/src/os//chrisOS/src/char/console/strftime.c:247 (discriminator 1)
   10f3e:	8b 45 0c             	mov    eax,DWORD PTR [ebp+0xc]
   10f41:	8b 40 18             	mov    eax,DWORD PTR [eax+0x18]
   10f44:	83 e8 01             	sub    eax,0x1
   10f47:	eb 05                	jmp    10f4e <_fmt+0x83f>
/home/yogi/src/os//chrisOS/src/char/console/strftime.c:247 (discriminator 2)
   10f49:	b8 06 00 00 00       	mov    eax,0x6
/home/yogi/src/os//chrisOS/src/char/console/strftime.c:247 (discriminator 4)
   10f4e:	89 d1                	mov    ecx,edx
   10f50:	29 c1                	sub    ecx,eax
   10f52:	ba 93 24 49 92       	mov    edx,0x92492493
   10f57:	89 c8                	mov    eax,ecx
   10f59:	f7 ea                	imul   edx
   10f5b:	8d 04 0a             	lea    eax,[edx+ecx*1]
   10f5e:	c1 f8 02             	sar    eax,0x2
   10f61:	89 c2                	mov    edx,eax
   10f63:	89 c8                	mov    eax,ecx
   10f65:	c1 f8 1f             	sar    eax,0x1f
   10f68:	29 c2                	sub    edx,eax
   10f6a:	89 d0                	mov    eax,edx
   10f6c:	ff 75 14             	push   DWORD PTR [ebp+0x14]
   10f6f:	ff 75 10             	push   DWORD PTR [ebp+0x10]
   10f72:	68 05 50 04 00       	push   0x45005
   10f77:	50                   	push   eax
   10f78:	e8 1f 02 00 00       	call   1119c <_conv>
   10f7d:	83 c4 10             	add    esp,0x10
   10f80:	89 45 10             	mov    DWORD PTR [ebp+0x10],eax
/home/yogi/src/os//chrisOS/src/char/console/strftime.c:248 (discriminator 4)
          continue;
   10f83:	e9 f7 01 00 00       	jmp    1117f <_fmt+0xa70>
/home/yogi/src/os//chrisOS/src/char/console/strftime.c:251

        case 'w':
          pt = _conv(t->tm_wday, "%d", pt, ptlim);
   10f88:	8b 45 0c             	mov    eax,DWORD PTR [ebp+0xc]
   10f8b:	8b 40 18             	mov    eax,DWORD PTR [eax+0x18]
   10f8e:	ff 75 14             	push   DWORD PTR [ebp+0x14]
   10f91:	ff 75 10             	push   DWORD PTR [ebp+0x10]
   10f94:	68 63 50 04 00       	push   0x45063
   10f99:	50                   	push   eax
   10f9a:	e8 fd 01 00 00       	call   1119c <_conv>
   10f9f:	83 c4 10             	add    esp,0x10
   10fa2:	89 45 10             	mov    DWORD PTR [ebp+0x10],eax
/home/yogi/src/os//chrisOS/src/char/console/strftime.c:252
          continue;
   10fa5:	e9 d5 01 00 00       	jmp    1117f <_fmt+0xa70>
/home/yogi/src/os//chrisOS/src/char/console/strftime.c:255

        case 'X':
          pt = _fmt("%H:%M:%S", t, pt, ptlim);
   10faa:	ff 75 14             	push   DWORD PTR [ebp+0x14]
   10fad:	ff 75 10             	push   DWORD PTR [ebp+0x10]
   10fb0:	ff 75 0c             	push   DWORD PTR [ebp+0xc]
   10fb3:	68 58 50 04 00       	push   0x45058
   10fb8:	e8 52 f7 ff ff       	call   1070f <_fmt>
   10fbd:	83 c4 10             	add    esp,0x10
   10fc0:	89 45 10             	mov    DWORD PTR [ebp+0x10],eax
/home/yogi/src/os//chrisOS/src/char/console/strftime.c:256
          continue;
   10fc3:	e9 b7 01 00 00       	jmp    1117f <_fmt+0xa70>
/home/yogi/src/os//chrisOS/src/char/console/strftime.c:259

        case 'x':
          pt = _fmt("%m/%d/%y", t, pt, ptlim);
   10fc8:	ff 75 14             	push   DWORD PTR [ebp+0x14]
   10fcb:	ff 75 10             	push   DWORD PTR [ebp+0x10]
   10fce:	ff 75 0c             	push   DWORD PTR [ebp+0xc]
   10fd1:	68 1f 50 04 00       	push   0x4501f
   10fd6:	e8 34 f7 ff ff       	call   1070f <_fmt>
   10fdb:	83 c4 10             	add    esp,0x10
   10fde:	89 45 10             	mov    DWORD PTR [ebp+0x10],eax
/home/yogi/src/os//chrisOS/src/char/console/strftime.c:260
          continue;
   10fe1:	e9 99 01 00 00       	jmp    1117f <_fmt+0xa70>
/home/yogi/src/os//chrisOS/src/char/console/strftime.c:263

        case 'y':
          pt = _conv((t->tm_year + TM_YEAR_BASE) % 100, "%02d", pt, ptlim);
   10fe6:	8b 45 0c             	mov    eax,DWORD PTR [ebp+0xc]
   10fe9:	8b 40 14             	mov    eax,DWORD PTR [eax+0x14]
   10fec:	8d 88 6c 07 00 00    	lea    ecx,[eax+0x76c]
   10ff2:	ba 1f 85 eb 51       	mov    edx,0x51eb851f
   10ff7:	89 c8                	mov    eax,ecx
   10ff9:	f7 ea                	imul   edx
   10ffb:	c1 fa 05             	sar    edx,0x5
   10ffe:	89 c8                	mov    eax,ecx
   11000:	c1 f8 1f             	sar    eax,0x1f
   11003:	29 c2                	sub    edx,eax
   11005:	89 d0                	mov    eax,edx
   11007:	6b c0 64             	imul   eax,eax,0x64
   1100a:	29 c1                	sub    ecx,eax
   1100c:	89 c8                	mov    eax,ecx
   1100e:	ff 75 14             	push   DWORD PTR [ebp+0x14]
   11011:	ff 75 10             	push   DWORD PTR [ebp+0x10]
   11014:	68 05 50 04 00       	push   0x45005
   11019:	50                   	push   eax
   1101a:	e8 7d 01 00 00       	call   1119c <_conv>
   1101f:	83 c4 10             	add    esp,0x10
   11022:	89 45 10             	mov    DWORD PTR [ebp+0x10],eax
/home/yogi/src/os//chrisOS/src/char/console/strftime.c:264
          continue;
   11025:	e9 55 01 00 00       	jmp    1117f <_fmt+0xa70>
/home/yogi/src/os//chrisOS/src/char/console/strftime.c:267

        case 'Y':
          pt = _conv(t->tm_year + TM_YEAR_BASE, "%04d", pt, ptlim);
   1102a:	8b 45 0c             	mov    eax,DWORD PTR [ebp+0xc]
   1102d:	8b 40 14             	mov    eax,DWORD PTR [eax+0x14]
   11030:	05 6c 07 00 00       	add    eax,0x76c
   11035:	ff 75 14             	push   DWORD PTR [ebp+0x14]
   11038:	ff 75 10             	push   DWORD PTR [ebp+0x10]
   1103b:	68 66 50 04 00       	push   0x45066
   11040:	50                   	push   eax
   11041:	e8 56 01 00 00       	call   1119c <_conv>
   11046:	83 c4 10             	add    esp,0x10
   11049:	89 45 10             	mov    DWORD PTR [ebp+0x10],eax
/home/yogi/src/os//chrisOS/src/char/console/strftime.c:268
          continue;
   1104c:	e9 2e 01 00 00       	jmp    1117f <_fmt+0xa70>
/home/yogi/src/os//chrisOS/src/char/console/strftime.c:271

        case 'Z':
          pt = _add("?", pt, ptlim);
   11051:	83 ec 04             	sub    esp,0x4
   11054:	ff 75 14             	push   DWORD PTR [ebp+0x14]
   11057:	ff 75 10             	push   DWORD PTR [ebp+0x10]
   1105a:	68 03 50 04 00       	push   0x45003
   1105f:	e8 6a 01 00 00       	call   111ce <_add>
   11064:	83 c4 10             	add    esp,0x10
   11067:	89 45 10             	mov    DWORD PTR [ebp+0x10],eax
/home/yogi/src/os//chrisOS/src/char/console/strftime.c:272
          continue;
   1106a:	e9 10 01 00 00       	jmp    1117f <_fmt+0xa70>
/home/yogi/src/os//chrisOS/src/char/console/strftime.c:276

        case 'z': {
          long absoff;
          if (kTimeZone >= 0) {
   1106f:	a1 d0 97 12 00       	mov    eax,ds:0x1297d0
   11074:	85 c0                	test   eax,eax
   11076:	78 23                	js     1109b <_fmt+0x98c>
/home/yogi/src/os//chrisOS/src/char/console/strftime.c:277
            absoff = kTimeZone;
   11078:	a1 d0 97 12 00       	mov    eax,ds:0x1297d0
   1107d:	89 45 e4             	mov    DWORD PTR [ebp-0x1c],eax
/home/yogi/src/os//chrisOS/src/char/console/strftime.c:278
            pt = _add("+", pt, ptlim);
   11080:	83 ec 04             	sub    esp,0x4
   11083:	ff 75 14             	push   DWORD PTR [ebp+0x14]
   11086:	ff 75 10             	push   DWORD PTR [ebp+0x10]
   11089:	68 74 50 04 00       	push   0x45074
   1108e:	e8 3b 01 00 00       	call   111ce <_add>
   11093:	83 c4 10             	add    esp,0x10
   11096:	89 45 10             	mov    DWORD PTR [ebp+0x10],eax
   11099:	eb 21                	jmp    110bc <_fmt+0x9ad>
/home/yogi/src/os//chrisOS/src/char/console/strftime.c:280
          } else {
            absoff = kTimeZone;
   1109b:	a1 d0 97 12 00       	mov    eax,ds:0x1297d0
   110a0:	89 45 e4             	mov    DWORD PTR [ebp-0x1c],eax
/home/yogi/src/os//chrisOS/src/char/console/strftime.c:281
            pt = _add("-", pt, ptlim);
   110a3:	83 ec 04             	sub    esp,0x4
   110a6:	ff 75 14             	push   DWORD PTR [ebp+0x14]
   110a9:	ff 75 10             	push   DWORD PTR [ebp+0x10]
   110ac:	68 76 50 04 00       	push   0x45076
   110b1:	e8 18 01 00 00       	call   111ce <_add>
   110b6:	83 c4 10             	add    esp,0x10
   110b9:	89 45 10             	mov    DWORD PTR [ebp+0x10],eax
/home/yogi/src/os//chrisOS/src/char/console/strftime.c:283
          }
          pt = _conv(absoff / 3600, "%02d", pt, ptlim);
   110bc:	8b 4d e4             	mov    ecx,DWORD PTR [ebp-0x1c]
   110bf:	ba c5 b3 a2 91       	mov    edx,0x91a2b3c5
   110c4:	89 c8                	mov    eax,ecx
   110c6:	f7 ea                	imul   edx
   110c8:	8d 04 0a             	lea    eax,[edx+ecx*1]
   110cb:	c1 f8 0b             	sar    eax,0xb
   110ce:	89 c2                	mov    edx,eax
   110d0:	89 c8                	mov    eax,ecx
   110d2:	c1 f8 1f             	sar    eax,0x1f
   110d5:	29 c2                	sub    edx,eax
   110d7:	89 d0                	mov    eax,edx
   110d9:	ff 75 14             	push   DWORD PTR [ebp+0x14]
   110dc:	ff 75 10             	push   DWORD PTR [ebp+0x10]
   110df:	68 05 50 04 00       	push   0x45005
   110e4:	50                   	push   eax
   110e5:	e8 b2 00 00 00       	call   1119c <_conv>
   110ea:	83 c4 10             	add    esp,0x10
   110ed:	89 45 10             	mov    DWORD PTR [ebp+0x10],eax
/home/yogi/src/os//chrisOS/src/char/console/strftime.c:284
          pt = _conv((absoff % 3600) / 60, "%02d", pt, ptlim);
   110f0:	8b 5d e4             	mov    ebx,DWORD PTR [ebp-0x1c]
   110f3:	ba c5 b3 a2 91       	mov    edx,0x91a2b3c5
   110f8:	89 d8                	mov    eax,ebx
   110fa:	f7 ea                	imul   edx
   110fc:	8d 04 1a             	lea    eax,[edx+ebx*1]
   110ff:	c1 f8 0b             	sar    eax,0xb
   11102:	89 c2                	mov    edx,eax
   11104:	89 d8                	mov    eax,ebx
   11106:	c1 f8 1f             	sar    eax,0x1f
   11109:	89 d1                	mov    ecx,edx
   1110b:	29 c1                	sub    ecx,eax
   1110d:	69 c1 10 0e 00 00    	imul   eax,ecx,0xe10
   11113:	29 c3                	sub    ebx,eax
   11115:	89 d9                	mov    ecx,ebx
   11117:	ba 89 88 88 88       	mov    edx,0x88888889
   1111c:	89 c8                	mov    eax,ecx
   1111e:	f7 ea                	imul   edx
   11120:	8d 04 0a             	lea    eax,[edx+ecx*1]
   11123:	c1 f8 05             	sar    eax,0x5
   11126:	89 c2                	mov    edx,eax
   11128:	89 c8                	mov    eax,ecx
   1112a:	c1 f8 1f             	sar    eax,0x1f
   1112d:	29 c2                	sub    edx,eax
   1112f:	89 d0                	mov    eax,edx
   11131:	ff 75 14             	push   DWORD PTR [ebp+0x14]
   11134:	ff 75 10             	push   DWORD PTR [ebp+0x10]
   11137:	68 05 50 04 00       	push   0x45005
   1113c:	50                   	push   eax
   1113d:	e8 5a 00 00 00       	call   1119c <_conv>
   11142:	83 c4 10             	add    esp,0x10
   11145:	89 45 10             	mov    DWORD PTR [ebp+0x10],eax
/home/yogi/src/os//chrisOS/src/char/console/strftime.c:286

          continue;
   11148:	eb 35                	jmp    1117f <_fmt+0xa70>
/home/yogi/src/os//chrisOS/src/char/console/strftime.c:290
        }

        case '+':
          pt = _fmt("%a, %d %b %Y %H:%M:%S %z", t, pt, ptlim);
   1114a:	ff 75 14             	push   DWORD PTR [ebp+0x14]
   1114d:	ff 75 10             	push   DWORD PTR [ebp+0x10]
   11150:	ff 75 0c             	push   DWORD PTR [ebp+0xc]
   11153:	68 78 50 04 00       	push   0x45078
   11158:	e8 b2 f5 ff ff       	call   1070f <_fmt>
   1115d:	83 c4 10             	add    esp,0x10
   11160:	89 45 10             	mov    DWORD PTR [ebp+0x10],eax
/home/yogi/src/os//chrisOS/src/char/console/strftime.c:291
          continue;
   11163:	eb 1a                	jmp    1117f <_fmt+0xa70>
/home/yogi/src/os//chrisOS/src/char/console/strftime.c:295

        case '%':
        default:
          break;
   11165:	90                   	nop
/home/yogi/src/os//chrisOS/src/char/console/strftime.c:299
      }
    }

    if (pt == ptlim) break;
   11166:	8b 45 10             	mov    eax,DWORD PTR [ebp+0x10]
   11169:	3b 45 14             	cmp    eax,DWORD PTR [ebp+0x14]
   1116c:	74 25                	je     11193 <_fmt+0xa84>
/home/yogi/src/os//chrisOS/src/char/console/strftime.c:300
    *pt++ = *format;
   1116e:	8b 45 10             	mov    eax,DWORD PTR [ebp+0x10]
   11171:	8d 50 01             	lea    edx,[eax+0x1]
   11174:	89 55 10             	mov    DWORD PTR [ebp+0x10],edx
   11177:	8b 55 08             	mov    edx,DWORD PTR [ebp+0x8]
   1117a:	0f b6 12             	movzx  edx,BYTE PTR [edx]
   1117d:	88 10                	mov    BYTE PTR [eax],dl
/home/yogi/src/os//chrisOS/src/char/console/strftime.c:68
  *p = '\0';
  return p - s;
}

static HIGH_CODE_SECTION char *_fmt(const char *format, const struct tm *t, char *pt, const char *ptlim) {
  for ( ; *format; ++format) {
   1117f:	83 45 08 01          	add    DWORD PTR [ebp+0x8],0x1
/home/yogi/src/os//chrisOS/src/char/console/strftime.c:68 (discriminator 1)
   11183:	8b 45 08             	mov    eax,DWORD PTR [ebp+0x8]
   11186:	0f b6 00             	movzx  eax,BYTE PTR [eax]
   11189:	84 c0                	test   al,al
   1118b:	0f 85 8a f5 ff ff    	jne    1071b <_fmt+0xc>
   11191:	eb 01                	jmp    11194 <_fmt+0xa85>
/home/yogi/src/os//chrisOS/src/char/console/strftime.c:299
        default:
          break;
      }
    }

    if (pt == ptlim) break;
   11193:	90                   	nop
/home/yogi/src/os//chrisOS/src/char/console/strftime.c:303
    *pt++ = *format;
  }

  return pt;
   11194:	8b 45 10             	mov    eax,DWORD PTR [ebp+0x10]
/home/yogi/src/os//chrisOS/src/char/console/strftime.c:304
}
   11197:	8b 5d fc             	mov    ebx,DWORD PTR [ebp-0x4]
   1119a:	c9                   	leave  
   1119b:	c3                   	ret    

0001119c <_conv>:
_conv():
/home/yogi/src/os//chrisOS/src/char/console/strftime.c:306

static char *_conv(const int n, char *format, char *pt, const char *ptlim) {
   1119c:	55                   	push   ebp
   1119d:	89 e5                	mov    ebp,esp
   1119f:	83 ec 28             	sub    esp,0x28
/home/yogi/src/os//chrisOS/src/char/console/strftime.c:309
  char  buf[32];

  sprintf(buf, format, n);
   111a2:	83 ec 04             	sub    esp,0x4
   111a5:	ff 75 08             	push   DWORD PTR [ebp+0x8]
   111a8:	ff 75 0c             	push   DWORD PTR [ebp+0xc]
   111ab:	8d 45 d8             	lea    eax,[ebp-0x28]
   111ae:	50                   	push   eax
   111af:	e8 43 67 01 00       	call   278f7 <sprintf>
   111b4:	83 c4 10             	add    esp,0x10
/home/yogi/src/os//chrisOS/src/char/console/strftime.c:310
  return _add(buf, pt, ptlim);
   111b7:	83 ec 04             	sub    esp,0x4
   111ba:	ff 75 14             	push   DWORD PTR [ebp+0x14]
   111bd:	ff 75 10             	push   DWORD PTR [ebp+0x10]
   111c0:	8d 45 d8             	lea    eax,[ebp-0x28]
   111c3:	50                   	push   eax
   111c4:	e8 05 00 00 00       	call   111ce <_add>
   111c9:	83 c4 10             	add    esp,0x10
/home/yogi/src/os//chrisOS/src/char/console/strftime.c:311
}
   111cc:	c9                   	leave  
   111cd:	c3                   	ret    

000111ce <_add>:
_add():
/home/yogi/src/os//chrisOS/src/char/console/strftime.c:313

static char *_add(const char *str, char *pt, const char *ptlim) {
   111ce:	55                   	push   ebp
   111cf:	89 e5                	mov    ebp,esp
/home/yogi/src/os//chrisOS/src/char/console/strftime.c:314
  while (pt < ptlim && (*pt = *str++) != '\0') ++pt;
   111d1:	eb 04                	jmp    111d7 <_add+0x9>
/home/yogi/src/os//chrisOS/src/char/console/strftime.c:314 (discriminator 3)
   111d3:	83 45 0c 01          	add    DWORD PTR [ebp+0xc],0x1
/home/yogi/src/os//chrisOS/src/char/console/strftime.c:314 (discriminator 1)
   111d7:	8b 45 0c             	mov    eax,DWORD PTR [ebp+0xc]
   111da:	3b 45 10             	cmp    eax,DWORD PTR [ebp+0x10]
   111dd:	73 1b                	jae    111fa <_add+0x2c>
/home/yogi/src/os//chrisOS/src/char/console/strftime.c:314 (discriminator 2)
   111df:	8b 45 08             	mov    eax,DWORD PTR [ebp+0x8]
   111e2:	8d 50 01             	lea    edx,[eax+0x1]
   111e5:	89 55 08             	mov    DWORD PTR [ebp+0x8],edx
   111e8:	0f b6 10             	movzx  edx,BYTE PTR [eax]
   111eb:	8b 45 0c             	mov    eax,DWORD PTR [ebp+0xc]
   111ee:	88 10                	mov    BYTE PTR [eax],dl
   111f0:	8b 45 0c             	mov    eax,DWORD PTR [ebp+0xc]
   111f3:	0f b6 00             	movzx  eax,BYTE PTR [eax]
   111f6:	84 c0                	test   al,al
   111f8:	75 d9                	jne    111d3 <_add+0x5>
/home/yogi/src/os//chrisOS/src/char/console/strftime.c:315
  return pt;
   111fa:	8b 45 0c             	mov    eax,DWORD PTR [ebp+0xc]
/home/yogi/src/os//chrisOS/src/char/console/strftime.c:316
}
   111fd:	5d                   	pop    ebp
   111fe:	c3                   	ret    
   111ff:	90                   	nop

00011200 <keyboardGetKeyFromBuffer>:
keyboardGetKeyFromBuffer():
/home/yogi/src/os//chrisOS/src/char/keyboard.c:17
extern volatile char* kKbdBuffCurrChar;
//Get a key from the keyboard buffer
//Curr moves when a key is put into the buffer
//Base moves when a key is taken from the buffer
uint8_t keyboardGetKeyFromBuffer()
{
   11200:	55                   	push   ebp
   11201:	89 e5                	mov    ebp,esp
   11203:	83 ec 10             	sub    esp,0x10
/home/yogi/src/os//chrisOS/src/char/keyboard.c:18
    char lTemp=0;
   11206:	c6 45 ff 00          	mov    BYTE PTR [ebp-0x1],0x0
/home/yogi/src/os//chrisOS/src/char/keyboard.c:20
    //If top > buffer address, there are new characters to be processed
    if (kKbdBuffCurrTop>(char*)KEYBOARD_BUFFER_ADDRESS)
   1120a:	a1 60 99 12 00       	mov    eax,ds:0x129960
   1120f:	3d b0 24 16 00       	cmp    eax,0x1624b0
   11214:	76 3b                	jbe    11251 <keyboardGetKeyFromBuffer+0x51>
/home/yogi/src/os//chrisOS/src/char/keyboard.c:23
    {
        //increment the current character pointer
        kKbdBuffCurrChar++;
   11216:	a1 90 99 12 00       	mov    eax,ds:0x129990
   1121b:	83 c0 01             	add    eax,0x1
   1121e:	a3 90 99 12 00       	mov    ds:0x129990,eax
/home/yogi/src/os//chrisOS/src/char/keyboard.c:25
        //get the character from the buffer
        lTemp=*kKbdBuffCurrChar;
   11223:	a1 90 99 12 00       	mov    eax,ds:0x129990
   11228:	0f b6 00             	movzx  eax,BYTE PTR [eax]
   1122b:	88 45 ff             	mov    BYTE PTR [ebp-0x1],al
/home/yogi/src/os//chrisOS/src/char/keyboard.c:27
        //If we've reached top, reset both char and top
        if (kKbdBuffCurrChar>=kKbdBuffCurrTop)
   1122e:	8b 15 90 99 12 00    	mov    edx,DWORD PTR ds:0x129990
   11234:	a1 60 99 12 00       	mov    eax,ds:0x129960
   11239:	39 c2                	cmp    edx,eax
   1123b:	72 14                	jb     11251 <keyboardGetKeyFromBuffer+0x51>
/home/yogi/src/os//chrisOS/src/char/keyboard.c:29
        {
            kKbdBuffCurrChar=(char*)KEYBOARD_BUFFER_ADDRESS;
   1123d:	c7 05 90 99 12 00 b0 	mov    DWORD PTR ds:0x129990,0x1624b0
   11244:	24 16 00 
/home/yogi/src/os//chrisOS/src/char/keyboard.c:30
            kKbdBuffCurrTop=(char*)KEYBOARD_BUFFER_ADDRESS;
   11247:	c7 05 60 99 12 00 b0 	mov    DWORD PTR ds:0x129960,0x1624b0
   1124e:	24 16 00 
/home/yogi/src/os//chrisOS/src/char/keyboard.c:33
        }
    }
    return lTemp;
   11251:	0f b6 45 ff          	movzx  eax,BYTE PTR [ebp-0x1]
/home/yogi/src/os//chrisOS/src/char/keyboard.c:34
}
   11255:	c9                   	leave  
   11256:	c3                   	ret    

00011257 <waitForKeyboardKey>:
waitForKeyboardKey():
/home/yogi/src/os//chrisOS/src/char/keyboard.c:37

char waitForKeyboardKey()
{
   11257:	55                   	push   ebp
   11258:	89 e5                	mov    ebp,esp
   1125a:	83 ec 18             	sub    esp,0x18
/home/yogi/src/os//chrisOS/src/char/keyboard.c:38
    printd(DEBUG_KEYBOARD_DRIVER,"buffer=%08X, char=%08X, top=%08X\t", KEYBOARD_BUFFER_ADDRESS, kKbdBuffCurrChar, kKbdBuffCurrTop);
   1125d:	8b 15 60 99 12 00    	mov    edx,DWORD PTR ds:0x129960
   11263:	a1 90 99 12 00       	mov    eax,ds:0x129990
   11268:	83 ec 0c             	sub    esp,0xc
   1126b:	52                   	push   edx
   1126c:	50                   	push   eax
   1126d:	68 b0 24 16 00       	push   0x1624b0
   11272:	68 80 53 04 00       	push   0x45380
   11277:	68 00 00 10 00       	push   0x100000
   1127c:	e8 42 66 01 00       	call   278c3 <printd>
   11281:	83 c4 20             	add    esp,0x20
/home/yogi/src/os//chrisOS/src/char/keyboard.c:39
    char lTemp=0;
   11284:	c6 45 f6 00          	mov    BYTE PTR [ebp-0xa],0x0
/home/yogi/src/os//chrisOS/src/char/keyboard.c:40
    bool debugMsgPrinted=false;
   11288:	c6 45 f7 00          	mov    BYTE PTR [ebp-0x9],0x0
/home/yogi/src/os//chrisOS/src/char/keyboard.c:42
    //CLR 02/19/2017 - Had to change the conditon because of modifications I made to how buffer & bufferbase are used.
    while (kKbdBuffCurrTop==(char*)KEYBOARD_BUFFER_ADDRESS)
   1128c:	eb 1e                	jmp    112ac <waitForKeyboardKey+0x55>
/home/yogi/src/os//chrisOS/src/char/keyboard.c:44
    {
        if (!debugMsgPrinted)
   1128e:	0f b6 45 f7          	movzx  eax,BYTE PTR [ebp-0x9]
   11292:	83 f0 01             	xor    eax,0x1
   11295:	84 c0                	test   al,al
   11297:	74 04                	je     1129d <waitForKeyboardKey+0x46>
/home/yogi/src/os//chrisOS/src/char/keyboard.c:46
        {
            debugMsgPrinted=true;
   11299:	c6 45 f7 01          	mov    BYTE PTR [ebp-0x9],0x1
/home/yogi/src/os//chrisOS/src/char/keyboard.c:48
        }
        __asm__("sti\nhlt\n");
   1129d:	fb                   	sti    
   1129e:	f4                   	hlt    
/home/yogi/src/os//chrisOS/src/char/keyboard.c:49
        waitTicks(1);
   1129f:	83 ec 0c             	sub    esp,0xc
   112a2:	6a 01                	push   0x1
   112a4:	e8 1e 78 01 00       	call   28ac7 <waitTicks>
   112a9:	83 c4 10             	add    esp,0x10
/home/yogi/src/os//chrisOS/src/char/keyboard.c:42
{
    printd(DEBUG_KEYBOARD_DRIVER,"buffer=%08X, char=%08X, top=%08X\t", KEYBOARD_BUFFER_ADDRESS, kKbdBuffCurrChar, kKbdBuffCurrTop);
    char lTemp=0;
    bool debugMsgPrinted=false;
    //CLR 02/19/2017 - Had to change the conditon because of modifications I made to how buffer & bufferbase are used.
    while (kKbdBuffCurrTop==(char*)KEYBOARD_BUFFER_ADDRESS)
   112ac:	a1 60 99 12 00       	mov    eax,ds:0x129960
   112b1:	3d b0 24 16 00       	cmp    eax,0x1624b0
   112b6:	74 d6                	je     1128e <waitForKeyboardKey+0x37>
/home/yogi/src/os//chrisOS/src/char/keyboard.c:51
            debugMsgPrinted=true;
        }
        __asm__("sti\nhlt\n");
        waitTicks(1);
    }
    lTemp=keyboardGetKeyFromBuffer();
   112b8:	e8 43 ff ff ff       	call   11200 <keyboardGetKeyFromBuffer>
   112bd:	88 45 f6             	mov    BYTE PTR [ebp-0xa],al
/home/yogi/src/os//chrisOS/src/char/keyboard.c:52
    printd(DEBUG_KEYBOARD_DRIVER,"got a key %u!\n", lTemp);
   112c0:	0f be 45 f6          	movsx  eax,BYTE PTR [ebp-0xa]
   112c4:	83 ec 04             	sub    esp,0x4
   112c7:	50                   	push   eax
   112c8:	68 a2 53 04 00       	push   0x453a2
   112cd:	68 00 00 10 00       	push   0x100000
   112d2:	e8 ec 65 01 00       	call   278c3 <printd>
   112d7:	83 c4 10             	add    esp,0x10
/home/yogi/src/os//chrisOS/src/char/keyboard.c:53
    return lTemp;
   112da:	0f b6 45 f6          	movzx  eax,BYTE PTR [ebp-0xa]
/home/yogi/src/os//chrisOS/src/char/keyboard.c:54
}
   112de:	c9                   	leave  
   112df:	c3                   	ret    

000112e0 <gets>:
gets():
/home/yogi/src/os//chrisOS/src/char/keyboard.c:57

void gets(char* buffer, int len)
{
   112e0:	55                   	push   ebp
   112e1:	89 e5                	mov    ebp,esp
   112e3:	83 ec 18             	sub    esp,0x18
/home/yogi/src/os//chrisOS/src/char/keyboard.c:58
    volatile char inchar=0;
   112e6:	c6 45 f3 00          	mov    BYTE PTR [ebp-0xd],0x0
/home/yogi/src/os//chrisOS/src/char/keyboard.c:59
    int cnt=0;
   112ea:	c7 45 f4 00 00 00 00 	mov    DWORD PTR [ebp-0xc],0x0
/home/yogi/src/os//chrisOS/src/char/keyboard.c:60
    memset(buffer,0,len);
   112f1:	8b 45 0c             	mov    eax,DWORD PTR [ebp+0xc]
   112f4:	83 ec 04             	sub    esp,0x4
   112f7:	50                   	push   eax
   112f8:	6a 00                	push   0x0
   112fa:	ff 75 08             	push   DWORD PTR [ebp+0x8]
   112fd:	e8 3b 43 01 00       	call   2563d <memset>
   11302:	83 c4 10             	add    esp,0x10
/home/yogi/src/os//chrisOS/src/char/keyboard.c:63
    while (1==1)
    {
        inchar=waitForKeyboardKey();
   11305:	e8 4d ff ff ff       	call   11257 <waitForKeyboardKey>
   1130a:	88 45 f3             	mov    BYTE PTR [ebp-0xd],al
/home/yogi/src/os//chrisOS/src/char/keyboard.c:64
        if (inchar=='\b' && cnt>0)
   1130d:	0f b6 45 f3          	movzx  eax,BYTE PTR [ebp-0xd]
   11311:	3c 08                	cmp    al,0x8
   11313:	75 27                	jne    1133c <gets+0x5c>
/home/yogi/src/os//chrisOS/src/char/keyboard.c:64 (discriminator 1)
   11315:	83 7d f4 00          	cmp    DWORD PTR [ebp-0xc],0x0
   11319:	7e 21                	jle    1133c <gets+0x5c>
/home/yogi/src/os//chrisOS/src/char/keyboard.c:66
        {
            buffer[cnt]=0;
   1131b:	8b 55 f4             	mov    edx,DWORD PTR [ebp-0xc]
   1131e:	8b 45 08             	mov    eax,DWORD PTR [ebp+0x8]
   11321:	01 d0                	add    eax,edx
   11323:	c6 00 00             	mov    BYTE PTR [eax],0x0
/home/yogi/src/os//chrisOS/src/char/keyboard.c:67
            cnt--;
   11326:	83 6d f4 01          	sub    DWORD PTR [ebp-0xc],0x1
/home/yogi/src/os//chrisOS/src/char/keyboard.c:68
            puts("\b");
   1132a:	83 ec 0c             	sub    esp,0xc
   1132d:	68 b1 53 04 00       	push   0x453b1
   11332:	e8 2f 71 00 00       	call   18466 <puts>
   11337:	83 c4 10             	add    esp,0x10
/home/yogi/src/os//chrisOS/src/char/keyboard.c:65
    memset(buffer,0,len);
    while (1==1)
    {
        inchar=waitForKeyboardKey();
        if (inchar=='\b' && cnt>0)
        {
   1133a:	eb 63                	jmp    1139f <gets+0xbf>
/home/yogi/src/os//chrisOS/src/char/keyboard.c:70
            buffer[cnt]=0;
            cnt--;
            puts("\b");
        }
        else if (inchar>0)
   1133c:	0f b6 45 f3          	movzx  eax,BYTE PTR [ebp-0xd]
   11340:	84 c0                	test   al,al
   11342:	7e c1                	jle    11305 <gets+0x25>
/home/yogi/src/os//chrisOS/src/char/keyboard.c:72
        {
            if (inchar==0x0a)
   11344:	0f b6 45 f3          	movzx  eax,BYTE PTR [ebp-0xd]
   11348:	3c 0a                	cmp    al,0xa
   1134a:	75 1a                	jne    11366 <gets+0x86>
/home/yogi/src/os//chrisOS/src/char/keyboard.c:74
            {
                printk("%c",inchar);
   1134c:	0f b6 45 f3          	movzx  eax,BYTE PTR [ebp-0xd]
   11350:	0f be c0             	movsx  eax,al
   11353:	83 ec 08             	sub    esp,0x8
   11356:	50                   	push   eax
   11357:	68 b3 53 04 00       	push   0x453b3
   1135c:	e8 42 65 01 00       	call   278a3 <printk>
   11361:	83 c4 10             	add    esp,0x10
/home/yogi/src/os//chrisOS/src/char/keyboard.c:75
                return;
   11364:	eb 3e                	jmp    113a4 <gets+0xc4>
/home/yogi/src/os//chrisOS/src/char/keyboard.c:77
            }
            if (cnt<len-2)
   11366:	8b 45 0c             	mov    eax,DWORD PTR [ebp+0xc]
   11369:	83 e8 02             	sub    eax,0x2
   1136c:	3b 45 f4             	cmp    eax,DWORD PTR [ebp-0xc]
   1136f:	7e 94                	jle    11305 <gets+0x25>
/home/yogi/src/os//chrisOS/src/char/keyboard.c:79
            {
                printk("%c",inchar);
   11371:	0f b6 45 f3          	movzx  eax,BYTE PTR [ebp-0xd]
   11375:	0f be c0             	movsx  eax,al
   11378:	83 ec 08             	sub    esp,0x8
   1137b:	50                   	push   eax
   1137c:	68 b3 53 04 00       	push   0x453b3
   11381:	e8 1d 65 01 00       	call   278a3 <printk>
   11386:	83 c4 10             	add    esp,0x10
/home/yogi/src/os//chrisOS/src/char/keyboard.c:80
                buffer[cnt++]=inchar;
   11389:	8b 45 f4             	mov    eax,DWORD PTR [ebp-0xc]
   1138c:	8d 50 01             	lea    edx,[eax+0x1]
   1138f:	89 55 f4             	mov    DWORD PTR [ebp-0xc],edx
   11392:	89 c2                	mov    edx,eax
   11394:	8b 45 08             	mov    eax,DWORD PTR [ebp+0x8]
   11397:	01 c2                	add    edx,eax
   11399:	0f b6 45 f3          	movzx  eax,BYTE PTR [ebp-0xd]
   1139d:	88 02                	mov    BYTE PTR [edx],al
/home/yogi/src/os//chrisOS/src/char/keyboard.c:83
            }
        }
    }
   1139f:	e9 61 ff ff ff       	jmp    11305 <gets+0x25>
/home/yogi/src/os//chrisOS/src/char/keyboard.c:84
}
   113a4:	c9                   	leave  
   113a5:	c3                   	ret    

000113a6 <getc>:
getc():
/home/yogi/src/os//chrisOS/src/char/keyboard.c:87

char getc()
{
   113a6:	55                   	push   ebp
   113a7:	89 e5                	mov    ebp,esp
   113a9:	83 ec 18             	sub    esp,0x18
/home/yogi/src/os//chrisOS/src/char/keyboard.c:88
   int inchar=waitForKeyboardKey();
   113ac:	e8 a6 fe ff ff       	call   11257 <waitForKeyboardKey>
   113b1:	0f be c0             	movsx  eax,al
   113b4:	89 45 f4             	mov    DWORD PTR [ebp-0xc],eax
/home/yogi/src/os//chrisOS/src/char/keyboard.c:90
   
   while (inchar==0)
   113b7:	eb 0b                	jmp    113c4 <getc+0x1e>
/home/yogi/src/os//chrisOS/src/char/keyboard.c:92
   {
       inchar=waitForKeyboardKey();
   113b9:	e8 99 fe ff ff       	call   11257 <waitForKeyboardKey>
   113be:	0f be c0             	movsx  eax,al
   113c1:	89 45 f4             	mov    DWORD PTR [ebp-0xc],eax
/home/yogi/src/os//chrisOS/src/char/keyboard.c:90

char getc()
{
   int inchar=waitForKeyboardKey();
   
   while (inchar==0)
   113c4:	83 7d f4 00          	cmp    DWORD PTR [ebp-0xc],0x0
   113c8:	74 ef                	je     113b9 <getc+0x13>
/home/yogi/src/os//chrisOS/src/char/keyboard.c:94
   {
       inchar=waitForKeyboardKey();
   }
   return inchar;
   113ca:	8b 45 f4             	mov    eax,DWORD PTR [ebp-0xc]
/home/yogi/src/os//chrisOS/src/char/keyboard.c:95
}
   113cd:	c9                   	leave  
   113ce:	c3                   	ret    
   113cf:	90                   	nop

000113d0 <kPagingGet4kPDEntryValueCR3>:
kPagingGet4kPDEntryValueCR3():
/home/yogi/src/os//chrisOS/src/init/kpaging.c:21
extern uint32_t kDebugLevel;



uint32_t kPagingGet4kPDEntryValueCR3(uintptr_t PageDirAddress, uint32_t address)
{
   113d0:	55                   	push   ebp
   113d1:	89 e5                	mov    ebp,esp
   113d3:	83 ec 18             	sub    esp,0x18
/home/yogi/src/os//chrisOS/src/init/kpaging.c:22
    address&=0xFFFFF000;
   113d6:	81 65 0c 00 f0 ff ff 	and    DWORD PTR [ebp+0xc],0xfffff000
/home/yogi/src/os//chrisOS/src/init/kpaging.c:23
    uintptr_t*pageDirEntry=((PageDirAddress + (((address & 0xFFC00000) >> 22) << 2)));
   113dd:	8b 45 0c             	mov    eax,DWORD PTR [ebp+0xc]
   113e0:	c1 e8 16             	shr    eax,0x16
   113e3:	8d 14 85 00 00 00 00 	lea    edx,[eax*4+0x0]
   113ea:	8b 45 08             	mov    eax,DWORD PTR [ebp+0x8]
   113ed:	01 d0                	add    eax,edx
   113ef:	89 45 f4             	mov    DWORD PTR [ebp-0xc],eax
/home/yogi/src/os//chrisOS/src/init/kpaging.c:24
    uintptr_t* lTemp=(uint32_t*)((PageDirAddress + (((address & 0xFFC00000) >> 22) << 2)));
   113f2:	8b 45 0c             	mov    eax,DWORD PTR [ebp+0xc]
   113f5:	c1 e8 16             	shr    eax,0x16
   113f8:	8d 14 85 00 00 00 00 	lea    edx,[eax*4+0x0]
   113ff:	8b 45 08             	mov    eax,DWORD PTR [ebp+0x8]
   11402:	01 d0                	add    eax,edx
   11404:	89 45 f0             	mov    DWORD PTR [ebp-0x10],eax
/home/yogi/src/os//chrisOS/src/init/kpaging.c:26
#ifndef DEBUG_NONE
         if ((kDebugLevel & DEBUG_PAGING) == DEBUG_PAGING)
   11407:	a1 78 98 12 00       	mov    eax,ds:0x129878
   1140c:	83 e0 40             	and    eax,0x40
   1140f:	85 c0                	test   eax,eax
   11411:	74 19                	je     1142c <kPagingGet4kPDEntryValueCR3+0x5c>
/home/yogi/src/os//chrisOS/src/init/kpaging.c:27
            printk("kPagingGet4kPDEntryValueCR3: dirAddressPtr=0x%08x (PDIR=0x%08X)\n", *lTemp,PageDirAddress);
   11413:	8b 45 f0             	mov    eax,DWORD PTR [ebp-0x10]
   11416:	8b 00                	mov    eax,DWORD PTR [eax]
   11418:	83 ec 04             	sub    esp,0x4
   1141b:	ff 75 08             	push   DWORD PTR [ebp+0x8]
   1141e:	50                   	push   eax
   1141f:	68 c0 54 04 00       	push   0x454c0
   11424:	e8 7a 64 01 00       	call   278a3 <printk>
   11429:	83 c4 10             	add    esp,0x10
/home/yogi/src/os//chrisOS/src/init/kpaging.c:29
#endif
    return (uint32_t)*lTemp;
   1142c:	8b 45 f0             	mov    eax,DWORD PTR [ebp-0x10]
   1142f:	8b 00                	mov    eax,DWORD PTR [eax]
/home/yogi/src/os//chrisOS/src/init/kpaging.c:30
}
   11431:	c9                   	leave  
   11432:	c3                   	ret    

00011433 <kPagingGet4kPDEntryValue>:
kPagingGet4kPDEntryValue():
/home/yogi/src/os//chrisOS/src/init/kpaging.c:33

uint32_t kPagingGet4kPDEntryValue(uint32_t address)
{
   11433:	55                   	push   ebp
   11434:	89 e5                	mov    ebp,esp
   11436:	83 ec 08             	sub    esp,0x8
/home/yogi/src/os//chrisOS/src/init/kpaging.c:34
    return kPagingGet4kPDEntryValueCR3(KERNEL_PAGE_DIR_ADDRESS,address);
   11439:	83 ec 08             	sub    esp,0x8
   1143c:	ff 75 08             	push   DWORD PTR [ebp+0x8]
   1143f:	68 00 a0 4b 00       	push   0x4ba000
   11444:	e8 87 ff ff ff       	call   113d0 <kPagingGet4kPDEntryValueCR3>
   11449:	83 c4 10             	add    esp,0x10
/home/yogi/src/os//chrisOS/src/init/kpaging.c:35
}
   1144c:	c9                   	leave  
   1144d:	c3                   	ret    

0001144e <kPagingGet4kPDEntryAddressCR3>:
kPagingGet4kPDEntryAddressCR3():
/home/yogi/src/os//chrisOS/src/init/kpaging.c:38

uint32_t kPagingGet4kPDEntryAddressCR3(uintptr_t PageDirAddress, uint32_t address)
{
   1144e:	55                   	push   ebp
   1144f:	89 e5                	mov    ebp,esp
   11451:	83 ec 18             	sub    esp,0x18
/home/yogi/src/os//chrisOS/src/init/kpaging.c:39
    address&=0xFFFFF000;
   11454:	81 65 0c 00 f0 ff ff 	and    DWORD PTR [ebp+0xc],0xfffff000
/home/yogi/src/os//chrisOS/src/init/kpaging.c:40
    uintptr_t lTemp=((PageDirAddress  | (((address & 0xFFC00000) >> 22) << 2)));
   1145b:	8b 45 0c             	mov    eax,DWORD PTR [ebp+0xc]
   1145e:	c1 e8 16             	shr    eax,0x16
   11461:	c1 e0 02             	shl    eax,0x2
   11464:	0b 45 08             	or     eax,DWORD PTR [ebp+0x8]
   11467:	89 45 f4             	mov    DWORD PTR [ebp-0xc],eax
/home/yogi/src/os//chrisOS/src/init/kpaging.c:42
#ifndef DEBUG_NONE
         if ((kDebugLevel & DEBUG_PAGING) == DEBUG_PAGING)
   1146a:	a1 78 98 12 00       	mov    eax,ds:0x129878
   1146f:	83 e0 40             	and    eax,0x40
   11472:	85 c0                	test   eax,eax
   11474:	74 16                	je     1148c <kPagingGet4kPDEntryAddressCR3+0x3e>
/home/yogi/src/os//chrisOS/src/init/kpaging.c:43
            printk("kPagingGet4kPDEntryAddressCR3: dirEntryAddress=0x%08x  (PDIR=0x%08X)\n", lTemp, PageDirAddress);
   11476:	83 ec 04             	sub    esp,0x4
   11479:	ff 75 08             	push   DWORD PTR [ebp+0x8]
   1147c:	ff 75 f4             	push   DWORD PTR [ebp-0xc]
   1147f:	68 04 55 04 00       	push   0x45504
   11484:	e8 1a 64 01 00       	call   278a3 <printk>
   11489:	83 c4 10             	add    esp,0x10
/home/yogi/src/os//chrisOS/src/init/kpaging.c:45
#endif
    return (uint32_t)lTemp & 0xFFFFFFFF;
   1148c:	8b 45 f4             	mov    eax,DWORD PTR [ebp-0xc]
/home/yogi/src/os//chrisOS/src/init/kpaging.c:46
}
   1148f:	c9                   	leave  
   11490:	c3                   	ret    

00011491 <kPagingGet4kPDEntryAddress>:
kPagingGet4kPDEntryAddress():
/home/yogi/src/os//chrisOS/src/init/kpaging.c:49

uint32_t kPagingGet4kPDEntryAddress(uint32_t address)
{
   11491:	55                   	push   ebp
   11492:	89 e5                	mov    ebp,esp
   11494:	83 ec 08             	sub    esp,0x8
/home/yogi/src/os//chrisOS/src/init/kpaging.c:50
    return kPagingGet4kPDEntryAddressCR3(KERNEL_PAGE_DIR_ADDRESS,address);
   11497:	83 ec 08             	sub    esp,0x8
   1149a:	ff 75 08             	push   DWORD PTR [ebp+0x8]
   1149d:	68 00 a0 4b 00       	push   0x4ba000
   114a2:	e8 a7 ff ff ff       	call   1144e <kPagingGet4kPDEntryAddressCR3>
   114a7:	83 c4 10             	add    esp,0x10
/home/yogi/src/os//chrisOS/src/init/kpaging.c:51
}
   114aa:	c9                   	leave  
   114ab:	c3                   	ret    

000114ac <kPagingGet4kPTEntryAddressCR3>:
kPagingGet4kPTEntryAddressCR3():
/home/yogi/src/os//chrisOS/src/init/kpaging.c:54

uint32_t kPagingGet4kPTEntryAddressCR3(uintptr_t pageDirAddress, uint32_t address)
{
   114ac:	55                   	push   ebp
   114ad:	89 e5                	mov    ebp,esp
   114af:	83 ec 18             	sub    esp,0x18
/home/yogi/src/os//chrisOS/src/init/kpaging.c:55
    address&=0xFFFFF000;
   114b2:	81 65 0c 00 f0 ff ff 	and    DWORD PTR [ebp+0xc],0xfffff000
/home/yogi/src/os//chrisOS/src/init/kpaging.c:56
    uintptr_t pDirPtr=kPagingGet4kPDEntryValueCR3(pageDirAddress,address) & 0xFFFFF000;
   114b9:	83 ec 08             	sub    esp,0x8
   114bc:	ff 75 0c             	push   DWORD PTR [ebp+0xc]
   114bf:	ff 75 08             	push   DWORD PTR [ebp+0x8]
   114c2:	e8 09 ff ff ff       	call   113d0 <kPagingGet4kPDEntryValueCR3>
   114c7:	83 c4 10             	add    esp,0x10
   114ca:	25 00 f0 ff ff       	and    eax,0xfffff000
   114cf:	89 45 f4             	mov    DWORD PTR [ebp-0xc],eax
/home/yogi/src/os//chrisOS/src/init/kpaging.c:57
    return ((address & 0x3FF000) >> 12) << 2 | pDirPtr;
   114d2:	8b 45 0c             	mov    eax,DWORD PTR [ebp+0xc]
   114d5:	25 00 f0 3f 00       	and    eax,0x3ff000
   114da:	c1 e8 0c             	shr    eax,0xc
   114dd:	c1 e0 02             	shl    eax,0x2
   114e0:	0b 45 f4             	or     eax,DWORD PTR [ebp-0xc]
/home/yogi/src/os//chrisOS/src/init/kpaging.c:58
}
   114e3:	c9                   	leave  
   114e4:	c3                   	ret    

000114e5 <kPagingGet4kPTEntryAddress>:
kPagingGet4kPTEntryAddress():
/home/yogi/src/os//chrisOS/src/init/kpaging.c:61

uint32_t kPagingGet4kPTEntryAddress(uint32_t address)
{
   114e5:	55                   	push   ebp
   114e6:	89 e5                	mov    ebp,esp
   114e8:	83 ec 08             	sub    esp,0x8
/home/yogi/src/os//chrisOS/src/init/kpaging.c:62
    return kPagingGet4kPTEntryAddressCR3(KERNEL_PAGE_DIR_ADDRESS,address);
   114eb:	83 ec 08             	sub    esp,0x8
   114ee:	ff 75 08             	push   DWORD PTR [ebp+0x8]
   114f1:	68 00 a0 4b 00       	push   0x4ba000
   114f6:	e8 b1 ff ff ff       	call   114ac <kPagingGet4kPTEntryAddressCR3>
   114fb:	83 c4 10             	add    esp,0x10
/home/yogi/src/os//chrisOS/src/init/kpaging.c:63
}
   114fe:	c9                   	leave  
   114ff:	c3                   	ret    

00011500 <kPagingGet4kPTEntryValueCR3>:
kPagingGet4kPTEntryValueCR3():
/home/yogi/src/os//chrisOS/src/init/kpaging.c:66

uint32_t kPagingGet4kPTEntryValueCR3(uintptr_t pageDirAddress, uint32_t address)
{
   11500:	55                   	push   ebp
   11501:	89 e5                	mov    ebp,esp
   11503:	83 ec 18             	sub    esp,0x18
/home/yogi/src/os//chrisOS/src/init/kpaging.c:67
    address&=0xFFFFF000;
   11506:	81 65 0c 00 f0 ff ff 	and    DWORD PTR [ebp+0xc],0xfffff000
/home/yogi/src/os//chrisOS/src/init/kpaging.c:68
    uint32_t* pTablePtr=(uint32_t*)kPagingGet4kPTEntryAddressCR3(pageDirAddress,address);
   1150d:	83 ec 08             	sub    esp,0x8
   11510:	ff 75 0c             	push   DWORD PTR [ebp+0xc]
   11513:	ff 75 08             	push   DWORD PTR [ebp+0x8]
   11516:	e8 91 ff ff ff       	call   114ac <kPagingGet4kPTEntryAddressCR3>
   1151b:	83 c4 10             	add    esp,0x10
   1151e:	89 45 f4             	mov    DWORD PTR [ebp-0xc],eax
/home/yogi/src/os//chrisOS/src/init/kpaging.c:70
#ifndef DEBUG_NONE
         if ((kDebugLevel & DEBUG_PAGING) == DEBUG_PAGING)
   11521:	a1 78 98 12 00       	mov    eax,ds:0x129878
   11526:	83 e0 40             	and    eax,0x40
   11529:	85 c0                	test   eax,eax
   1152b:	74 19                	je     11546 <kPagingGet4kPTEntryValueCR3+0x46>
/home/yogi/src/os//chrisOS/src/init/kpaging.c:71
             printk("kPagingGet4kPTEntryValueCR3: PTAddress=0x%08X, PTValue=0x%08X (PDIR=0x%08X)\n", pTablePtr,*pTablePtr,pageDirAddress);
   1152d:	8b 45 f4             	mov    eax,DWORD PTR [ebp-0xc]
   11530:	8b 00                	mov    eax,DWORD PTR [eax]
   11532:	ff 75 08             	push   DWORD PTR [ebp+0x8]
   11535:	50                   	push   eax
   11536:	ff 75 f4             	push   DWORD PTR [ebp-0xc]
   11539:	68 4c 55 04 00       	push   0x4554c
   1153e:	e8 60 63 01 00       	call   278a3 <printk>
   11543:	83 c4 10             	add    esp,0x10
/home/yogi/src/os//chrisOS/src/init/kpaging.c:73
#endif
    return *pTablePtr;
   11546:	8b 45 f4             	mov    eax,DWORD PTR [ebp-0xc]
   11549:	8b 00                	mov    eax,DWORD PTR [eax]
/home/yogi/src/os//chrisOS/src/init/kpaging.c:74
}
   1154b:	c9                   	leave  
   1154c:	c3                   	ret    

0001154d <kPagingGet4kPTEntryValue>:
kPagingGet4kPTEntryValue():
/home/yogi/src/os//chrisOS/src/init/kpaging.c:77

uint32_t kPagingGet4kPTEntryValue(uint32_t address)
{
   1154d:	55                   	push   ebp
   1154e:	89 e5                	mov    ebp,esp
   11550:	83 ec 08             	sub    esp,0x8
/home/yogi/src/os//chrisOS/src/init/kpaging.c:78
    return kPagingGet4kPTEntryValueCR3(KERNEL_PAGE_DIR_ADDRESS,address);
   11553:	83 ec 08             	sub    esp,0x8
   11556:	ff 75 08             	push   DWORD PTR [ebp+0x8]
   11559:	68 00 a0 4b 00       	push   0x4ba000
   1155e:	e8 9d ff ff ff       	call   11500 <kPagingGet4kPTEntryValueCR3>
   11563:	83 c4 10             	add    esp,0x10
/home/yogi/src/os//chrisOS/src/init/kpaging.c:79
}
   11566:	c9                   	leave  
   11567:	c3                   	ret    

00011568 <kPagingSetPageReadOnlyFlag>:
kPagingSetPageReadOnlyFlag():
/home/yogi/src/os//chrisOS/src/init/kpaging.c:85




void kPagingSetPageReadOnlyFlag(uintptr_t* ptEntry, bool readOnly)
{
   11568:	55                   	push   ebp
   11569:	89 e5                	mov    ebp,esp
   1156b:	83 ec 18             	sub    esp,0x18
   1156e:	8b 45 0c             	mov    eax,DWORD PTR [ebp+0xc]
   11571:	88 45 f4             	mov    BYTE PTR [ebp-0xc],al
/home/yogi/src/os//chrisOS/src/init/kpaging.c:87
#ifndef DEBUG_NONE
         if ((kDebugLevel & DEBUG_PAGING) == DEBUG_PAGING)
   11574:	a1 78 98 12 00       	mov    eax,ds:0x129878
   11579:	83 e0 40             	and    eax,0x40
   1157c:	85 c0                	test   eax,eax
   1157e:	74 19                	je     11599 <kPagingSetPageReadOnlyFlag+0x31>
/home/yogi/src/os//chrisOS/src/init/kpaging.c:88
            printk("pagingMakePageReadOnly: 0x%08X - before/after: 0x%08X/", ptEntry, *ptEntry);
   11580:	8b 45 08             	mov    eax,DWORD PTR [ebp+0x8]
   11583:	8b 00                	mov    eax,DWORD PTR [eax]
   11585:	83 ec 04             	sub    esp,0x4
   11588:	50                   	push   eax
   11589:	ff 75 08             	push   DWORD PTR [ebp+0x8]
   1158c:	68 9c 55 04 00       	push   0x4559c
   11591:	e8 0d 63 01 00       	call   278a3 <printk>
   11596:	83 c4 10             	add    esp,0x10
/home/yogi/src/os//chrisOS/src/init/kpaging.c:90
#endif
         if (readOnly)
   11599:	80 7d f4 00          	cmp    BYTE PTR [ebp-0xc],0x0
   1159d:	74 11                	je     115b0 <kPagingSetPageReadOnlyFlag+0x48>
/home/yogi/src/os//chrisOS/src/init/kpaging.c:91
            *ptEntry&=0xFFFFFFFD;
   1159f:	8b 45 08             	mov    eax,DWORD PTR [ebp+0x8]
   115a2:	8b 00                	mov    eax,DWORD PTR [eax]
   115a4:	83 e0 fd             	and    eax,0xfffffffd
   115a7:	89 c2                	mov    edx,eax
   115a9:	8b 45 08             	mov    eax,DWORD PTR [ebp+0x8]
   115ac:	89 10                	mov    DWORD PTR [eax],edx
   115ae:	eb 0f                	jmp    115bf <kPagingSetPageReadOnlyFlag+0x57>
/home/yogi/src/os//chrisOS/src/init/kpaging.c:93
         else
            *ptEntry|=2; 
   115b0:	8b 45 08             	mov    eax,DWORD PTR [ebp+0x8]
   115b3:	8b 00                	mov    eax,DWORD PTR [eax]
   115b5:	83 c8 02             	or     eax,0x2
   115b8:	89 c2                	mov    edx,eax
   115ba:	8b 45 08             	mov    eax,DWORD PTR [ebp+0x8]
   115bd:	89 10                	mov    DWORD PTR [eax],edx
/home/yogi/src/os//chrisOS/src/init/kpaging.c:94
    RELOAD_CR3
   115bf:	0f 20 d8             	mov    eax,cr3
   115c2:	0f 22 d8             	mov    cr3,eax
/home/yogi/src/os//chrisOS/src/init/kpaging.c:96
#ifndef DEBUG_NONE
         if ((kDebugLevel & DEBUG_PAGING) == DEBUG_PAGING)
   115c5:	a1 78 98 12 00       	mov    eax,ds:0x129878
   115ca:	83 e0 40             	and    eax,0x40
   115cd:	85 c0                	test   eax,eax
   115cf:	74 16                	je     115e7 <kPagingSetPageReadOnlyFlag+0x7f>
/home/yogi/src/os//chrisOS/src/init/kpaging.c:97
            printk("0x%08X\n", *ptEntry);
   115d1:	8b 45 08             	mov    eax,DWORD PTR [ebp+0x8]
   115d4:	8b 00                	mov    eax,DWORD PTR [eax]
   115d6:	83 ec 08             	sub    esp,0x8
   115d9:	50                   	push   eax
   115da:	68 d3 55 04 00       	push   0x455d3
   115df:	e8 bf 62 01 00       	call   278a3 <printk>
   115e4:	83 c4 10             	add    esp,0x10
/home/yogi/src/os//chrisOS/src/init/kpaging.c:99
#endif
}
   115e7:	90                   	nop
   115e8:	c9                   	leave  
   115e9:	c3                   	ret    

000115ea <kPagingUpdatePTEPresentFlag>:
kPagingUpdatePTEPresentFlag():
/home/yogi/src/os//chrisOS/src/init/kpaging.c:102

void kPagingUpdatePTEPresentFlag(uintptr_t* ptEntry, bool present)
{
   115ea:	55                   	push   ebp
   115eb:	89 e5                	mov    ebp,esp
   115ed:	83 ec 18             	sub    esp,0x18
   115f0:	8b 45 0c             	mov    eax,DWORD PTR [ebp+0xc]
   115f3:	88 45 f4             	mov    BYTE PTR [ebp-0xc],al
/home/yogi/src/os//chrisOS/src/init/kpaging.c:103
         printd(DEBUG_PAGING,"pagingUpdatePTEPresentFlag: 0x%08X - before/after: 0x%08X/", ptEntry, *ptEntry);
   115f6:	8b 45 08             	mov    eax,DWORD PTR [ebp+0x8]
   115f9:	8b 00                	mov    eax,DWORD PTR [eax]
   115fb:	50                   	push   eax
   115fc:	ff 75 08             	push   DWORD PTR [ebp+0x8]
   115ff:	68 dc 55 04 00       	push   0x455dc
   11604:	6a 40                	push   0x40
   11606:	e8 b8 62 01 00       	call   278c3 <printd>
   1160b:	83 c4 10             	add    esp,0x10
/home/yogi/src/os//chrisOS/src/init/kpaging.c:104
         if (present)
   1160e:	80 7d f4 00          	cmp    BYTE PTR [ebp-0xc],0x0
   11612:	74 11                	je     11625 <kPagingUpdatePTEPresentFlag+0x3b>
/home/yogi/src/os//chrisOS/src/init/kpaging.c:105
             *ptEntry=*ptEntry | 1;
   11614:	8b 45 08             	mov    eax,DWORD PTR [ebp+0x8]
   11617:	8b 00                	mov    eax,DWORD PTR [eax]
   11619:	83 c8 01             	or     eax,0x1
   1161c:	89 c2                	mov    edx,eax
   1161e:	8b 45 08             	mov    eax,DWORD PTR [ebp+0x8]
   11621:	89 10                	mov    DWORD PTR [eax],edx
   11623:	eb 0f                	jmp    11634 <kPagingUpdatePTEPresentFlag+0x4a>
/home/yogi/src/os//chrisOS/src/init/kpaging.c:107
         else
             *ptEntry&=0xFFFFFFFE;
   11625:	8b 45 08             	mov    eax,DWORD PTR [ebp+0x8]
   11628:	8b 00                	mov    eax,DWORD PTR [eax]
   1162a:	83 e0 fe             	and    eax,0xfffffffe
   1162d:	89 c2                	mov    edx,eax
   1162f:	8b 45 08             	mov    eax,DWORD PTR [ebp+0x8]
   11632:	89 10                	mov    DWORD PTR [eax],edx
/home/yogi/src/os//chrisOS/src/init/kpaging.c:108
         __asm__("mov eax,cr3\nmov cr3,eax\n":::"eax");
   11634:	0f 20 d8             	mov    eax,cr3
   11637:	0f 22 d8             	mov    cr3,eax
/home/yogi/src/os//chrisOS/src/init/kpaging.c:109
         printd(DEBUG_PAGING,"0x%08X\n", *ptEntry);
   1163a:	8b 45 08             	mov    eax,DWORD PTR [ebp+0x8]
   1163d:	8b 00                	mov    eax,DWORD PTR [eax]
   1163f:	83 ec 04             	sub    esp,0x4
   11642:	50                   	push   eax
   11643:	68 d3 55 04 00       	push   0x455d3
   11648:	6a 40                	push   0x40
   1164a:	e8 74 62 01 00       	call   278c3 <printd>
   1164f:	83 c4 10             	add    esp,0x10
/home/yogi/src/os//chrisOS/src/init/kpaging.c:110
}
   11652:	90                   	nop
   11653:	c9                   	leave  
   11654:	c3                   	ret    

00011655 <kSetVirtualRangeRO>:
kSetVirtualRangeRO():
/home/yogi/src/os//chrisOS/src/init/kpaging.c:113

void kSetVirtualRangeRO(uint32_t startAddy, uint32_t endAddy, bool readOnly)
{
   11655:	55                   	push   ebp
   11656:	89 e5                	mov    ebp,esp
   11658:	83 ec 28             	sub    esp,0x28
   1165b:	8b 45 10             	mov    eax,DWORD PTR [ebp+0x10]
   1165e:	88 45 e4             	mov    BYTE PTR [ebp-0x1c],al
/home/yogi/src/os//chrisOS/src/init/kpaging.c:116
    uintptr_t* startPTE;
#ifndef DEBUG_NONE
        if ((kDebugLevel & DEBUG_PAGING) == DEBUG_PAGING)
   11661:	a1 78 98 12 00       	mov    eax,ds:0x129878
   11666:	83 e0 40             	and    eax,0x40
   11669:	85 c0                	test   eax,eax
   1166b:	74 16                	je     11683 <kSetVirtualRangeRO+0x2e>
/home/yogi/src/os//chrisOS/src/init/kpaging.c:117
           printk("kMakeVirtualRangeRO: Make 0x%08X-0x%08X r/o\n", startAddy, endAddy);
   1166d:	83 ec 04             	sub    esp,0x4
   11670:	ff 75 0c             	push   DWORD PTR [ebp+0xc]
   11673:	ff 75 08             	push   DWORD PTR [ebp+0x8]
   11676:	68 18 56 04 00       	push   0x45618
   1167b:	e8 23 62 01 00       	call   278a3 <printk>
   11680:	83 c4 10             	add    esp,0x10
/home/yogi/src/os//chrisOS/src/init/kpaging.c:119
#endif
    for (uint32_t cnt=(startAddy);cnt<=(endAddy)+1;cnt+=0x1000)
   11683:	8b 45 08             	mov    eax,DWORD PTR [ebp+0x8]
   11686:	89 45 f4             	mov    DWORD PTR [ebp-0xc],eax
   11689:	eb 64                	jmp    116ef <kSetVirtualRangeRO+0x9a>
/home/yogi/src/os//chrisOS/src/init/kpaging.c:121
    {
        startPTE=(uintptr_t*)kPagingGet4kPTEntryAddress(cnt);
   1168b:	83 ec 0c             	sub    esp,0xc
   1168e:	ff 75 f4             	push   DWORD PTR [ebp-0xc]
   11691:	e8 4f fe ff ff       	call   114e5 <kPagingGet4kPTEntryAddress>
   11696:	83 c4 10             	add    esp,0x10
   11699:	89 45 f0             	mov    DWORD PTR [ebp-0x10],eax
/home/yogi/src/os//chrisOS/src/init/kpaging.c:123
#ifndef DEBUG_NONE
        if ((kDebugLevel & DEBUG_PAGING) == DEBUG_PAGING)
   1169c:	a1 78 98 12 00       	mov    eax,ds:0x129878
   116a1:	83 e0 40             	and    eax,0x40
   116a4:	85 c0                	test   eax,eax
   116a6:	74 26                	je     116ce <kSetVirtualRangeRO+0x79>
/home/yogi/src/os//chrisOS/src/init/kpaging.c:124
            printk("0x%08X (0x%08X) %s --> ", cnt, startPTE, readOnly?"ro":"rw");
   116a8:	80 7d e4 00          	cmp    BYTE PTR [ebp-0x1c],0x0
   116ac:	74 07                	je     116b5 <kSetVirtualRangeRO+0x60>
/home/yogi/src/os//chrisOS/src/init/kpaging.c:124 (discriminator 1)
   116ae:	b8 45 56 04 00       	mov    eax,0x45645
   116b3:	eb 05                	jmp    116ba <kSetVirtualRangeRO+0x65>
/home/yogi/src/os//chrisOS/src/init/kpaging.c:124 (discriminator 2)
   116b5:	b8 48 56 04 00       	mov    eax,0x45648
/home/yogi/src/os//chrisOS/src/init/kpaging.c:124 (discriminator 4)
   116ba:	50                   	push   eax
   116bb:	ff 75 f0             	push   DWORD PTR [ebp-0x10]
   116be:	ff 75 f4             	push   DWORD PTR [ebp-0xc]
   116c1:	68 4b 56 04 00       	push   0x4564b
   116c6:	e8 d8 61 01 00       	call   278a3 <printk>
   116cb:	83 c4 10             	add    esp,0x10
/home/yogi/src/os//chrisOS/src/init/kpaging.c:126 (discriminator 2)
#endif
        kPagingSetPageReadOnlyFlag(startPTE++, readOnly);
   116ce:	0f b6 55 e4          	movzx  edx,BYTE PTR [ebp-0x1c]
   116d2:	8b 45 f0             	mov    eax,DWORD PTR [ebp-0x10]
   116d5:	8d 48 04             	lea    ecx,[eax+0x4]
   116d8:	89 4d f0             	mov    DWORD PTR [ebp-0x10],ecx
   116db:	83 ec 08             	sub    esp,0x8
   116de:	52                   	push   edx
   116df:	50                   	push   eax
   116e0:	e8 83 fe ff ff       	call   11568 <kPagingSetPageReadOnlyFlag>
   116e5:	83 c4 10             	add    esp,0x10
/home/yogi/src/os//chrisOS/src/init/kpaging.c:119 (discriminator 2)
    uintptr_t* startPTE;
#ifndef DEBUG_NONE
        if ((kDebugLevel & DEBUG_PAGING) == DEBUG_PAGING)
           printk("kMakeVirtualRangeRO: Make 0x%08X-0x%08X r/o\n", startAddy, endAddy);
#endif
    for (uint32_t cnt=(startAddy);cnt<=(endAddy)+1;cnt+=0x1000)
   116e8:	81 45 f4 00 10 00 00 	add    DWORD PTR [ebp-0xc],0x1000
/home/yogi/src/os//chrisOS/src/init/kpaging.c:119 (discriminator 1)
   116ef:	8b 45 0c             	mov    eax,DWORD PTR [ebp+0xc]
   116f2:	83 c0 01             	add    eax,0x1
   116f5:	3b 45 f4             	cmp    eax,DWORD PTR [ebp-0xc]
   116f8:	73 91                	jae    1168b <kSetVirtualRangeRO+0x36>
/home/yogi/src/os//chrisOS/src/init/kpaging.c:130
#endif
        kPagingSetPageReadOnlyFlag(startPTE++, readOnly);
            
    }
        //for cnt=0;cnt<=8192;cnt+=4096
}
   116fa:	90                   	nop
   116fb:	c9                   	leave  
   116fc:	c3                   	ret    

000116fd <kpagingUpdatePresentFlagA>:
kpagingUpdatePresentFlagA():
/home/yogi/src/os//chrisOS/src/init/kpaging.c:134

//Absolute version, page passed is already virtual
void kpagingUpdatePresentFlagA(uint32_t address, bool present)
{
   116fd:	55                   	push   ebp
   116fe:	89 e5                	mov    ebp,esp
   11700:	83 ec 28             	sub    esp,0x28
   11703:	8b 45 0c             	mov    eax,DWORD PTR [ebp+0xc]
   11706:	88 45 e4             	mov    BYTE PTR [ebp-0x1c],al
/home/yogi/src/os//chrisOS/src/init/kpaging.c:136
#ifndef DEBUG_NONE
        if ((kDebugLevel & DEBUG_PAGING) == DEBUG_PAGING)
   11709:	a1 78 98 12 00       	mov    eax,ds:0x129878
   1170e:	83 e0 40             	and    eax,0x40
   11711:	85 c0                	test   eax,eax
   11713:	74 26                	je     1173b <kpagingUpdatePresentFlagA+0x3e>
/home/yogi/src/os//chrisOS/src/init/kpaging.c:137
            printk("kpagingUpdatePresentFlagA: Make 0x%08X %s\n", address, present?"present":"not present");
   11715:	80 7d e4 00          	cmp    BYTE PTR [ebp-0x1c],0x0
   11719:	74 07                	je     11722 <kpagingUpdatePresentFlagA+0x25>
/home/yogi/src/os//chrisOS/src/init/kpaging.c:137 (discriminator 1)
   1171b:	b8 63 56 04 00       	mov    eax,0x45663
   11720:	eb 05                	jmp    11727 <kpagingUpdatePresentFlagA+0x2a>
/home/yogi/src/os//chrisOS/src/init/kpaging.c:137 (discriminator 2)
   11722:	b8 6b 56 04 00       	mov    eax,0x4566b
/home/yogi/src/os//chrisOS/src/init/kpaging.c:137 (discriminator 4)
   11727:	83 ec 04             	sub    esp,0x4
   1172a:	50                   	push   eax
   1172b:	ff 75 08             	push   DWORD PTR [ebp+0x8]
   1172e:	68 78 56 04 00       	push   0x45678
   11733:	e8 6b 61 01 00       	call   278a3 <printk>
   11738:	83 c4 10             	add    esp,0x10
/home/yogi/src/os//chrisOS/src/init/kpaging.c:139
#endif
        uintptr_t* pagePTE= (uintptr_t*)kPagingGet4kPTEntryAddress(address&0xFFFFF000);
   1173b:	8b 45 08             	mov    eax,DWORD PTR [ebp+0x8]
   1173e:	25 00 f0 ff ff       	and    eax,0xfffff000
   11743:	83 ec 0c             	sub    esp,0xc
   11746:	50                   	push   eax
   11747:	e8 99 fd ff ff       	call   114e5 <kPagingGet4kPTEntryAddress>
   1174c:	83 c4 10             	add    esp,0x10
   1174f:	89 45 f4             	mov    DWORD PTR [ebp-0xc],eax
/home/yogi/src/os//chrisOS/src/init/kpaging.c:141
#ifndef DEBUG_NONE
        if ((kDebugLevel & DEBUG_PAGING) == DEBUG_PAGING)
   11752:	a1 78 98 12 00       	mov    eax,ds:0x129878
   11757:	83 e0 40             	and    eax,0x40
   1175a:	85 c0                	test   eax,eax
   1175c:	74 13                	je     11771 <kpagingUpdatePresentFlagA+0x74>
/home/yogi/src/os//chrisOS/src/init/kpaging.c:142
            printk("kpagingUpdatePresentFlagA: updating entry 0x%08X\n", pagePTE);
   1175e:	83 ec 08             	sub    esp,0x8
   11761:	ff 75 f4             	push   DWORD PTR [ebp-0xc]
   11764:	68 a4 56 04 00       	push   0x456a4
   11769:	e8 35 61 01 00       	call   278a3 <printk>
   1176e:	83 c4 10             	add    esp,0x10
/home/yogi/src/os//chrisOS/src/init/kpaging.c:144
#endif
        kPagingUpdatePTEPresentFlag(pagePTE, present);
   11771:	0f b6 45 e4          	movzx  eax,BYTE PTR [ebp-0x1c]
   11775:	83 ec 08             	sub    esp,0x8
   11778:	50                   	push   eax
   11779:	ff 75 f4             	push   DWORD PTR [ebp-0xc]
   1177c:	e8 69 fe ff ff       	call   115ea <kPagingUpdatePTEPresentFlag>
   11781:	83 c4 10             	add    esp,0x10
/home/yogi/src/os//chrisOS/src/init/kpaging.c:145
}
   11784:	90                   	nop
   11785:	c9                   	leave  
   11786:	c3                   	ret    

00011787 <kpagingUpdatePresentFlagV>:
kpagingUpdatePresentFlagV():
/home/yogi/src/os//chrisOS/src/init/kpaging.c:148

void kpagingUpdatePresentFlagV(uint32_t address, bool present)
{
   11787:	55                   	push   ebp
   11788:	89 e5                	mov    ebp,esp
   1178a:	83 ec 18             	sub    esp,0x18
   1178d:	8b 45 0c             	mov    eax,DWORD PTR [ebp+0xc]
   11790:	88 45 f4             	mov    BYTE PTR [ebp-0xc],al
/home/yogi/src/os//chrisOS/src/init/kpaging.c:149
    address+=KERNEL_PAGED_BASE_ADDRESS; 
   11793:	81 6d 08 00 00 00 40 	sub    DWORD PTR [ebp+0x8],0x40000000
/home/yogi/src/os//chrisOS/src/init/kpaging.c:150
    kpagingUpdatePresentFlagA(address, present);
   1179a:	0f b6 45 f4          	movzx  eax,BYTE PTR [ebp-0xc]
   1179e:	83 ec 08             	sub    esp,0x8
   117a1:	50                   	push   eax
   117a2:	ff 75 08             	push   DWORD PTR [ebp+0x8]
   117a5:	e8 53 ff ff ff       	call   116fd <kpagingUpdatePresentFlagA>
   117aa:	83 c4 10             	add    esp,0x10
/home/yogi/src/os//chrisOS/src/init/kpaging.c:151
}
   117ad:	90                   	nop
   117ae:	c9                   	leave  
   117af:	c3                   	ret    

000117b0 <kMapPage>:
kMapPage():
/home/yogi/src/os//chrisOS/src/init/kpaging.c:154

void kMapPage(uintptr_t mapTo, uintptr_t mapFrom, uint8_t flags)
{
   117b0:	55                   	push   ebp
   117b1:	89 e5                	mov    ebp,esp
   117b3:	53                   	push   ebx
   117b4:	83 ec 24             	sub    esp,0x24
   117b7:	8b 45 10             	mov    eax,DWORD PTR [ebp+0x10]
   117ba:	88 45 e4             	mov    BYTE PTR [ebp-0x1c],al
/home/yogi/src/os//chrisOS/src/init/kpaging.c:158
    uint32_t *ptr;
    uint32_t ptrVal;
    uint32_t *ptrT;
    ptr=(uint32_t*)kKernelPageDir;
   117bd:	a1 e4 97 12 00       	mov    eax,ds:0x1297e4
   117c2:	89 45 f4             	mov    DWORD PTR [ebp-0xc],eax
/home/yogi/src/os//chrisOS/src/init/kpaging.c:159
    ptrVal=ptr[(mapTo>>22)];
   117c5:	8b 45 08             	mov    eax,DWORD PTR [ebp+0x8]
   117c8:	c1 e8 16             	shr    eax,0x16
   117cb:	8d 14 85 00 00 00 00 	lea    edx,[eax*4+0x0]
   117d2:	8b 45 f4             	mov    eax,DWORD PTR [ebp-0xc]
   117d5:	01 d0                	add    eax,edx
   117d7:	8b 00                	mov    eax,DWORD PTR [eax]
   117d9:	89 45 f0             	mov    DWORD PTR [ebp-0x10],eax
/home/yogi/src/os//chrisOS/src/init/kpaging.c:160
    if (ptrVal==0 && mapTo < kE820MemoryBytes)
   117dc:	83 7d f0 00          	cmp    DWORD PTR [ebp-0x10],0x0
   117e0:	0f 85 cb 00 00 00    	jne    118b1 <kMapPage+0x101>
/home/yogi/src/os//chrisOS/src/init/kpaging.c:160 (discriminator 1)
   117e6:	8b 4d 08             	mov    ecx,DWORD PTR [ebp+0x8]
   117e9:	bb 00 00 00 00       	mov    ebx,0x0
   117ee:	a1 88 95 12 00       	mov    eax,ds:0x129588
   117f3:	8b 15 8c 95 12 00    	mov    edx,DWORD PTR ds:0x12958c
   117f9:	39 d3                	cmp    ebx,edx
   117fb:	0f 87 b0 00 00 00    	ja     118b1 <kMapPage+0x101>
   11801:	39 d3                	cmp    ebx,edx
   11803:	72 08                	jb     1180d <kMapPage+0x5d>
   11805:	39 c1                	cmp    ecx,eax
   11807:	0f 83 a4 00 00 00    	jae    118b1 <kMapPage+0x101>
/home/yogi/src/os//chrisOS/src/init/kpaging.c:162
    {
        ptrT=(uint32_t*)0x20000000;
   1180d:	c7 45 ec 00 00 00 20 	mov    DWORD PTR [ebp-0x14],0x20000000
/home/yogi/src/os//chrisOS/src/init/kpaging.c:163
        ptr[(mapTo>>22)]=0x20000063;
   11814:	8b 45 08             	mov    eax,DWORD PTR [ebp+0x8]
   11817:	c1 e8 16             	shr    eax,0x16
   1181a:	8d 14 85 00 00 00 00 	lea    edx,[eax*4+0x0]
   11821:	8b 45 f4             	mov    eax,DWORD PTR [ebp-0xc]
   11824:	01 d0                	add    eax,edx
   11826:	c7 00 63 00 00 20    	mov    DWORD PTR [eax],0x20000063
/home/yogi/src/os//chrisOS/src/init/kpaging.c:164
        ptrT[(mapTo&0x003FFFFF/4096)]=mapFrom | flags;
   1182c:	8b 45 08             	mov    eax,DWORD PTR [ebp+0x8]
   1182f:	25 ff 03 00 00       	and    eax,0x3ff
   11834:	8d 14 85 00 00 00 00 	lea    edx,[eax*4+0x0]
   1183b:	8b 45 ec             	mov    eax,DWORD PTR [ebp-0x14]
   1183e:	01 c2                	add    edx,eax
   11840:	0f b6 45 e4          	movzx  eax,BYTE PTR [ebp-0x1c]
   11844:	0b 45 0c             	or     eax,DWORD PTR [ebp+0xc]
   11847:	89 02                	mov    DWORD PTR [edx],eax
/home/yogi/src/os//chrisOS/src/init/kpaging.c:166
#ifndef DEBUG_NONE
         if ((kDebugLevel & DEBUG_PAGING) == DEBUG_PAGING)
   11849:	a1 78 98 12 00       	mov    eax,ds:0x129878
   1184e:	83 e0 40             	and    eax,0x40
   11851:	85 c0                	test   eax,eax
   11853:	0f 84 41 01 00 00    	je     1199a <kMapPage+0x1ea>
/home/yogi/src/os//chrisOS/src/init/kpaging.c:167
            printk("kMapPage: Mapped 0x%08X via dir=0x%08X, page=0x%08X, to 0x%08X\n", mapTo, &ptr[(mapTo>>22)], &ptrT[(mapTo&0x003FFFFF/4096)],ptrT[(mapTo&0x003FFFFF/4096)]);
   11859:	8b 45 08             	mov    eax,DWORD PTR [ebp+0x8]
   1185c:	25 ff 03 00 00       	and    eax,0x3ff
   11861:	8d 14 85 00 00 00 00 	lea    edx,[eax*4+0x0]
   11868:	8b 45 ec             	mov    eax,DWORD PTR [ebp-0x14]
   1186b:	01 d0                	add    eax,edx
   1186d:	8b 00                	mov    eax,DWORD PTR [eax]
   1186f:	8b 55 08             	mov    edx,DWORD PTR [ebp+0x8]
   11872:	81 e2 ff 03 00 00    	and    edx,0x3ff
   11878:	8d 0c 95 00 00 00 00 	lea    ecx,[edx*4+0x0]
   1187f:	8b 55 ec             	mov    edx,DWORD PTR [ebp-0x14]
   11882:	01 d1                	add    ecx,edx
   11884:	8b 55 08             	mov    edx,DWORD PTR [ebp+0x8]
   11887:	c1 ea 16             	shr    edx,0x16
   1188a:	8d 1c 95 00 00 00 00 	lea    ebx,[edx*4+0x0]
   11891:	8b 55 f4             	mov    edx,DWORD PTR [ebp-0xc]
   11894:	01 da                	add    edx,ebx
   11896:	83 ec 0c             	sub    esp,0xc
   11899:	50                   	push   eax
   1189a:	51                   	push   ecx
   1189b:	52                   	push   edx
   1189c:	ff 75 08             	push   DWORD PTR [ebp+0x8]
   1189f:	68 d8 56 04 00       	push   0x456d8
   118a4:	e8 fa 5f 01 00       	call   278a3 <printk>
   118a9:	83 c4 20             	add    esp,0x20
/home/yogi/src/os//chrisOS/src/init/kpaging.c:166
    {
        ptrT=(uint32_t*)0x20000000;
        ptr[(mapTo>>22)]=0x20000063;
        ptrT[(mapTo&0x003FFFFF/4096)]=mapFrom | flags;
#ifndef DEBUG_NONE
         if ((kDebugLevel & DEBUG_PAGING) == DEBUG_PAGING)
   118ac:	e9 e9 00 00 00       	jmp    1199a <kMapPage+0x1ea>
/home/yogi/src/os//chrisOS/src/init/kpaging.c:173
#endif
    }
    else
    {
        //ptrVal right now points to the pdir entry
        ptr=(uint32_t*)kKernelPageDir;
   118b1:	a1 e4 97 12 00       	mov    eax,ds:0x1297e4
   118b6:	89 45 f4             	mov    DWORD PTR [ebp-0xc],eax
/home/yogi/src/os//chrisOS/src/init/kpaging.c:174
        if (ptr[(mapTo>>22)]==0)
   118b9:	8b 45 08             	mov    eax,DWORD PTR [ebp+0x8]
   118bc:	c1 e8 16             	shr    eax,0x16
   118bf:	8d 14 85 00 00 00 00 	lea    edx,[eax*4+0x0]
   118c6:	8b 45 f4             	mov    eax,DWORD PTR [ebp-0xc]
   118c9:	01 d0                	add    eax,edx
   118cb:	8b 00                	mov    eax,DWORD PTR [eax]
   118cd:	85 c0                	test   eax,eax
   118cf:	75 29                	jne    118fa <kMapPage+0x14a>
/home/yogi/src/os//chrisOS/src/init/kpaging.c:175
            ptr[mapTo>>22]=(KERNEL_PAGE_TABLE_BASE_ADDRESS + ((mapTo&0x003FFFFF)/4096)) | 0x63;
   118d1:	8b 45 08             	mov    eax,DWORD PTR [ebp+0x8]
   118d4:	c1 e8 16             	shr    eax,0x16
   118d7:	8d 14 85 00 00 00 00 	lea    edx,[eax*4+0x0]
   118de:	8b 45 f4             	mov    eax,DWORD PTR [ebp-0xc]
   118e1:	01 d0                	add    eax,edx
   118e3:	8b 55 08             	mov    edx,DWORD PTR [ebp+0x8]
   118e6:	81 e2 ff ff 3f 00    	and    edx,0x3fffff
   118ec:	c1 ea 0c             	shr    edx,0xc
   118ef:	81 c2 00 c0 4c 00    	add    edx,0x4cc000
   118f5:	83 ca 63             	or     edx,0x63
   118f8:	89 10                	mov    DWORD PTR [eax],edx
/home/yogi/src/os//chrisOS/src/init/kpaging.c:176
        ptrVal=ptr[mapTo>>22];
   118fa:	8b 45 08             	mov    eax,DWORD PTR [ebp+0x8]
   118fd:	c1 e8 16             	shr    eax,0x16
   11900:	8d 14 85 00 00 00 00 	lea    edx,[eax*4+0x0]
   11907:	8b 45 f4             	mov    eax,DWORD PTR [ebp-0xc]
   1190a:	01 d0                	add    eax,edx
   1190c:	8b 00                	mov    eax,DWORD PTR [eax]
   1190e:	89 45 f0             	mov    DWORD PTR [ebp-0x10],eax
/home/yogi/src/os//chrisOS/src/init/kpaging.c:177
        ptrVal=(ptrVal&0xFFFFF000);
   11911:	81 65 f0 00 f0 ff ff 	and    DWORD PTR [ebp-0x10],0xfffff000
/home/yogi/src/os//chrisOS/src/init/kpaging.c:178
        ptrT=(uint32_t*)ptrVal;
   11918:	8b 45 f0             	mov    eax,DWORD PTR [ebp-0x10]
   1191b:	89 45 ec             	mov    DWORD PTR [ebp-0x14],eax
/home/yogi/src/os//chrisOS/src/init/kpaging.c:180
        //Now ptrVal will point to offset within page table
        ptrVal=(mapTo&0x003FFFFF)/4096;
   1191e:	8b 45 08             	mov    eax,DWORD PTR [ebp+0x8]
   11921:	25 ff ff 3f 00       	and    eax,0x3fffff
   11926:	c1 e8 0c             	shr    eax,0xc
   11929:	89 45 f0             	mov    DWORD PTR [ebp-0x10],eax
/home/yogi/src/os//chrisOS/src/init/kpaging.c:181
        ptrT[ptrVal]=mapFrom | flags;
   1192c:	8b 45 f0             	mov    eax,DWORD PTR [ebp-0x10]
   1192f:	8d 14 85 00 00 00 00 	lea    edx,[eax*4+0x0]
   11936:	8b 45 ec             	mov    eax,DWORD PTR [ebp-0x14]
   11939:	01 c2                	add    edx,eax
   1193b:	0f b6 45 e4          	movzx  eax,BYTE PTR [ebp-0x1c]
   1193f:	0b 45 0c             	or     eax,DWORD PTR [ebp+0xc]
   11942:	89 02                	mov    DWORD PTR [edx],eax
/home/yogi/src/os//chrisOS/src/init/kpaging.c:185
//                printk("ptrT=%X(%X)\n",&ptrT[ptrVal],ptrT[ptrVal]);
//                STOPHERE2
#ifndef DEBUG_NONE
        if ((kDebugLevel & DEBUG_PAGING) == DEBUG_PAGING)
   11944:	a1 78 98 12 00       	mov    eax,ds:0x129878
   11949:	83 e0 40             	and    eax,0x40
